ARM GAS  C:\Users\Sam\AppData\Local\Temp\ccn73sbf.s 			page 1


   1              		.cpu cortex-m0
   2              		.fpu softvfp
   3              		.eabi_attribute 20, 1
   4              		.eabi_attribute 21, 1
   5              		.eabi_attribute 23, 3
   6              		.eabi_attribute 24, 1
   7              		.eabi_attribute 25, 1
   8              		.eabi_attribute 26, 1
   9              		.eabi_attribute 30, 6
  10              		.eabi_attribute 34, 0
  11              		.eabi_attribute 18, 4
  12              		.code	16
  13              		.file	"SpeedInterrupt.c"
  14              		.text
  15              	.Ltext0:
  16              		.cfi_sections	.debug_frame
  17              		.section	.text.SpeedInterrupt_Start,"ax",%progbits
  18              		.align	2
  19              		.global	SpeedInterrupt_Start
  20              		.code	16
  21              		.thumb_func
  22              		.type	SpeedInterrupt_Start, %function
  23              	SpeedInterrupt_Start:
  24              	.LFB0:
  25              		.file 1 ".\\Generated_Source\\PSoC4\\SpeedInterrupt.c"
   1:.\Generated_Source\PSoC4/SpeedInterrupt.c **** /*******************************************************************************
   2:.\Generated_Source\PSoC4/SpeedInterrupt.c **** * File Name: SpeedInterrupt.c  
   3:.\Generated_Source\PSoC4/SpeedInterrupt.c **** * Version 1.70
   4:.\Generated_Source\PSoC4/SpeedInterrupt.c **** *
   5:.\Generated_Source\PSoC4/SpeedInterrupt.c **** *  Description:
   6:.\Generated_Source\PSoC4/SpeedInterrupt.c **** *   API for controlling the state of an interrupt.
   7:.\Generated_Source\PSoC4/SpeedInterrupt.c **** *
   8:.\Generated_Source\PSoC4/SpeedInterrupt.c **** *
   9:.\Generated_Source\PSoC4/SpeedInterrupt.c **** *  Note:
  10:.\Generated_Source\PSoC4/SpeedInterrupt.c **** *
  11:.\Generated_Source\PSoC4/SpeedInterrupt.c **** ********************************************************************************
  12:.\Generated_Source\PSoC4/SpeedInterrupt.c **** * Copyright 2008-2012, Cypress Semiconductor Corporation.  All rights reserved.
  13:.\Generated_Source\PSoC4/SpeedInterrupt.c **** * You may use this file only in accordance with the license, terms, conditions, 
  14:.\Generated_Source\PSoC4/SpeedInterrupt.c **** * disclaimers, and limitations in the end user license agreement accompanying 
  15:.\Generated_Source\PSoC4/SpeedInterrupt.c **** * the software package with which this file was provided.
  16:.\Generated_Source\PSoC4/SpeedInterrupt.c **** *******************************************************************************/
  17:.\Generated_Source\PSoC4/SpeedInterrupt.c **** 
  18:.\Generated_Source\PSoC4/SpeedInterrupt.c **** 
  19:.\Generated_Source\PSoC4/SpeedInterrupt.c **** #include <cydevice_trm.h>
  20:.\Generated_Source\PSoC4/SpeedInterrupt.c **** #include <CyLib.h>
  21:.\Generated_Source\PSoC4/SpeedInterrupt.c **** #include <SpeedInterrupt.h>
  22:.\Generated_Source\PSoC4/SpeedInterrupt.c **** 
  23:.\Generated_Source\PSoC4/SpeedInterrupt.c **** #if !defined(SpeedInterrupt__REMOVED) /* Check for removal by optimization */
  24:.\Generated_Source\PSoC4/SpeedInterrupt.c **** 
  25:.\Generated_Source\PSoC4/SpeedInterrupt.c **** /*******************************************************************************
  26:.\Generated_Source\PSoC4/SpeedInterrupt.c **** *  Place your includes, defines and code here 
  27:.\Generated_Source\PSoC4/SpeedInterrupt.c **** ********************************************************************************/
  28:.\Generated_Source\PSoC4/SpeedInterrupt.c **** /* `#START SpeedInterrupt_intc` */
  29:.\Generated_Source\PSoC4/SpeedInterrupt.c **** 
  30:.\Generated_Source\PSoC4/SpeedInterrupt.c **** /* `#END` */
  31:.\Generated_Source\PSoC4/SpeedInterrupt.c **** 
  32:.\Generated_Source\PSoC4/SpeedInterrupt.c **** extern cyisraddress CyRamVectors[CYINT_IRQ_BASE + CY_NUM_INTERRUPTS];
ARM GAS  C:\Users\Sam\AppData\Local\Temp\ccn73sbf.s 			page 2


  33:.\Generated_Source\PSoC4/SpeedInterrupt.c **** 
  34:.\Generated_Source\PSoC4/SpeedInterrupt.c **** /* Declared in startup, used to set unused interrupts to. */
  35:.\Generated_Source\PSoC4/SpeedInterrupt.c **** CY_ISR_PROTO(IntDefaultHandler);
  36:.\Generated_Source\PSoC4/SpeedInterrupt.c **** 
  37:.\Generated_Source\PSoC4/SpeedInterrupt.c **** 
  38:.\Generated_Source\PSoC4/SpeedInterrupt.c **** /*******************************************************************************
  39:.\Generated_Source\PSoC4/SpeedInterrupt.c **** * Function Name: SpeedInterrupt_Start
  40:.\Generated_Source\PSoC4/SpeedInterrupt.c **** ********************************************************************************
  41:.\Generated_Source\PSoC4/SpeedInterrupt.c **** *
  42:.\Generated_Source\PSoC4/SpeedInterrupt.c **** * Summary:
  43:.\Generated_Source\PSoC4/SpeedInterrupt.c **** *  Set up the interrupt and enable it.
  44:.\Generated_Source\PSoC4/SpeedInterrupt.c **** *
  45:.\Generated_Source\PSoC4/SpeedInterrupt.c **** * Parameters:  
  46:.\Generated_Source\PSoC4/SpeedInterrupt.c **** *   None
  47:.\Generated_Source\PSoC4/SpeedInterrupt.c **** *
  48:.\Generated_Source\PSoC4/SpeedInterrupt.c **** * Return:
  49:.\Generated_Source\PSoC4/SpeedInterrupt.c **** *   None
  50:.\Generated_Source\PSoC4/SpeedInterrupt.c **** *
  51:.\Generated_Source\PSoC4/SpeedInterrupt.c **** *******************************************************************************/
  52:.\Generated_Source\PSoC4/SpeedInterrupt.c **** void SpeedInterrupt_Start(void)
  53:.\Generated_Source\PSoC4/SpeedInterrupt.c **** {
  26              		.loc 1 53 0
  27              		.cfi_startproc
  28 0000 80B5     		push	{r7, lr}
  29              		.cfi_def_cfa_offset 8
  30              		.cfi_offset 7, -8
  31              		.cfi_offset 14, -4
  32 0002 00AF     		add	r7, sp, #0
  33              		.cfi_def_cfa_register 7
  54:.\Generated_Source\PSoC4/SpeedInterrupt.c ****     /* For all we know the interrupt is active. */
  55:.\Generated_Source\PSoC4/SpeedInterrupt.c ****     SpeedInterrupt_Disable();
  34              		.loc 1 55 0
  35 0004 FFF7FEFF 		bl	SpeedInterrupt_Disable
  56:.\Generated_Source\PSoC4/SpeedInterrupt.c **** 
  57:.\Generated_Source\PSoC4/SpeedInterrupt.c ****     /* Set the ISR to point to the SpeedInterrupt Interrupt. */
  58:.\Generated_Source\PSoC4/SpeedInterrupt.c ****     SpeedInterrupt_SetVector(&SpeedInterrupt_Interrupt);
  36              		.loc 1 58 0
  37 0008 054B     		ldr	r3, .L2
  38 000a 181C     		mov	r0, r3
  39 000c FFF7FEFF 		bl	SpeedInterrupt_SetVector
  59:.\Generated_Source\PSoC4/SpeedInterrupt.c **** 
  60:.\Generated_Source\PSoC4/SpeedInterrupt.c ****     /* Set the priority. */
  61:.\Generated_Source\PSoC4/SpeedInterrupt.c ****     SpeedInterrupt_SetPriority((uint8)SpeedInterrupt_INTC_PRIOR_NUMBER);
  40              		.loc 1 61 0
  41 0010 0320     		mov	r0, #3
  42 0012 FFF7FEFF 		bl	SpeedInterrupt_SetPriority
  62:.\Generated_Source\PSoC4/SpeedInterrupt.c **** 
  63:.\Generated_Source\PSoC4/SpeedInterrupt.c ****     /* Enable it. */
  64:.\Generated_Source\PSoC4/SpeedInterrupt.c ****     SpeedInterrupt_Enable();
  43              		.loc 1 64 0
  44 0016 FFF7FEFF 		bl	SpeedInterrupt_Enable
  65:.\Generated_Source\PSoC4/SpeedInterrupt.c **** }
  45              		.loc 1 65 0
  46 001a BD46     		mov	sp, r7
  47              		@ sp needed
  48 001c 80BD     		pop	{r7, pc}
  49              	.L3:
ARM GAS  C:\Users\Sam\AppData\Local\Temp\ccn73sbf.s 			page 3


  50 001e C046     		.align	2
  51              	.L2:
  52 0020 00000000 		.word	SpeedInterrupt_Interrupt
  53              		.cfi_endproc
  54              	.LFE0:
  55              		.size	SpeedInterrupt_Start, .-SpeedInterrupt_Start
  56              		.section	.text.SpeedInterrupt_StartEx,"ax",%progbits
  57              		.align	2
  58              		.global	SpeedInterrupt_StartEx
  59              		.code	16
  60              		.thumb_func
  61              		.type	SpeedInterrupt_StartEx, %function
  62              	SpeedInterrupt_StartEx:
  63              	.LFB1:
  66:.\Generated_Source\PSoC4/SpeedInterrupt.c **** 
  67:.\Generated_Source\PSoC4/SpeedInterrupt.c **** 
  68:.\Generated_Source\PSoC4/SpeedInterrupt.c **** /*******************************************************************************
  69:.\Generated_Source\PSoC4/SpeedInterrupt.c **** * Function Name: SpeedInterrupt_StartEx
  70:.\Generated_Source\PSoC4/SpeedInterrupt.c **** ********************************************************************************
  71:.\Generated_Source\PSoC4/SpeedInterrupt.c **** *
  72:.\Generated_Source\PSoC4/SpeedInterrupt.c **** * Summary:
  73:.\Generated_Source\PSoC4/SpeedInterrupt.c **** *  Set up the interrupt and enable it.
  74:.\Generated_Source\PSoC4/SpeedInterrupt.c **** *
  75:.\Generated_Source\PSoC4/SpeedInterrupt.c **** * Parameters:  
  76:.\Generated_Source\PSoC4/SpeedInterrupt.c **** *   address: Address of the ISR to set in the interrupt vector table.
  77:.\Generated_Source\PSoC4/SpeedInterrupt.c **** *
  78:.\Generated_Source\PSoC4/SpeedInterrupt.c **** * Return:
  79:.\Generated_Source\PSoC4/SpeedInterrupt.c **** *   None
  80:.\Generated_Source\PSoC4/SpeedInterrupt.c **** *
  81:.\Generated_Source\PSoC4/SpeedInterrupt.c **** *******************************************************************************/
  82:.\Generated_Source\PSoC4/SpeedInterrupt.c **** void SpeedInterrupt_StartEx(cyisraddress address)
  83:.\Generated_Source\PSoC4/SpeedInterrupt.c **** {
  64              		.loc 1 83 0
  65              		.cfi_startproc
  66 0000 80B5     		push	{r7, lr}
  67              		.cfi_def_cfa_offset 8
  68              		.cfi_offset 7, -8
  69              		.cfi_offset 14, -4
  70 0002 82B0     		sub	sp, sp, #8
  71              		.cfi_def_cfa_offset 16
  72 0004 00AF     		add	r7, sp, #0
  73              		.cfi_def_cfa_register 7
  74 0006 7860     		str	r0, [r7, #4]
  84:.\Generated_Source\PSoC4/SpeedInterrupt.c ****     /* For all we know the interrupt is active. */
  85:.\Generated_Source\PSoC4/SpeedInterrupt.c ****     SpeedInterrupt_Disable();
  75              		.loc 1 85 0
  76 0008 FFF7FEFF 		bl	SpeedInterrupt_Disable
  86:.\Generated_Source\PSoC4/SpeedInterrupt.c **** 
  87:.\Generated_Source\PSoC4/SpeedInterrupt.c ****     /* Set the ISR to point to the SpeedInterrupt Interrupt. */
  88:.\Generated_Source\PSoC4/SpeedInterrupt.c ****     SpeedInterrupt_SetVector(address);
  77              		.loc 1 88 0
  78 000c 7B68     		ldr	r3, [r7, #4]
  79 000e 181C     		mov	r0, r3
  80 0010 FFF7FEFF 		bl	SpeedInterrupt_SetVector
  89:.\Generated_Source\PSoC4/SpeedInterrupt.c **** 
  90:.\Generated_Source\PSoC4/SpeedInterrupt.c ****     /* Set the priority. */
  91:.\Generated_Source\PSoC4/SpeedInterrupt.c ****     SpeedInterrupt_SetPriority((uint8)SpeedInterrupt_INTC_PRIOR_NUMBER);
ARM GAS  C:\Users\Sam\AppData\Local\Temp\ccn73sbf.s 			page 4


  81              		.loc 1 91 0
  82 0014 0320     		mov	r0, #3
  83 0016 FFF7FEFF 		bl	SpeedInterrupt_SetPriority
  92:.\Generated_Source\PSoC4/SpeedInterrupt.c **** 
  93:.\Generated_Source\PSoC4/SpeedInterrupt.c ****     /* Enable it. */
  94:.\Generated_Source\PSoC4/SpeedInterrupt.c ****     SpeedInterrupt_Enable();
  84              		.loc 1 94 0
  85 001a FFF7FEFF 		bl	SpeedInterrupt_Enable
  95:.\Generated_Source\PSoC4/SpeedInterrupt.c **** }
  86              		.loc 1 95 0
  87 001e BD46     		mov	sp, r7
  88 0020 02B0     		add	sp, sp, #8
  89              		@ sp needed
  90 0022 80BD     		pop	{r7, pc}
  91              		.cfi_endproc
  92              	.LFE1:
  93              		.size	SpeedInterrupt_StartEx, .-SpeedInterrupt_StartEx
  94              		.section	.text.SpeedInterrupt_Stop,"ax",%progbits
  95              		.align	2
  96              		.global	SpeedInterrupt_Stop
  97              		.code	16
  98              		.thumb_func
  99              		.type	SpeedInterrupt_Stop, %function
 100              	SpeedInterrupt_Stop:
 101              	.LFB2:
  96:.\Generated_Source\PSoC4/SpeedInterrupt.c **** 
  97:.\Generated_Source\PSoC4/SpeedInterrupt.c **** 
  98:.\Generated_Source\PSoC4/SpeedInterrupt.c **** /*******************************************************************************
  99:.\Generated_Source\PSoC4/SpeedInterrupt.c **** * Function Name: SpeedInterrupt_Stop
 100:.\Generated_Source\PSoC4/SpeedInterrupt.c **** ********************************************************************************
 101:.\Generated_Source\PSoC4/SpeedInterrupt.c **** *
 102:.\Generated_Source\PSoC4/SpeedInterrupt.c **** * Summary:
 103:.\Generated_Source\PSoC4/SpeedInterrupt.c **** *   Disables and removes the interrupt.
 104:.\Generated_Source\PSoC4/SpeedInterrupt.c **** *
 105:.\Generated_Source\PSoC4/SpeedInterrupt.c **** * Parameters:  
 106:.\Generated_Source\PSoC4/SpeedInterrupt.c **** *
 107:.\Generated_Source\PSoC4/SpeedInterrupt.c **** * Return:
 108:.\Generated_Source\PSoC4/SpeedInterrupt.c **** *   None
 109:.\Generated_Source\PSoC4/SpeedInterrupt.c **** *
 110:.\Generated_Source\PSoC4/SpeedInterrupt.c **** *******************************************************************************/
 111:.\Generated_Source\PSoC4/SpeedInterrupt.c **** void SpeedInterrupt_Stop(void)
 112:.\Generated_Source\PSoC4/SpeedInterrupt.c **** {
 102              		.loc 1 112 0
 103              		.cfi_startproc
 104 0000 80B5     		push	{r7, lr}
 105              		.cfi_def_cfa_offset 8
 106              		.cfi_offset 7, -8
 107              		.cfi_offset 14, -4
 108 0002 00AF     		add	r7, sp, #0
 109              		.cfi_def_cfa_register 7
 113:.\Generated_Source\PSoC4/SpeedInterrupt.c ****     /* Disable this interrupt. */
 114:.\Generated_Source\PSoC4/SpeedInterrupt.c ****     SpeedInterrupt_Disable();
 110              		.loc 1 114 0
 111 0004 FFF7FEFF 		bl	SpeedInterrupt_Disable
 115:.\Generated_Source\PSoC4/SpeedInterrupt.c **** 
 116:.\Generated_Source\PSoC4/SpeedInterrupt.c ****     /* Set the ISR to point to the passive one. */
 117:.\Generated_Source\PSoC4/SpeedInterrupt.c ****     SpeedInterrupt_SetVector(&IntDefaultHandler);
ARM GAS  C:\Users\Sam\AppData\Local\Temp\ccn73sbf.s 			page 5


 112              		.loc 1 117 0
 113 0008 024B     		ldr	r3, .L6
 114 000a 181C     		mov	r0, r3
 115 000c FFF7FEFF 		bl	SpeedInterrupt_SetVector
 118:.\Generated_Source\PSoC4/SpeedInterrupt.c **** }
 116              		.loc 1 118 0
 117 0010 BD46     		mov	sp, r7
 118              		@ sp needed
 119 0012 80BD     		pop	{r7, pc}
 120              	.L7:
 121              		.align	2
 122              	.L6:
 123 0014 00000000 		.word	IntDefaultHandler
 124              		.cfi_endproc
 125              	.LFE2:
 126              		.size	SpeedInterrupt_Stop, .-SpeedInterrupt_Stop
 127              		.section	.text.SpeedInterrupt_Interrupt,"ax",%progbits
 128              		.align	2
 129              		.global	SpeedInterrupt_Interrupt
 130              		.code	16
 131              		.thumb_func
 132              		.type	SpeedInterrupt_Interrupt, %function
 133              	SpeedInterrupt_Interrupt:
 134              	.LFB3:
 119:.\Generated_Source\PSoC4/SpeedInterrupt.c **** 
 120:.\Generated_Source\PSoC4/SpeedInterrupt.c **** 
 121:.\Generated_Source\PSoC4/SpeedInterrupt.c **** /*******************************************************************************
 122:.\Generated_Source\PSoC4/SpeedInterrupt.c **** * Function Name: SpeedInterrupt_Interrupt
 123:.\Generated_Source\PSoC4/SpeedInterrupt.c **** ********************************************************************************
 124:.\Generated_Source\PSoC4/SpeedInterrupt.c **** *
 125:.\Generated_Source\PSoC4/SpeedInterrupt.c **** * Summary:
 126:.\Generated_Source\PSoC4/SpeedInterrupt.c **** *   The default Interrupt Service Routine for SpeedInterrupt.
 127:.\Generated_Source\PSoC4/SpeedInterrupt.c **** *
 128:.\Generated_Source\PSoC4/SpeedInterrupt.c **** *   Add custom code between the coments to keep the next version of this file
 129:.\Generated_Source\PSoC4/SpeedInterrupt.c **** *   from over writting your code.
 130:.\Generated_Source\PSoC4/SpeedInterrupt.c **** *
 131:.\Generated_Source\PSoC4/SpeedInterrupt.c **** * Parameters:  
 132:.\Generated_Source\PSoC4/SpeedInterrupt.c **** *   None
 133:.\Generated_Source\PSoC4/SpeedInterrupt.c **** *
 134:.\Generated_Source\PSoC4/SpeedInterrupt.c **** * Return:
 135:.\Generated_Source\PSoC4/SpeedInterrupt.c **** *   None
 136:.\Generated_Source\PSoC4/SpeedInterrupt.c **** *
 137:.\Generated_Source\PSoC4/SpeedInterrupt.c **** *******************************************************************************/
 138:.\Generated_Source\PSoC4/SpeedInterrupt.c **** CY_ISR(SpeedInterrupt_Interrupt)
 139:.\Generated_Source\PSoC4/SpeedInterrupt.c **** {
 135              		.loc 1 139 0
 136              		.cfi_startproc
 137 0000 80B5     		push	{r7, lr}
 138              		.cfi_def_cfa_offset 8
 139              		.cfi_offset 7, -8
 140              		.cfi_offset 14, -4
 141 0002 00AF     		add	r7, sp, #0
 142              		.cfi_def_cfa_register 7
 140:.\Generated_Source\PSoC4/SpeedInterrupt.c ****     /*  Place your Interrupt code here. */
 141:.\Generated_Source\PSoC4/SpeedInterrupt.c ****     /* `#START SpeedInterrupt_Interrupt` */
 142:.\Generated_Source\PSoC4/SpeedInterrupt.c **** 
 143:.\Generated_Source\PSoC4/SpeedInterrupt.c ****     /* `#END` */
ARM GAS  C:\Users\Sam\AppData\Local\Temp\ccn73sbf.s 			page 6


 144:.\Generated_Source\PSoC4/SpeedInterrupt.c **** }
 143              		.loc 1 144 0
 144 0004 BD46     		mov	sp, r7
 145              		@ sp needed
 146 0006 80BD     		pop	{r7, pc}
 147              		.cfi_endproc
 148              	.LFE3:
 149              		.size	SpeedInterrupt_Interrupt, .-SpeedInterrupt_Interrupt
 150              		.section	.text.SpeedInterrupt_SetVector,"ax",%progbits
 151              		.align	2
 152              		.global	SpeedInterrupt_SetVector
 153              		.code	16
 154              		.thumb_func
 155              		.type	SpeedInterrupt_SetVector, %function
 156              	SpeedInterrupt_SetVector:
 157              	.LFB4:
 145:.\Generated_Source\PSoC4/SpeedInterrupt.c **** 
 146:.\Generated_Source\PSoC4/SpeedInterrupt.c **** 
 147:.\Generated_Source\PSoC4/SpeedInterrupt.c **** /*******************************************************************************
 148:.\Generated_Source\PSoC4/SpeedInterrupt.c **** * Function Name: SpeedInterrupt_SetVector
 149:.\Generated_Source\PSoC4/SpeedInterrupt.c **** ********************************************************************************
 150:.\Generated_Source\PSoC4/SpeedInterrupt.c **** *
 151:.\Generated_Source\PSoC4/SpeedInterrupt.c **** * Summary:
 152:.\Generated_Source\PSoC4/SpeedInterrupt.c **** *   Change the ISR vector for the Interrupt. Note calling SpeedInterrupt_Start
 153:.\Generated_Source\PSoC4/SpeedInterrupt.c **** *   will override any effect this method would have had. To set the vector 
 154:.\Generated_Source\PSoC4/SpeedInterrupt.c **** *   before the component has been started use SpeedInterrupt_StartEx instead.
 155:.\Generated_Source\PSoC4/SpeedInterrupt.c **** *
 156:.\Generated_Source\PSoC4/SpeedInterrupt.c **** * Parameters:
 157:.\Generated_Source\PSoC4/SpeedInterrupt.c **** *   address: Address of the ISR to set in the interrupt vector table.
 158:.\Generated_Source\PSoC4/SpeedInterrupt.c **** *
 159:.\Generated_Source\PSoC4/SpeedInterrupt.c **** * Return:
 160:.\Generated_Source\PSoC4/SpeedInterrupt.c **** *   None
 161:.\Generated_Source\PSoC4/SpeedInterrupt.c **** *
 162:.\Generated_Source\PSoC4/SpeedInterrupt.c **** *******************************************************************************/
 163:.\Generated_Source\PSoC4/SpeedInterrupt.c **** void SpeedInterrupt_SetVector(cyisraddress address)
 164:.\Generated_Source\PSoC4/SpeedInterrupt.c **** {
 158              		.loc 1 164 0
 159              		.cfi_startproc
 160 0000 80B5     		push	{r7, lr}
 161              		.cfi_def_cfa_offset 8
 162              		.cfi_offset 7, -8
 163              		.cfi_offset 14, -4
 164 0002 82B0     		sub	sp, sp, #8
 165              		.cfi_def_cfa_offset 16
 166 0004 00AF     		add	r7, sp, #0
 167              		.cfi_def_cfa_register 7
 168 0006 7860     		str	r0, [r7, #4]
 165:.\Generated_Source\PSoC4/SpeedInterrupt.c ****     CyRamVectors[CYINT_IRQ_BASE + SpeedInterrupt__INTC_NUMBER] = address;
 169              		.loc 1 165 0
 170 0008 024B     		ldr	r3, .L10
 171 000a 7A68     		ldr	r2, [r7, #4]
 172 000c 1A64     		str	r2, [r3, #64]
 166:.\Generated_Source\PSoC4/SpeedInterrupt.c **** }
 173              		.loc 1 166 0
 174 000e BD46     		mov	sp, r7
 175 0010 02B0     		add	sp, sp, #8
 176              		@ sp needed
ARM GAS  C:\Users\Sam\AppData\Local\Temp\ccn73sbf.s 			page 7


 177 0012 80BD     		pop	{r7, pc}
 178              	.L11:
 179              		.align	2
 180              	.L10:
 181 0014 00000000 		.word	CyRamVectors
 182              		.cfi_endproc
 183              	.LFE4:
 184              		.size	SpeedInterrupt_SetVector, .-SpeedInterrupt_SetVector
 185              		.section	.text.SpeedInterrupt_GetVector,"ax",%progbits
 186              		.align	2
 187              		.global	SpeedInterrupt_GetVector
 188              		.code	16
 189              		.thumb_func
 190              		.type	SpeedInterrupt_GetVector, %function
 191              	SpeedInterrupt_GetVector:
 192              	.LFB5:
 167:.\Generated_Source\PSoC4/SpeedInterrupt.c **** 
 168:.\Generated_Source\PSoC4/SpeedInterrupt.c **** 
 169:.\Generated_Source\PSoC4/SpeedInterrupt.c **** /*******************************************************************************
 170:.\Generated_Source\PSoC4/SpeedInterrupt.c **** * Function Name: SpeedInterrupt_GetVector
 171:.\Generated_Source\PSoC4/SpeedInterrupt.c **** ********************************************************************************
 172:.\Generated_Source\PSoC4/SpeedInterrupt.c **** *
 173:.\Generated_Source\PSoC4/SpeedInterrupt.c **** * Summary:
 174:.\Generated_Source\PSoC4/SpeedInterrupt.c **** *   Gets the "address" of the current ISR vector for the Interrupt.
 175:.\Generated_Source\PSoC4/SpeedInterrupt.c **** *
 176:.\Generated_Source\PSoC4/SpeedInterrupt.c **** * Parameters:
 177:.\Generated_Source\PSoC4/SpeedInterrupt.c **** *   None
 178:.\Generated_Source\PSoC4/SpeedInterrupt.c **** *
 179:.\Generated_Source\PSoC4/SpeedInterrupt.c **** * Return:
 180:.\Generated_Source\PSoC4/SpeedInterrupt.c **** *   Address of the ISR in the interrupt vector table.
 181:.\Generated_Source\PSoC4/SpeedInterrupt.c **** *
 182:.\Generated_Source\PSoC4/SpeedInterrupt.c **** *******************************************************************************/
 183:.\Generated_Source\PSoC4/SpeedInterrupt.c **** cyisraddress SpeedInterrupt_GetVector(void)
 184:.\Generated_Source\PSoC4/SpeedInterrupt.c **** {
 193              		.loc 1 184 0
 194              		.cfi_startproc
 195 0000 80B5     		push	{r7, lr}
 196              		.cfi_def_cfa_offset 8
 197              		.cfi_offset 7, -8
 198              		.cfi_offset 14, -4
 199 0002 00AF     		add	r7, sp, #0
 200              		.cfi_def_cfa_register 7
 185:.\Generated_Source\PSoC4/SpeedInterrupt.c ****     return CyRamVectors[CYINT_IRQ_BASE + SpeedInterrupt__INTC_NUMBER];
 201              		.loc 1 185 0
 202 0004 024B     		ldr	r3, .L14
 203 0006 1B6C     		ldr	r3, [r3, #64]
 186:.\Generated_Source\PSoC4/SpeedInterrupt.c **** }
 204              		.loc 1 186 0
 205 0008 181C     		mov	r0, r3
 206 000a BD46     		mov	sp, r7
 207              		@ sp needed
 208 000c 80BD     		pop	{r7, pc}
 209              	.L15:
 210 000e C046     		.align	2
 211              	.L14:
 212 0010 00000000 		.word	CyRamVectors
 213              		.cfi_endproc
ARM GAS  C:\Users\Sam\AppData\Local\Temp\ccn73sbf.s 			page 8


 214              	.LFE5:
 215              		.size	SpeedInterrupt_GetVector, .-SpeedInterrupt_GetVector
 216              		.section	.text.SpeedInterrupt_SetPriority,"ax",%progbits
 217              		.align	2
 218              		.global	SpeedInterrupt_SetPriority
 219              		.code	16
 220              		.thumb_func
 221              		.type	SpeedInterrupt_SetPriority, %function
 222              	SpeedInterrupt_SetPriority:
 223              	.LFB6:
 187:.\Generated_Source\PSoC4/SpeedInterrupt.c **** 
 188:.\Generated_Source\PSoC4/SpeedInterrupt.c **** 
 189:.\Generated_Source\PSoC4/SpeedInterrupt.c **** /*******************************************************************************
 190:.\Generated_Source\PSoC4/SpeedInterrupt.c **** * Function Name: SpeedInterrupt_SetPriority
 191:.\Generated_Source\PSoC4/SpeedInterrupt.c **** ********************************************************************************
 192:.\Generated_Source\PSoC4/SpeedInterrupt.c **** *
 193:.\Generated_Source\PSoC4/SpeedInterrupt.c **** * Summary:
 194:.\Generated_Source\PSoC4/SpeedInterrupt.c **** *   Sets the Priority of the Interrupt. Note calling SpeedInterrupt_Start
 195:.\Generated_Source\PSoC4/SpeedInterrupt.c **** *   or SpeedInterrupt_StartEx will override any effect this method would 
 196:.\Generated_Source\PSoC4/SpeedInterrupt.c **** *   have had. This method should only be called after SpeedInterrupt_Start or 
 197:.\Generated_Source\PSoC4/SpeedInterrupt.c **** *   SpeedInterrupt_StartEx has been called. To set the initial
 198:.\Generated_Source\PSoC4/SpeedInterrupt.c **** *   priority for the component use the cydwr file in the tool.
 199:.\Generated_Source\PSoC4/SpeedInterrupt.c **** *
 200:.\Generated_Source\PSoC4/SpeedInterrupt.c **** * Parameters:
 201:.\Generated_Source\PSoC4/SpeedInterrupt.c **** *   priority: Priority of the interrupt. 0 - 3, 0 being the highest.
 202:.\Generated_Source\PSoC4/SpeedInterrupt.c **** *
 203:.\Generated_Source\PSoC4/SpeedInterrupt.c **** * Return:
 204:.\Generated_Source\PSoC4/SpeedInterrupt.c **** *   None
 205:.\Generated_Source\PSoC4/SpeedInterrupt.c **** *
 206:.\Generated_Source\PSoC4/SpeedInterrupt.c **** *******************************************************************************/
 207:.\Generated_Source\PSoC4/SpeedInterrupt.c **** void SpeedInterrupt_SetPriority(uint8 priority)
 208:.\Generated_Source\PSoC4/SpeedInterrupt.c **** {
 224              		.loc 1 208 0
 225              		.cfi_startproc
 226 0000 90B5     		push	{r4, r7, lr}
 227              		.cfi_def_cfa_offset 12
 228              		.cfi_offset 4, -12
 229              		.cfi_offset 7, -8
 230              		.cfi_offset 14, -4
 231 0002 85B0     		sub	sp, sp, #20
 232              		.cfi_def_cfa_offset 32
 233 0004 00AF     		add	r7, sp, #0
 234              		.cfi_def_cfa_register 7
 235 0006 021C     		mov	r2, r0
 236 0008 FB1D     		add	r3, r7, #7
 237 000a 1A70     		strb	r2, [r3]
 209:.\Generated_Source\PSoC4/SpeedInterrupt.c **** 	uint8 interruptState;
 210:.\Generated_Source\PSoC4/SpeedInterrupt.c ****     uint32 priorityOffset = ((SpeedInterrupt__INTC_NUMBER % 4u) * 8u) + 6u;
 238              		.loc 1 210 0
 239 000c 0623     		mov	r3, #6
 240 000e FB60     		str	r3, [r7, #12]
 211:.\Generated_Source\PSoC4/SpeedInterrupt.c ****     
 212:.\Generated_Source\PSoC4/SpeedInterrupt.c **** 	interruptState = CyEnterCriticalSection();
 241              		.loc 1 212 0
 242 0010 3C1C     		mov	r4, r7
 243 0012 0B34     		add	r4, r4, #11
 244 0014 FFF7FEFF 		bl	CyEnterCriticalSection
ARM GAS  C:\Users\Sam\AppData\Local\Temp\ccn73sbf.s 			page 9


 245 0018 031C     		mov	r3, r0
 246 001a 2370     		strb	r3, [r4]
 213:.\Generated_Source\PSoC4/SpeedInterrupt.c ****     *SpeedInterrupt_INTC_PRIOR = (*SpeedInterrupt_INTC_PRIOR & (uint32)(~SpeedInterrupt__INTC_PRIOR
 247              		.loc 1 213 0
 248 001c 0B4B     		ldr	r3, .L17
 249 001e 0B4A     		ldr	r2, .L17
 250 0020 1268     		ldr	r2, [r2]
 251 0022 C021     		mov	r1, #192
 252 0024 101C     		mov	r0, r2
 253 0026 8843     		bic	r0, r1
 254 0028 011C     		mov	r1, r0
 214:.\Generated_Source\PSoC4/SpeedInterrupt.c ****                                     ((uint32)priority << priorityOffset);
 255              		.loc 1 214 0
 256 002a FA1D     		add	r2, r7, #7
 257 002c 1078     		ldrb	r0, [r2]
 258 002e FA68     		ldr	r2, [r7, #12]
 259 0030 041C     		mov	r4, r0
 260 0032 9440     		lsl	r4, r4, r2
 261 0034 221C     		mov	r2, r4
 213:.\Generated_Source\PSoC4/SpeedInterrupt.c ****     *SpeedInterrupt_INTC_PRIOR = (*SpeedInterrupt_INTC_PRIOR & (uint32)(~SpeedInterrupt__INTC_PRIOR
 262              		.loc 1 213 0
 263 0036 0A43     		orr	r2, r1
 264 0038 1A60     		str	r2, [r3]
 215:.\Generated_Source\PSoC4/SpeedInterrupt.c **** 	CyExitCriticalSection(interruptState);
 265              		.loc 1 215 0
 266 003a 3B1C     		mov	r3, r7
 267 003c 0B33     		add	r3, r3, #11
 268 003e 1B78     		ldrb	r3, [r3]
 269 0040 181C     		mov	r0, r3
 270 0042 FFF7FEFF 		bl	CyExitCriticalSection
 216:.\Generated_Source\PSoC4/SpeedInterrupt.c **** }
 271              		.loc 1 216 0
 272 0046 BD46     		mov	sp, r7
 273 0048 05B0     		add	sp, sp, #20
 274              		@ sp needed
 275 004a 90BD     		pop	{r4, r7, pc}
 276              	.L18:
 277              		.align	2
 278              	.L17:
 279 004c 00E400E0 		.word	-536812544
 280              		.cfi_endproc
 281              	.LFE6:
 282              		.size	SpeedInterrupt_SetPriority, .-SpeedInterrupt_SetPriority
 283              		.section	.text.SpeedInterrupt_GetPriority,"ax",%progbits
 284              		.align	2
 285              		.global	SpeedInterrupt_GetPriority
 286              		.code	16
 287              		.thumb_func
 288              		.type	SpeedInterrupt_GetPriority, %function
 289              	SpeedInterrupt_GetPriority:
 290              	.LFB7:
 217:.\Generated_Source\PSoC4/SpeedInterrupt.c **** 
 218:.\Generated_Source\PSoC4/SpeedInterrupt.c **** 
 219:.\Generated_Source\PSoC4/SpeedInterrupt.c **** /*******************************************************************************
 220:.\Generated_Source\PSoC4/SpeedInterrupt.c **** * Function Name: SpeedInterrupt_GetPriority
 221:.\Generated_Source\PSoC4/SpeedInterrupt.c **** ********************************************************************************
 222:.\Generated_Source\PSoC4/SpeedInterrupt.c **** *
ARM GAS  C:\Users\Sam\AppData\Local\Temp\ccn73sbf.s 			page 10


 223:.\Generated_Source\PSoC4/SpeedInterrupt.c **** * Summary:
 224:.\Generated_Source\PSoC4/SpeedInterrupt.c **** *   Gets the Priority of the Interrupt.
 225:.\Generated_Source\PSoC4/SpeedInterrupt.c **** *
 226:.\Generated_Source\PSoC4/SpeedInterrupt.c **** * Parameters:
 227:.\Generated_Source\PSoC4/SpeedInterrupt.c **** *   None
 228:.\Generated_Source\PSoC4/SpeedInterrupt.c **** *
 229:.\Generated_Source\PSoC4/SpeedInterrupt.c **** * Return:
 230:.\Generated_Source\PSoC4/SpeedInterrupt.c **** *   Priority of the interrupt. 0 - 3, 0 being the highest.
 231:.\Generated_Source\PSoC4/SpeedInterrupt.c **** *
 232:.\Generated_Source\PSoC4/SpeedInterrupt.c **** *******************************************************************************/
 233:.\Generated_Source\PSoC4/SpeedInterrupt.c **** uint8 SpeedInterrupt_GetPriority(void)
 234:.\Generated_Source\PSoC4/SpeedInterrupt.c **** {
 291              		.loc 1 234 0
 292              		.cfi_startproc
 293 0000 80B5     		push	{r7, lr}
 294              		.cfi_def_cfa_offset 8
 295              		.cfi_offset 7, -8
 296              		.cfi_offset 14, -4
 297 0002 82B0     		sub	sp, sp, #8
 298              		.cfi_def_cfa_offset 16
 299 0004 00AF     		add	r7, sp, #0
 300              		.cfi_def_cfa_register 7
 235:.\Generated_Source\PSoC4/SpeedInterrupt.c ****     uint32 priority;
 236:.\Generated_Source\PSoC4/SpeedInterrupt.c **** 	uint32 priorityOffset = ((SpeedInterrupt__INTC_NUMBER % 4u) * 8u) + 6u;
 301              		.loc 1 236 0
 302 0006 0623     		mov	r3, #6
 303 0008 7B60     		str	r3, [r7, #4]
 237:.\Generated_Source\PSoC4/SpeedInterrupt.c **** 
 238:.\Generated_Source\PSoC4/SpeedInterrupt.c ****     priority = (*SpeedInterrupt_INTC_PRIOR & SpeedInterrupt__INTC_PRIOR_MASK) >> priorityOffset;
 304              		.loc 1 238 0
 305 000a 074B     		ldr	r3, .L21
 306 000c 1A68     		ldr	r2, [r3]
 307 000e C023     		mov	r3, #192
 308 0010 1A40     		and	r2, r3
 309 0012 7B68     		ldr	r3, [r7, #4]
 310 0014 111C     		mov	r1, r2
 311 0016 D940     		lsr	r1, r1, r3
 312 0018 0B1C     		mov	r3, r1
 313 001a 3B60     		str	r3, [r7]
 239:.\Generated_Source\PSoC4/SpeedInterrupt.c **** 
 240:.\Generated_Source\PSoC4/SpeedInterrupt.c ****     return (uint8)priority;
 314              		.loc 1 240 0
 315 001c 3B68     		ldr	r3, [r7]
 316 001e DBB2     		uxtb	r3, r3
 241:.\Generated_Source\PSoC4/SpeedInterrupt.c **** }
 317              		.loc 1 241 0
 318 0020 181C     		mov	r0, r3
 319 0022 BD46     		mov	sp, r7
 320 0024 02B0     		add	sp, sp, #8
 321              		@ sp needed
 322 0026 80BD     		pop	{r7, pc}
 323              	.L22:
 324              		.align	2
 325              	.L21:
 326 0028 00E400E0 		.word	-536812544
 327              		.cfi_endproc
 328              	.LFE7:
ARM GAS  C:\Users\Sam\AppData\Local\Temp\ccn73sbf.s 			page 11


 329              		.size	SpeedInterrupt_GetPriority, .-SpeedInterrupt_GetPriority
 330              		.section	.text.SpeedInterrupt_Enable,"ax",%progbits
 331              		.align	2
 332              		.global	SpeedInterrupt_Enable
 333              		.code	16
 334              		.thumb_func
 335              		.type	SpeedInterrupt_Enable, %function
 336              	SpeedInterrupt_Enable:
 337              	.LFB8:
 242:.\Generated_Source\PSoC4/SpeedInterrupt.c **** 
 243:.\Generated_Source\PSoC4/SpeedInterrupt.c **** 
 244:.\Generated_Source\PSoC4/SpeedInterrupt.c **** /*******************************************************************************
 245:.\Generated_Source\PSoC4/SpeedInterrupt.c **** * Function Name: SpeedInterrupt_Enable
 246:.\Generated_Source\PSoC4/SpeedInterrupt.c **** ********************************************************************************
 247:.\Generated_Source\PSoC4/SpeedInterrupt.c **** *
 248:.\Generated_Source\PSoC4/SpeedInterrupt.c **** * Summary:
 249:.\Generated_Source\PSoC4/SpeedInterrupt.c **** *   Enables the interrupt.
 250:.\Generated_Source\PSoC4/SpeedInterrupt.c **** *
 251:.\Generated_Source\PSoC4/SpeedInterrupt.c **** * Parameters:
 252:.\Generated_Source\PSoC4/SpeedInterrupt.c **** *   None
 253:.\Generated_Source\PSoC4/SpeedInterrupt.c **** *
 254:.\Generated_Source\PSoC4/SpeedInterrupt.c **** * Return:
 255:.\Generated_Source\PSoC4/SpeedInterrupt.c **** *   None
 256:.\Generated_Source\PSoC4/SpeedInterrupt.c **** *
 257:.\Generated_Source\PSoC4/SpeedInterrupt.c **** *******************************************************************************/
 258:.\Generated_Source\PSoC4/SpeedInterrupt.c **** void SpeedInterrupt_Enable(void)
 259:.\Generated_Source\PSoC4/SpeedInterrupt.c **** {
 338              		.loc 1 259 0
 339              		.cfi_startproc
 340 0000 80B5     		push	{r7, lr}
 341              		.cfi_def_cfa_offset 8
 342              		.cfi_offset 7, -8
 343              		.cfi_offset 14, -4
 344 0002 00AF     		add	r7, sp, #0
 345              		.cfi_def_cfa_register 7
 260:.\Generated_Source\PSoC4/SpeedInterrupt.c ****     /* Enable the general interrupt. */
 261:.\Generated_Source\PSoC4/SpeedInterrupt.c ****     *SpeedInterrupt_INTC_SET_EN = SpeedInterrupt__INTC_MASK;
 346              		.loc 1 261 0
 347 0004 024B     		ldr	r3, .L24
 348 0006 0122     		mov	r2, #1
 349 0008 1A60     		str	r2, [r3]
 262:.\Generated_Source\PSoC4/SpeedInterrupt.c **** }
 350              		.loc 1 262 0
 351 000a BD46     		mov	sp, r7
 352              		@ sp needed
 353 000c 80BD     		pop	{r7, pc}
 354              	.L25:
 355 000e C046     		.align	2
 356              	.L24:
 357 0010 00E100E0 		.word	-536813312
 358              		.cfi_endproc
 359              	.LFE8:
 360              		.size	SpeedInterrupt_Enable, .-SpeedInterrupt_Enable
 361              		.section	.text.SpeedInterrupt_GetState,"ax",%progbits
 362              		.align	2
 363              		.global	SpeedInterrupt_GetState
 364              		.code	16
ARM GAS  C:\Users\Sam\AppData\Local\Temp\ccn73sbf.s 			page 12


 365              		.thumb_func
 366              		.type	SpeedInterrupt_GetState, %function
 367              	SpeedInterrupt_GetState:
 368              	.LFB9:
 263:.\Generated_Source\PSoC4/SpeedInterrupt.c **** 
 264:.\Generated_Source\PSoC4/SpeedInterrupt.c **** 
 265:.\Generated_Source\PSoC4/SpeedInterrupt.c **** /*******************************************************************************
 266:.\Generated_Source\PSoC4/SpeedInterrupt.c **** * Function Name: SpeedInterrupt_GetState
 267:.\Generated_Source\PSoC4/SpeedInterrupt.c **** ********************************************************************************
 268:.\Generated_Source\PSoC4/SpeedInterrupt.c **** *
 269:.\Generated_Source\PSoC4/SpeedInterrupt.c **** * Summary:
 270:.\Generated_Source\PSoC4/SpeedInterrupt.c **** *   Gets the state (enabled, disabled) of the Interrupt.
 271:.\Generated_Source\PSoC4/SpeedInterrupt.c **** *
 272:.\Generated_Source\PSoC4/SpeedInterrupt.c **** * Parameters:
 273:.\Generated_Source\PSoC4/SpeedInterrupt.c **** *   None
 274:.\Generated_Source\PSoC4/SpeedInterrupt.c **** *
 275:.\Generated_Source\PSoC4/SpeedInterrupt.c **** * Return:
 276:.\Generated_Source\PSoC4/SpeedInterrupt.c **** *   1 if enabled, 0 if disabled.
 277:.\Generated_Source\PSoC4/SpeedInterrupt.c **** *
 278:.\Generated_Source\PSoC4/SpeedInterrupt.c **** *******************************************************************************/
 279:.\Generated_Source\PSoC4/SpeedInterrupt.c **** uint8 SpeedInterrupt_GetState(void)
 280:.\Generated_Source\PSoC4/SpeedInterrupt.c **** {
 369              		.loc 1 280 0
 370              		.cfi_startproc
 371 0000 80B5     		push	{r7, lr}
 372              		.cfi_def_cfa_offset 8
 373              		.cfi_offset 7, -8
 374              		.cfi_offset 14, -4
 375 0002 00AF     		add	r7, sp, #0
 376              		.cfi_def_cfa_register 7
 281:.\Generated_Source\PSoC4/SpeedInterrupt.c ****     /* Get the state of the general interrupt. */
 282:.\Generated_Source\PSoC4/SpeedInterrupt.c ****     return ((*SpeedInterrupt_INTC_SET_EN & (uint32)SpeedInterrupt__INTC_MASK) != 0u) ? 1u:0u;
 377              		.loc 1 282 0
 378 0004 044B     		ldr	r3, .L28
 379 0006 1B68     		ldr	r3, [r3]
 380 0008 DAB2     		uxtb	r2, r3
 381 000a 0123     		mov	r3, #1
 382 000c 1340     		and	r3, r2
 383 000e DBB2     		uxtb	r3, r3
 283:.\Generated_Source\PSoC4/SpeedInterrupt.c **** }
 384              		.loc 1 283 0
 385 0010 181C     		mov	r0, r3
 386 0012 BD46     		mov	sp, r7
 387              		@ sp needed
 388 0014 80BD     		pop	{r7, pc}
 389              	.L29:
 390 0016 C046     		.align	2
 391              	.L28:
 392 0018 00E100E0 		.word	-536813312
 393              		.cfi_endproc
 394              	.LFE9:
 395              		.size	SpeedInterrupt_GetState, .-SpeedInterrupt_GetState
 396              		.section	.text.SpeedInterrupt_Disable,"ax",%progbits
 397              		.align	2
 398              		.global	SpeedInterrupt_Disable
 399              		.code	16
 400              		.thumb_func
ARM GAS  C:\Users\Sam\AppData\Local\Temp\ccn73sbf.s 			page 13


 401              		.type	SpeedInterrupt_Disable, %function
 402              	SpeedInterrupt_Disable:
 403              	.LFB10:
 284:.\Generated_Source\PSoC4/SpeedInterrupt.c **** 
 285:.\Generated_Source\PSoC4/SpeedInterrupt.c **** 
 286:.\Generated_Source\PSoC4/SpeedInterrupt.c **** /*******************************************************************************
 287:.\Generated_Source\PSoC4/SpeedInterrupt.c **** * Function Name: SpeedInterrupt_Disable
 288:.\Generated_Source\PSoC4/SpeedInterrupt.c **** ********************************************************************************
 289:.\Generated_Source\PSoC4/SpeedInterrupt.c **** *
 290:.\Generated_Source\PSoC4/SpeedInterrupt.c **** * Summary:
 291:.\Generated_Source\PSoC4/SpeedInterrupt.c **** *   Disables the Interrupt.
 292:.\Generated_Source\PSoC4/SpeedInterrupt.c **** *
 293:.\Generated_Source\PSoC4/SpeedInterrupt.c **** * Parameters:
 294:.\Generated_Source\PSoC4/SpeedInterrupt.c **** *   None
 295:.\Generated_Source\PSoC4/SpeedInterrupt.c **** *
 296:.\Generated_Source\PSoC4/SpeedInterrupt.c **** * Return:
 297:.\Generated_Source\PSoC4/SpeedInterrupt.c **** *   None
 298:.\Generated_Source\PSoC4/SpeedInterrupt.c **** *
 299:.\Generated_Source\PSoC4/SpeedInterrupt.c **** *******************************************************************************/
 300:.\Generated_Source\PSoC4/SpeedInterrupt.c **** void SpeedInterrupt_Disable(void)
 301:.\Generated_Source\PSoC4/SpeedInterrupt.c **** {
 404              		.loc 1 301 0
 405              		.cfi_startproc
 406 0000 80B5     		push	{r7, lr}
 407              		.cfi_def_cfa_offset 8
 408              		.cfi_offset 7, -8
 409              		.cfi_offset 14, -4
 410 0002 00AF     		add	r7, sp, #0
 411              		.cfi_def_cfa_register 7
 302:.\Generated_Source\PSoC4/SpeedInterrupt.c ****     /* Disable the general interrupt. */
 303:.\Generated_Source\PSoC4/SpeedInterrupt.c ****     *SpeedInterrupt_INTC_CLR_EN = SpeedInterrupt__INTC_MASK;
 412              		.loc 1 303 0
 413 0004 024B     		ldr	r3, .L31
 414 0006 0122     		mov	r2, #1
 415 0008 1A60     		str	r2, [r3]
 304:.\Generated_Source\PSoC4/SpeedInterrupt.c **** }
 416              		.loc 1 304 0
 417 000a BD46     		mov	sp, r7
 418              		@ sp needed
 419 000c 80BD     		pop	{r7, pc}
 420              	.L32:
 421 000e C046     		.align	2
 422              	.L31:
 423 0010 80E100E0 		.word	-536813184
 424              		.cfi_endproc
 425              	.LFE10:
 426              		.size	SpeedInterrupt_Disable, .-SpeedInterrupt_Disable
 427              		.section	.text.SpeedInterrupt_SetPending,"ax",%progbits
 428              		.align	2
 429              		.global	SpeedInterrupt_SetPending
 430              		.code	16
 431              		.thumb_func
 432              		.type	SpeedInterrupt_SetPending, %function
 433              	SpeedInterrupt_SetPending:
 434              	.LFB11:
 305:.\Generated_Source\PSoC4/SpeedInterrupt.c **** 
 306:.\Generated_Source\PSoC4/SpeedInterrupt.c **** 
ARM GAS  C:\Users\Sam\AppData\Local\Temp\ccn73sbf.s 			page 14


 307:.\Generated_Source\PSoC4/SpeedInterrupt.c **** /*******************************************************************************
 308:.\Generated_Source\PSoC4/SpeedInterrupt.c **** * Function Name: SpeedInterrupt_SetPending
 309:.\Generated_Source\PSoC4/SpeedInterrupt.c **** ********************************************************************************
 310:.\Generated_Source\PSoC4/SpeedInterrupt.c **** *
 311:.\Generated_Source\PSoC4/SpeedInterrupt.c **** * Summary:
 312:.\Generated_Source\PSoC4/SpeedInterrupt.c **** *   Causes the Interrupt to enter the pending state, a software method of
 313:.\Generated_Source\PSoC4/SpeedInterrupt.c **** *   generating the interrupt.
 314:.\Generated_Source\PSoC4/SpeedInterrupt.c **** *
 315:.\Generated_Source\PSoC4/SpeedInterrupt.c **** * Parameters:
 316:.\Generated_Source\PSoC4/SpeedInterrupt.c **** *   None
 317:.\Generated_Source\PSoC4/SpeedInterrupt.c **** *
 318:.\Generated_Source\PSoC4/SpeedInterrupt.c **** * Return:
 319:.\Generated_Source\PSoC4/SpeedInterrupt.c **** *   None
 320:.\Generated_Source\PSoC4/SpeedInterrupt.c **** *
 321:.\Generated_Source\PSoC4/SpeedInterrupt.c **** *******************************************************************************/
 322:.\Generated_Source\PSoC4/SpeedInterrupt.c **** void SpeedInterrupt_SetPending(void)
 323:.\Generated_Source\PSoC4/SpeedInterrupt.c **** {
 435              		.loc 1 323 0
 436              		.cfi_startproc
 437 0000 80B5     		push	{r7, lr}
 438              		.cfi_def_cfa_offset 8
 439              		.cfi_offset 7, -8
 440              		.cfi_offset 14, -4
 441 0002 00AF     		add	r7, sp, #0
 442              		.cfi_def_cfa_register 7
 324:.\Generated_Source\PSoC4/SpeedInterrupt.c ****     *SpeedInterrupt_INTC_SET_PD = SpeedInterrupt__INTC_MASK;
 443              		.loc 1 324 0
 444 0004 024B     		ldr	r3, .L34
 445 0006 0122     		mov	r2, #1
 446 0008 1A60     		str	r2, [r3]
 325:.\Generated_Source\PSoC4/SpeedInterrupt.c **** }
 447              		.loc 1 325 0
 448 000a BD46     		mov	sp, r7
 449              		@ sp needed
 450 000c 80BD     		pop	{r7, pc}
 451              	.L35:
 452 000e C046     		.align	2
 453              	.L34:
 454 0010 00E200E0 		.word	-536813056
 455              		.cfi_endproc
 456              	.LFE11:
 457              		.size	SpeedInterrupt_SetPending, .-SpeedInterrupt_SetPending
 458              		.section	.text.SpeedInterrupt_ClearPending,"ax",%progbits
 459              		.align	2
 460              		.global	SpeedInterrupt_ClearPending
 461              		.code	16
 462              		.thumb_func
 463              		.type	SpeedInterrupt_ClearPending, %function
 464              	SpeedInterrupt_ClearPending:
 465              	.LFB12:
 326:.\Generated_Source\PSoC4/SpeedInterrupt.c **** 
 327:.\Generated_Source\PSoC4/SpeedInterrupt.c **** 
 328:.\Generated_Source\PSoC4/SpeedInterrupt.c **** /*******************************************************************************
 329:.\Generated_Source\PSoC4/SpeedInterrupt.c **** * Function Name: SpeedInterrupt_ClearPending
 330:.\Generated_Source\PSoC4/SpeedInterrupt.c **** ********************************************************************************
 331:.\Generated_Source\PSoC4/SpeedInterrupt.c **** *
 332:.\Generated_Source\PSoC4/SpeedInterrupt.c **** * Summary:
ARM GAS  C:\Users\Sam\AppData\Local\Temp\ccn73sbf.s 			page 15


 333:.\Generated_Source\PSoC4/SpeedInterrupt.c **** *   Clears a pending interrupt.
 334:.\Generated_Source\PSoC4/SpeedInterrupt.c **** *
 335:.\Generated_Source\PSoC4/SpeedInterrupt.c **** * Parameters:
 336:.\Generated_Source\PSoC4/SpeedInterrupt.c **** *   None
 337:.\Generated_Source\PSoC4/SpeedInterrupt.c **** *
 338:.\Generated_Source\PSoC4/SpeedInterrupt.c **** * Return:
 339:.\Generated_Source\PSoC4/SpeedInterrupt.c **** *   None
 340:.\Generated_Source\PSoC4/SpeedInterrupt.c **** *
 341:.\Generated_Source\PSoC4/SpeedInterrupt.c **** *******************************************************************************/
 342:.\Generated_Source\PSoC4/SpeedInterrupt.c **** void SpeedInterrupt_ClearPending(void)
 343:.\Generated_Source\PSoC4/SpeedInterrupt.c **** {
 466              		.loc 1 343 0
 467              		.cfi_startproc
 468 0000 80B5     		push	{r7, lr}
 469              		.cfi_def_cfa_offset 8
 470              		.cfi_offset 7, -8
 471              		.cfi_offset 14, -4
 472 0002 00AF     		add	r7, sp, #0
 473              		.cfi_def_cfa_register 7
 344:.\Generated_Source\PSoC4/SpeedInterrupt.c ****     *SpeedInterrupt_INTC_CLR_PD = SpeedInterrupt__INTC_MASK;
 474              		.loc 1 344 0
 475 0004 024B     		ldr	r3, .L37
 476 0006 0122     		mov	r2, #1
 477 0008 1A60     		str	r2, [r3]
 345:.\Generated_Source\PSoC4/SpeedInterrupt.c **** }
 478              		.loc 1 345 0
 479 000a BD46     		mov	sp, r7
 480              		@ sp needed
 481 000c 80BD     		pop	{r7, pc}
 482              	.L38:
 483 000e C046     		.align	2
 484              	.L37:
 485 0010 80E200E0 		.word	-536812928
 486              		.cfi_endproc
 487              	.LFE12:
 488              		.size	SpeedInterrupt_ClearPending, .-SpeedInterrupt_ClearPending
 489              		.text
 490              	.Letext0:
 491              		.file 2 ".\\Generated_Source\\PSoC4/cytypes.h"