ARM GAS  C:\Users\Sam\AppData\Local\Temp\ccxtwSVX.s 			page 1


   1              		.cpu cortex-m0
   2              		.fpu softvfp
   3              		.eabi_attribute 20, 1
   4              		.eabi_attribute 21, 1
   5              		.eabi_attribute 23, 3
   6              		.eabi_attribute 24, 1
   7              		.eabi_attribute 25, 1
   8              		.eabi_attribute 26, 1
   9              		.eabi_attribute 30, 6
  10              		.eabi_attribute 34, 0
  11              		.eabi_attribute 18, 4
  12              		.code	16
  13              		.file	"EncoderInterrupt.c"
  14              		.text
  15              	.Ltext0:
  16              		.cfi_sections	.debug_frame
  17              		.section	.text.EncoderInterrupt_Start,"ax",%progbits
  18              		.align	2
  19              		.global	EncoderInterrupt_Start
  20              		.code	16
  21              		.thumb_func
  22              		.type	EncoderInterrupt_Start, %function
  23              	EncoderInterrupt_Start:
  24              	.LFB0:
  25              		.file 1 ".\\Generated_Source\\PSoC4\\EncoderInterrupt.c"
   1:.\Generated_Source\PSoC4/EncoderInterrupt.c **** /*******************************************************************************
   2:.\Generated_Source\PSoC4/EncoderInterrupt.c **** * File Name: EncoderInterrupt.c  
   3:.\Generated_Source\PSoC4/EncoderInterrupt.c **** * Version 1.70
   4:.\Generated_Source\PSoC4/EncoderInterrupt.c **** *
   5:.\Generated_Source\PSoC4/EncoderInterrupt.c **** *  Description:
   6:.\Generated_Source\PSoC4/EncoderInterrupt.c **** *   API for controlling the state of an interrupt.
   7:.\Generated_Source\PSoC4/EncoderInterrupt.c **** *
   8:.\Generated_Source\PSoC4/EncoderInterrupt.c **** *
   9:.\Generated_Source\PSoC4/EncoderInterrupt.c **** *  Note:
  10:.\Generated_Source\PSoC4/EncoderInterrupt.c **** *
  11:.\Generated_Source\PSoC4/EncoderInterrupt.c **** ********************************************************************************
  12:.\Generated_Source\PSoC4/EncoderInterrupt.c **** * Copyright 2008-2012, Cypress Semiconductor Corporation.  All rights reserved.
  13:.\Generated_Source\PSoC4/EncoderInterrupt.c **** * You may use this file only in accordance with the license, terms, conditions, 
  14:.\Generated_Source\PSoC4/EncoderInterrupt.c **** * disclaimers, and limitations in the end user license agreement accompanying 
  15:.\Generated_Source\PSoC4/EncoderInterrupt.c **** * the software package with which this file was provided.
  16:.\Generated_Source\PSoC4/EncoderInterrupt.c **** *******************************************************************************/
  17:.\Generated_Source\PSoC4/EncoderInterrupt.c **** 
  18:.\Generated_Source\PSoC4/EncoderInterrupt.c **** 
  19:.\Generated_Source\PSoC4/EncoderInterrupt.c **** #include <cydevice_trm.h>
  20:.\Generated_Source\PSoC4/EncoderInterrupt.c **** #include <CyLib.h>
  21:.\Generated_Source\PSoC4/EncoderInterrupt.c **** #include <EncoderInterrupt.h>
  22:.\Generated_Source\PSoC4/EncoderInterrupt.c **** 
  23:.\Generated_Source\PSoC4/EncoderInterrupt.c **** #if !defined(EncoderInterrupt__REMOVED) /* Check for removal by optimization */
  24:.\Generated_Source\PSoC4/EncoderInterrupt.c **** 
  25:.\Generated_Source\PSoC4/EncoderInterrupt.c **** /*******************************************************************************
  26:.\Generated_Source\PSoC4/EncoderInterrupt.c **** *  Place your includes, defines and code here 
  27:.\Generated_Source\PSoC4/EncoderInterrupt.c **** ********************************************************************************/
  28:.\Generated_Source\PSoC4/EncoderInterrupt.c **** /* `#START EncoderInterrupt_intc` */
  29:.\Generated_Source\PSoC4/EncoderInterrupt.c **** 
  30:.\Generated_Source\PSoC4/EncoderInterrupt.c **** /* `#END` */
  31:.\Generated_Source\PSoC4/EncoderInterrupt.c **** 
  32:.\Generated_Source\PSoC4/EncoderInterrupt.c **** extern cyisraddress CyRamVectors[CYINT_IRQ_BASE + CY_NUM_INTERRUPTS];
ARM GAS  C:\Users\Sam\AppData\Local\Temp\ccxtwSVX.s 			page 2


  33:.\Generated_Source\PSoC4/EncoderInterrupt.c **** 
  34:.\Generated_Source\PSoC4/EncoderInterrupt.c **** /* Declared in startup, used to set unused interrupts to. */
  35:.\Generated_Source\PSoC4/EncoderInterrupt.c **** CY_ISR_PROTO(IntDefaultHandler);
  36:.\Generated_Source\PSoC4/EncoderInterrupt.c **** 
  37:.\Generated_Source\PSoC4/EncoderInterrupt.c **** 
  38:.\Generated_Source\PSoC4/EncoderInterrupt.c **** /*******************************************************************************
  39:.\Generated_Source\PSoC4/EncoderInterrupt.c **** * Function Name: EncoderInterrupt_Start
  40:.\Generated_Source\PSoC4/EncoderInterrupt.c **** ********************************************************************************
  41:.\Generated_Source\PSoC4/EncoderInterrupt.c **** *
  42:.\Generated_Source\PSoC4/EncoderInterrupt.c **** * Summary:
  43:.\Generated_Source\PSoC4/EncoderInterrupt.c **** *  Set up the interrupt and enable it.
  44:.\Generated_Source\PSoC4/EncoderInterrupt.c **** *
  45:.\Generated_Source\PSoC4/EncoderInterrupt.c **** * Parameters:  
  46:.\Generated_Source\PSoC4/EncoderInterrupt.c **** *   None
  47:.\Generated_Source\PSoC4/EncoderInterrupt.c **** *
  48:.\Generated_Source\PSoC4/EncoderInterrupt.c **** * Return:
  49:.\Generated_Source\PSoC4/EncoderInterrupt.c **** *   None
  50:.\Generated_Source\PSoC4/EncoderInterrupt.c **** *
  51:.\Generated_Source\PSoC4/EncoderInterrupt.c **** *******************************************************************************/
  52:.\Generated_Source\PSoC4/EncoderInterrupt.c **** void EncoderInterrupt_Start(void)
  53:.\Generated_Source\PSoC4/EncoderInterrupt.c **** {
  26              		.loc 1 53 0
  27              		.cfi_startproc
  28 0000 80B5     		push	{r7, lr}
  29              		.cfi_def_cfa_offset 8
  30              		.cfi_offset 7, -8
  31              		.cfi_offset 14, -4
  32 0002 00AF     		add	r7, sp, #0
  33              		.cfi_def_cfa_register 7
  54:.\Generated_Source\PSoC4/EncoderInterrupt.c ****     /* For all we know the interrupt is active. */
  55:.\Generated_Source\PSoC4/EncoderInterrupt.c ****     EncoderInterrupt_Disable();
  34              		.loc 1 55 0
  35 0004 FFF7FEFF 		bl	EncoderInterrupt_Disable
  56:.\Generated_Source\PSoC4/EncoderInterrupt.c **** 
  57:.\Generated_Source\PSoC4/EncoderInterrupt.c ****     /* Set the ISR to point to the EncoderInterrupt Interrupt. */
  58:.\Generated_Source\PSoC4/EncoderInterrupt.c ****     EncoderInterrupt_SetVector(&EncoderInterrupt_Interrupt);
  36              		.loc 1 58 0
  37 0008 054B     		ldr	r3, .L2
  38 000a 181C     		mov	r0, r3
  39 000c FFF7FEFF 		bl	EncoderInterrupt_SetVector
  59:.\Generated_Source\PSoC4/EncoderInterrupt.c **** 
  60:.\Generated_Source\PSoC4/EncoderInterrupt.c ****     /* Set the priority. */
  61:.\Generated_Source\PSoC4/EncoderInterrupt.c ****     EncoderInterrupt_SetPriority((uint8)EncoderInterrupt_INTC_PRIOR_NUMBER);
  40              		.loc 1 61 0
  41 0010 0320     		mov	r0, #3
  42 0012 FFF7FEFF 		bl	EncoderInterrupt_SetPriority
  62:.\Generated_Source\PSoC4/EncoderInterrupt.c **** 
  63:.\Generated_Source\PSoC4/EncoderInterrupt.c ****     /* Enable it. */
  64:.\Generated_Source\PSoC4/EncoderInterrupt.c ****     EncoderInterrupt_Enable();
  43              		.loc 1 64 0
  44 0016 FFF7FEFF 		bl	EncoderInterrupt_Enable
  65:.\Generated_Source\PSoC4/EncoderInterrupt.c **** }
  45              		.loc 1 65 0
  46 001a BD46     		mov	sp, r7
  47              		@ sp needed
  48 001c 80BD     		pop	{r7, pc}
  49              	.L3:
ARM GAS  C:\Users\Sam\AppData\Local\Temp\ccxtwSVX.s 			page 3


  50 001e C046     		.align	2
  51              	.L2:
  52 0020 00000000 		.word	EncoderInterrupt_Interrupt
  53              		.cfi_endproc
  54              	.LFE0:
  55              		.size	EncoderInterrupt_Start, .-EncoderInterrupt_Start
  56              		.section	.text.EncoderInterrupt_StartEx,"ax",%progbits
  57              		.align	2
  58              		.global	EncoderInterrupt_StartEx
  59              		.code	16
  60              		.thumb_func
  61              		.type	EncoderInterrupt_StartEx, %function
  62              	EncoderInterrupt_StartEx:
  63              	.LFB1:
  66:.\Generated_Source\PSoC4/EncoderInterrupt.c **** 
  67:.\Generated_Source\PSoC4/EncoderInterrupt.c **** 
  68:.\Generated_Source\PSoC4/EncoderInterrupt.c **** /*******************************************************************************
  69:.\Generated_Source\PSoC4/EncoderInterrupt.c **** * Function Name: EncoderInterrupt_StartEx
  70:.\Generated_Source\PSoC4/EncoderInterrupt.c **** ********************************************************************************
  71:.\Generated_Source\PSoC4/EncoderInterrupt.c **** *
  72:.\Generated_Source\PSoC4/EncoderInterrupt.c **** * Summary:
  73:.\Generated_Source\PSoC4/EncoderInterrupt.c **** *  Set up the interrupt and enable it.
  74:.\Generated_Source\PSoC4/EncoderInterrupt.c **** *
  75:.\Generated_Source\PSoC4/EncoderInterrupt.c **** * Parameters:  
  76:.\Generated_Source\PSoC4/EncoderInterrupt.c **** *   address: Address of the ISR to set in the interrupt vector table.
  77:.\Generated_Source\PSoC4/EncoderInterrupt.c **** *
  78:.\Generated_Source\PSoC4/EncoderInterrupt.c **** * Return:
  79:.\Generated_Source\PSoC4/EncoderInterrupt.c **** *   None
  80:.\Generated_Source\PSoC4/EncoderInterrupt.c **** *
  81:.\Generated_Source\PSoC4/EncoderInterrupt.c **** *******************************************************************************/
  82:.\Generated_Source\PSoC4/EncoderInterrupt.c **** void EncoderInterrupt_StartEx(cyisraddress address)
  83:.\Generated_Source\PSoC4/EncoderInterrupt.c **** {
  64              		.loc 1 83 0
  65              		.cfi_startproc
  66 0000 80B5     		push	{r7, lr}
  67              		.cfi_def_cfa_offset 8
  68              		.cfi_offset 7, -8
  69              		.cfi_offset 14, -4
  70 0002 82B0     		sub	sp, sp, #8
  71              		.cfi_def_cfa_offset 16
  72 0004 00AF     		add	r7, sp, #0
  73              		.cfi_def_cfa_register 7
  74 0006 7860     		str	r0, [r7, #4]
  84:.\Generated_Source\PSoC4/EncoderInterrupt.c ****     /* For all we know the interrupt is active. */
  85:.\Generated_Source\PSoC4/EncoderInterrupt.c ****     EncoderInterrupt_Disable();
  75              		.loc 1 85 0
  76 0008 FFF7FEFF 		bl	EncoderInterrupt_Disable
  86:.\Generated_Source\PSoC4/EncoderInterrupt.c **** 
  87:.\Generated_Source\PSoC4/EncoderInterrupt.c ****     /* Set the ISR to point to the EncoderInterrupt Interrupt. */
  88:.\Generated_Source\PSoC4/EncoderInterrupt.c ****     EncoderInterrupt_SetVector(address);
  77              		.loc 1 88 0
  78 000c 7B68     		ldr	r3, [r7, #4]
  79 000e 181C     		mov	r0, r3
  80 0010 FFF7FEFF 		bl	EncoderInterrupt_SetVector
  89:.\Generated_Source\PSoC4/EncoderInterrupt.c **** 
  90:.\Generated_Source\PSoC4/EncoderInterrupt.c ****     /* Set the priority. */
  91:.\Generated_Source\PSoC4/EncoderInterrupt.c ****     EncoderInterrupt_SetPriority((uint8)EncoderInterrupt_INTC_PRIOR_NUMBER);
ARM GAS  C:\Users\Sam\AppData\Local\Temp\ccxtwSVX.s 			page 4


  81              		.loc 1 91 0
  82 0014 0320     		mov	r0, #3
  83 0016 FFF7FEFF 		bl	EncoderInterrupt_SetPriority
  92:.\Generated_Source\PSoC4/EncoderInterrupt.c **** 
  93:.\Generated_Source\PSoC4/EncoderInterrupt.c ****     /* Enable it. */
  94:.\Generated_Source\PSoC4/EncoderInterrupt.c ****     EncoderInterrupt_Enable();
  84              		.loc 1 94 0
  85 001a FFF7FEFF 		bl	EncoderInterrupt_Enable
  95:.\Generated_Source\PSoC4/EncoderInterrupt.c **** }
  86              		.loc 1 95 0
  87 001e BD46     		mov	sp, r7
  88 0020 02B0     		add	sp, sp, #8
  89              		@ sp needed
  90 0022 80BD     		pop	{r7, pc}
  91              		.cfi_endproc
  92              	.LFE1:
  93              		.size	EncoderInterrupt_StartEx, .-EncoderInterrupt_StartEx
  94              		.section	.text.EncoderInterrupt_Stop,"ax",%progbits
  95              		.align	2
  96              		.global	EncoderInterrupt_Stop
  97              		.code	16
  98              		.thumb_func
  99              		.type	EncoderInterrupt_Stop, %function
 100              	EncoderInterrupt_Stop:
 101              	.LFB2:
  96:.\Generated_Source\PSoC4/EncoderInterrupt.c **** 
  97:.\Generated_Source\PSoC4/EncoderInterrupt.c **** 
  98:.\Generated_Source\PSoC4/EncoderInterrupt.c **** /*******************************************************************************
  99:.\Generated_Source\PSoC4/EncoderInterrupt.c **** * Function Name: EncoderInterrupt_Stop
 100:.\Generated_Source\PSoC4/EncoderInterrupt.c **** ********************************************************************************
 101:.\Generated_Source\PSoC4/EncoderInterrupt.c **** *
 102:.\Generated_Source\PSoC4/EncoderInterrupt.c **** * Summary:
 103:.\Generated_Source\PSoC4/EncoderInterrupt.c **** *   Disables and removes the interrupt.
 104:.\Generated_Source\PSoC4/EncoderInterrupt.c **** *
 105:.\Generated_Source\PSoC4/EncoderInterrupt.c **** * Parameters:  
 106:.\Generated_Source\PSoC4/EncoderInterrupt.c **** *
 107:.\Generated_Source\PSoC4/EncoderInterrupt.c **** * Return:
 108:.\Generated_Source\PSoC4/EncoderInterrupt.c **** *   None
 109:.\Generated_Source\PSoC4/EncoderInterrupt.c **** *
 110:.\Generated_Source\PSoC4/EncoderInterrupt.c **** *******************************************************************************/
 111:.\Generated_Source\PSoC4/EncoderInterrupt.c **** void EncoderInterrupt_Stop(void)
 112:.\Generated_Source\PSoC4/EncoderInterrupt.c **** {
 102              		.loc 1 112 0
 103              		.cfi_startproc
 104 0000 80B5     		push	{r7, lr}
 105              		.cfi_def_cfa_offset 8
 106              		.cfi_offset 7, -8
 107              		.cfi_offset 14, -4
 108 0002 00AF     		add	r7, sp, #0
 109              		.cfi_def_cfa_register 7
 113:.\Generated_Source\PSoC4/EncoderInterrupt.c ****     /* Disable this interrupt. */
 114:.\Generated_Source\PSoC4/EncoderInterrupt.c ****     EncoderInterrupt_Disable();
 110              		.loc 1 114 0
 111 0004 FFF7FEFF 		bl	EncoderInterrupt_Disable
 115:.\Generated_Source\PSoC4/EncoderInterrupt.c **** 
 116:.\Generated_Source\PSoC4/EncoderInterrupt.c ****     /* Set the ISR to point to the passive one. */
 117:.\Generated_Source\PSoC4/EncoderInterrupt.c ****     EncoderInterrupt_SetVector(&IntDefaultHandler);
ARM GAS  C:\Users\Sam\AppData\Local\Temp\ccxtwSVX.s 			page 5


 112              		.loc 1 117 0
 113 0008 024B     		ldr	r3, .L6
 114 000a 181C     		mov	r0, r3
 115 000c FFF7FEFF 		bl	EncoderInterrupt_SetVector
 118:.\Generated_Source\PSoC4/EncoderInterrupt.c **** }
 116              		.loc 1 118 0
 117 0010 BD46     		mov	sp, r7
 118              		@ sp needed
 119 0012 80BD     		pop	{r7, pc}
 120              	.L7:
 121              		.align	2
 122              	.L6:
 123 0014 00000000 		.word	IntDefaultHandler
 124              		.cfi_endproc
 125              	.LFE2:
 126              		.size	EncoderInterrupt_Stop, .-EncoderInterrupt_Stop
 127              		.section	.text.EncoderInterrupt_Interrupt,"ax",%progbits
 128              		.align	2
 129              		.global	EncoderInterrupt_Interrupt
 130              		.code	16
 131              		.thumb_func
 132              		.type	EncoderInterrupt_Interrupt, %function
 133              	EncoderInterrupt_Interrupt:
 134              	.LFB3:
 119:.\Generated_Source\PSoC4/EncoderInterrupt.c **** 
 120:.\Generated_Source\PSoC4/EncoderInterrupt.c **** 
 121:.\Generated_Source\PSoC4/EncoderInterrupt.c **** /*******************************************************************************
 122:.\Generated_Source\PSoC4/EncoderInterrupt.c **** * Function Name: EncoderInterrupt_Interrupt
 123:.\Generated_Source\PSoC4/EncoderInterrupt.c **** ********************************************************************************
 124:.\Generated_Source\PSoC4/EncoderInterrupt.c **** *
 125:.\Generated_Source\PSoC4/EncoderInterrupt.c **** * Summary:
 126:.\Generated_Source\PSoC4/EncoderInterrupt.c **** *   The default Interrupt Service Routine for EncoderInterrupt.
 127:.\Generated_Source\PSoC4/EncoderInterrupt.c **** *
 128:.\Generated_Source\PSoC4/EncoderInterrupt.c **** *   Add custom code between the coments to keep the next version of this file
 129:.\Generated_Source\PSoC4/EncoderInterrupt.c **** *   from over writting your code.
 130:.\Generated_Source\PSoC4/EncoderInterrupt.c **** *
 131:.\Generated_Source\PSoC4/EncoderInterrupt.c **** * Parameters:  
 132:.\Generated_Source\PSoC4/EncoderInterrupt.c **** *   None
 133:.\Generated_Source\PSoC4/EncoderInterrupt.c **** *
 134:.\Generated_Source\PSoC4/EncoderInterrupt.c **** * Return:
 135:.\Generated_Source\PSoC4/EncoderInterrupt.c **** *   None
 136:.\Generated_Source\PSoC4/EncoderInterrupt.c **** *
 137:.\Generated_Source\PSoC4/EncoderInterrupt.c **** *******************************************************************************/
 138:.\Generated_Source\PSoC4/EncoderInterrupt.c **** CY_ISR(EncoderInterrupt_Interrupt)
 139:.\Generated_Source\PSoC4/EncoderInterrupt.c **** {
 135              		.loc 1 139 0
 136              		.cfi_startproc
 137 0000 80B5     		push	{r7, lr}
 138              		.cfi_def_cfa_offset 8
 139              		.cfi_offset 7, -8
 140              		.cfi_offset 14, -4
 141 0002 00AF     		add	r7, sp, #0
 142              		.cfi_def_cfa_register 7
 140:.\Generated_Source\PSoC4/EncoderInterrupt.c ****     /*  Place your Interrupt code here. */
 141:.\Generated_Source\PSoC4/EncoderInterrupt.c ****     /* `#START EncoderInterrupt_Interrupt` */
 142:.\Generated_Source\PSoC4/EncoderInterrupt.c **** 
 143:.\Generated_Source\PSoC4/EncoderInterrupt.c ****     /* `#END` */
ARM GAS  C:\Users\Sam\AppData\Local\Temp\ccxtwSVX.s 			page 6


 144:.\Generated_Source\PSoC4/EncoderInterrupt.c **** }
 143              		.loc 1 144 0
 144 0004 BD46     		mov	sp, r7
 145              		@ sp needed
 146 0006 80BD     		pop	{r7, pc}
 147              		.cfi_endproc
 148              	.LFE3:
 149              		.size	EncoderInterrupt_Interrupt, .-EncoderInterrupt_Interrupt
 150              		.section	.text.EncoderInterrupt_SetVector,"ax",%progbits
 151              		.align	2
 152              		.global	EncoderInterrupt_SetVector
 153              		.code	16
 154              		.thumb_func
 155              		.type	EncoderInterrupt_SetVector, %function
 156              	EncoderInterrupt_SetVector:
 157              	.LFB4:
 145:.\Generated_Source\PSoC4/EncoderInterrupt.c **** 
 146:.\Generated_Source\PSoC4/EncoderInterrupt.c **** 
 147:.\Generated_Source\PSoC4/EncoderInterrupt.c **** /*******************************************************************************
 148:.\Generated_Source\PSoC4/EncoderInterrupt.c **** * Function Name: EncoderInterrupt_SetVector
 149:.\Generated_Source\PSoC4/EncoderInterrupt.c **** ********************************************************************************
 150:.\Generated_Source\PSoC4/EncoderInterrupt.c **** *
 151:.\Generated_Source\PSoC4/EncoderInterrupt.c **** * Summary:
 152:.\Generated_Source\PSoC4/EncoderInterrupt.c **** *   Change the ISR vector for the Interrupt. Note calling EncoderInterrupt_Start
 153:.\Generated_Source\PSoC4/EncoderInterrupt.c **** *   will override any effect this method would have had. To set the vector 
 154:.\Generated_Source\PSoC4/EncoderInterrupt.c **** *   before the component has been started use EncoderInterrupt_StartEx instead.
 155:.\Generated_Source\PSoC4/EncoderInterrupt.c **** *
 156:.\Generated_Source\PSoC4/EncoderInterrupt.c **** * Parameters:
 157:.\Generated_Source\PSoC4/EncoderInterrupt.c **** *   address: Address of the ISR to set in the interrupt vector table.
 158:.\Generated_Source\PSoC4/EncoderInterrupt.c **** *
 159:.\Generated_Source\PSoC4/EncoderInterrupt.c **** * Return:
 160:.\Generated_Source\PSoC4/EncoderInterrupt.c **** *   None
 161:.\Generated_Source\PSoC4/EncoderInterrupt.c **** *
 162:.\Generated_Source\PSoC4/EncoderInterrupt.c **** *******************************************************************************/
 163:.\Generated_Source\PSoC4/EncoderInterrupt.c **** void EncoderInterrupt_SetVector(cyisraddress address)
 164:.\Generated_Source\PSoC4/EncoderInterrupt.c **** {
 158              		.loc 1 164 0
 159              		.cfi_startproc
 160 0000 80B5     		push	{r7, lr}
 161              		.cfi_def_cfa_offset 8
 162              		.cfi_offset 7, -8
 163              		.cfi_offset 14, -4
 164 0002 82B0     		sub	sp, sp, #8
 165              		.cfi_def_cfa_offset 16
 166 0004 00AF     		add	r7, sp, #0
 167              		.cfi_def_cfa_register 7
 168 0006 7860     		str	r0, [r7, #4]
 165:.\Generated_Source\PSoC4/EncoderInterrupt.c ****     CyRamVectors[CYINT_IRQ_BASE + EncoderInterrupt__INTC_NUMBER] = address;
 169              		.loc 1 165 0
 170 0008 024B     		ldr	r3, .L10
 171 000a 7A68     		ldr	r2, [r7, #4]
 172 000c 9A64     		str	r2, [r3, #72]
 166:.\Generated_Source\PSoC4/EncoderInterrupt.c **** }
 173              		.loc 1 166 0
 174 000e BD46     		mov	sp, r7
 175 0010 02B0     		add	sp, sp, #8
 176              		@ sp needed
ARM GAS  C:\Users\Sam\AppData\Local\Temp\ccxtwSVX.s 			page 7


 177 0012 80BD     		pop	{r7, pc}
 178              	.L11:
 179              		.align	2
 180              	.L10:
 181 0014 00000000 		.word	CyRamVectors
 182              		.cfi_endproc
 183              	.LFE4:
 184              		.size	EncoderInterrupt_SetVector, .-EncoderInterrupt_SetVector
 185              		.section	.text.EncoderInterrupt_GetVector,"ax",%progbits
 186              		.align	2
 187              		.global	EncoderInterrupt_GetVector
 188              		.code	16
 189              		.thumb_func
 190              		.type	EncoderInterrupt_GetVector, %function
 191              	EncoderInterrupt_GetVector:
 192              	.LFB5:
 167:.\Generated_Source\PSoC4/EncoderInterrupt.c **** 
 168:.\Generated_Source\PSoC4/EncoderInterrupt.c **** 
 169:.\Generated_Source\PSoC4/EncoderInterrupt.c **** /*******************************************************************************
 170:.\Generated_Source\PSoC4/EncoderInterrupt.c **** * Function Name: EncoderInterrupt_GetVector
 171:.\Generated_Source\PSoC4/EncoderInterrupt.c **** ********************************************************************************
 172:.\Generated_Source\PSoC4/EncoderInterrupt.c **** *
 173:.\Generated_Source\PSoC4/EncoderInterrupt.c **** * Summary:
 174:.\Generated_Source\PSoC4/EncoderInterrupt.c **** *   Gets the "address" of the current ISR vector for the Interrupt.
 175:.\Generated_Source\PSoC4/EncoderInterrupt.c **** *
 176:.\Generated_Source\PSoC4/EncoderInterrupt.c **** * Parameters:
 177:.\Generated_Source\PSoC4/EncoderInterrupt.c **** *   None
 178:.\Generated_Source\PSoC4/EncoderInterrupt.c **** *
 179:.\Generated_Source\PSoC4/EncoderInterrupt.c **** * Return:
 180:.\Generated_Source\PSoC4/EncoderInterrupt.c **** *   Address of the ISR in the interrupt vector table.
 181:.\Generated_Source\PSoC4/EncoderInterrupt.c **** *
 182:.\Generated_Source\PSoC4/EncoderInterrupt.c **** *******************************************************************************/
 183:.\Generated_Source\PSoC4/EncoderInterrupt.c **** cyisraddress EncoderInterrupt_GetVector(void)
 184:.\Generated_Source\PSoC4/EncoderInterrupt.c **** {
 193              		.loc 1 184 0
 194              		.cfi_startproc
 195 0000 80B5     		push	{r7, lr}
 196              		.cfi_def_cfa_offset 8
 197              		.cfi_offset 7, -8
 198              		.cfi_offset 14, -4
 199 0002 00AF     		add	r7, sp, #0
 200              		.cfi_def_cfa_register 7
 185:.\Generated_Source\PSoC4/EncoderInterrupt.c ****     return CyRamVectors[CYINT_IRQ_BASE + EncoderInterrupt__INTC_NUMBER];
 201              		.loc 1 185 0
 202 0004 024B     		ldr	r3, .L14
 203 0006 9B6C     		ldr	r3, [r3, #72]
 186:.\Generated_Source\PSoC4/EncoderInterrupt.c **** }
 204              		.loc 1 186 0
 205 0008 181C     		mov	r0, r3
 206 000a BD46     		mov	sp, r7
 207              		@ sp needed
 208 000c 80BD     		pop	{r7, pc}
 209              	.L15:
 210 000e C046     		.align	2
 211              	.L14:
 212 0010 00000000 		.word	CyRamVectors
 213              		.cfi_endproc
ARM GAS  C:\Users\Sam\AppData\Local\Temp\ccxtwSVX.s 			page 8


 214              	.LFE5:
 215              		.size	EncoderInterrupt_GetVector, .-EncoderInterrupt_GetVector
 216              		.section	.text.EncoderInterrupt_SetPriority,"ax",%progbits
 217              		.align	2
 218              		.global	EncoderInterrupt_SetPriority
 219              		.code	16
 220              		.thumb_func
 221              		.type	EncoderInterrupt_SetPriority, %function
 222              	EncoderInterrupt_SetPriority:
 223              	.LFB6:
 187:.\Generated_Source\PSoC4/EncoderInterrupt.c **** 
 188:.\Generated_Source\PSoC4/EncoderInterrupt.c **** 
 189:.\Generated_Source\PSoC4/EncoderInterrupt.c **** /*******************************************************************************
 190:.\Generated_Source\PSoC4/EncoderInterrupt.c **** * Function Name: EncoderInterrupt_SetPriority
 191:.\Generated_Source\PSoC4/EncoderInterrupt.c **** ********************************************************************************
 192:.\Generated_Source\PSoC4/EncoderInterrupt.c **** *
 193:.\Generated_Source\PSoC4/EncoderInterrupt.c **** * Summary:
 194:.\Generated_Source\PSoC4/EncoderInterrupt.c **** *   Sets the Priority of the Interrupt. Note calling EncoderInterrupt_Start
 195:.\Generated_Source\PSoC4/EncoderInterrupt.c **** *   or EncoderInterrupt_StartEx will override any effect this method would 
 196:.\Generated_Source\PSoC4/EncoderInterrupt.c **** *   have had. This method should only be called after EncoderInterrupt_Start or 
 197:.\Generated_Source\PSoC4/EncoderInterrupt.c **** *   EncoderInterrupt_StartEx has been called. To set the initial
 198:.\Generated_Source\PSoC4/EncoderInterrupt.c **** *   priority for the component use the cydwr file in the tool.
 199:.\Generated_Source\PSoC4/EncoderInterrupt.c **** *
 200:.\Generated_Source\PSoC4/EncoderInterrupt.c **** * Parameters:
 201:.\Generated_Source\PSoC4/EncoderInterrupt.c **** *   priority: Priority of the interrupt. 0 - 3, 0 being the highest.
 202:.\Generated_Source\PSoC4/EncoderInterrupt.c **** *
 203:.\Generated_Source\PSoC4/EncoderInterrupt.c **** * Return:
 204:.\Generated_Source\PSoC4/EncoderInterrupt.c **** *   None
 205:.\Generated_Source\PSoC4/EncoderInterrupt.c **** *
 206:.\Generated_Source\PSoC4/EncoderInterrupt.c **** *******************************************************************************/
 207:.\Generated_Source\PSoC4/EncoderInterrupt.c **** void EncoderInterrupt_SetPriority(uint8 priority)
 208:.\Generated_Source\PSoC4/EncoderInterrupt.c **** {
 224              		.loc 1 208 0
 225              		.cfi_startproc
 226 0000 90B5     		push	{r4, r7, lr}
 227              		.cfi_def_cfa_offset 12
 228              		.cfi_offset 4, -12
 229              		.cfi_offset 7, -8
 230              		.cfi_offset 14, -4
 231 0002 85B0     		sub	sp, sp, #20
 232              		.cfi_def_cfa_offset 32
 233 0004 00AF     		add	r7, sp, #0
 234              		.cfi_def_cfa_register 7
 235 0006 021C     		mov	r2, r0
 236 0008 FB1D     		add	r3, r7, #7
 237 000a 1A70     		strb	r2, [r3]
 209:.\Generated_Source\PSoC4/EncoderInterrupt.c **** 	uint8 interruptState;
 210:.\Generated_Source\PSoC4/EncoderInterrupt.c ****     uint32 priorityOffset = ((EncoderInterrupt__INTC_NUMBER % 4u) * 8u) + 6u;
 238              		.loc 1 210 0
 239 000c 1623     		mov	r3, #22
 240 000e FB60     		str	r3, [r7, #12]
 211:.\Generated_Source\PSoC4/EncoderInterrupt.c ****     
 212:.\Generated_Source\PSoC4/EncoderInterrupt.c **** 	interruptState = CyEnterCriticalSection();
 241              		.loc 1 212 0
 242 0010 3C1C     		mov	r4, r7
 243 0012 0B34     		add	r4, r4, #11
 244 0014 FFF7FEFF 		bl	CyEnterCriticalSection
ARM GAS  C:\Users\Sam\AppData\Local\Temp\ccxtwSVX.s 			page 9


 245 0018 031C     		mov	r3, r0
 246 001a 2370     		strb	r3, [r4]
 213:.\Generated_Source\PSoC4/EncoderInterrupt.c ****     *EncoderInterrupt_INTC_PRIOR = (*EncoderInterrupt_INTC_PRIOR & (uint32)(~EncoderInterrupt__INTC
 247              		.loc 1 213 0
 248 001c 0A4B     		ldr	r3, .L17
 249 001e 0A4A     		ldr	r2, .L17
 250 0020 1168     		ldr	r1, [r2]
 251 0022 0A4A     		ldr	r2, .L17+4
 252 0024 1140     		and	r1, r2
 214:.\Generated_Source\PSoC4/EncoderInterrupt.c ****                                     ((uint32)priority << priorityOffset);
 253              		.loc 1 214 0
 254 0026 FA1D     		add	r2, r7, #7
 255 0028 1078     		ldrb	r0, [r2]
 256 002a FA68     		ldr	r2, [r7, #12]
 257 002c 041C     		mov	r4, r0
 258 002e 9440     		lsl	r4, r4, r2
 259 0030 221C     		mov	r2, r4
 213:.\Generated_Source\PSoC4/EncoderInterrupt.c ****     *EncoderInterrupt_INTC_PRIOR = (*EncoderInterrupt_INTC_PRIOR & (uint32)(~EncoderInterrupt__INTC
 260              		.loc 1 213 0
 261 0032 0A43     		orr	r2, r1
 262 0034 1A60     		str	r2, [r3]
 215:.\Generated_Source\PSoC4/EncoderInterrupt.c **** 	CyExitCriticalSection(interruptState);
 263              		.loc 1 215 0
 264 0036 3B1C     		mov	r3, r7
 265 0038 0B33     		add	r3, r3, #11
 266 003a 1B78     		ldrb	r3, [r3]
 267 003c 181C     		mov	r0, r3
 268 003e FFF7FEFF 		bl	CyExitCriticalSection
 216:.\Generated_Source\PSoC4/EncoderInterrupt.c **** }
 269              		.loc 1 216 0
 270 0042 BD46     		mov	sp, r7
 271 0044 05B0     		add	sp, sp, #20
 272              		@ sp needed
 273 0046 90BD     		pop	{r4, r7, pc}
 274              	.L18:
 275              		.align	2
 276              	.L17:
 277 0048 00E400E0 		.word	-536812544
 278 004c FFFF3FFF 		.word	-12582913
 279              		.cfi_endproc
 280              	.LFE6:
 281              		.size	EncoderInterrupt_SetPriority, .-EncoderInterrupt_SetPriority
 282              		.section	.text.EncoderInterrupt_GetPriority,"ax",%progbits
 283              		.align	2
 284              		.global	EncoderInterrupt_GetPriority
 285              		.code	16
 286              		.thumb_func
 287              		.type	EncoderInterrupt_GetPriority, %function
 288              	EncoderInterrupt_GetPriority:
 289              	.LFB7:
 217:.\Generated_Source\PSoC4/EncoderInterrupt.c **** 
 218:.\Generated_Source\PSoC4/EncoderInterrupt.c **** 
 219:.\Generated_Source\PSoC4/EncoderInterrupt.c **** /*******************************************************************************
 220:.\Generated_Source\PSoC4/EncoderInterrupt.c **** * Function Name: EncoderInterrupt_GetPriority
 221:.\Generated_Source\PSoC4/EncoderInterrupt.c **** ********************************************************************************
 222:.\Generated_Source\PSoC4/EncoderInterrupt.c **** *
 223:.\Generated_Source\PSoC4/EncoderInterrupt.c **** * Summary:
ARM GAS  C:\Users\Sam\AppData\Local\Temp\ccxtwSVX.s 			page 10


 224:.\Generated_Source\PSoC4/EncoderInterrupt.c **** *   Gets the Priority of the Interrupt.
 225:.\Generated_Source\PSoC4/EncoderInterrupt.c **** *
 226:.\Generated_Source\PSoC4/EncoderInterrupt.c **** * Parameters:
 227:.\Generated_Source\PSoC4/EncoderInterrupt.c **** *   None
 228:.\Generated_Source\PSoC4/EncoderInterrupt.c **** *
 229:.\Generated_Source\PSoC4/EncoderInterrupt.c **** * Return:
 230:.\Generated_Source\PSoC4/EncoderInterrupt.c **** *   Priority of the interrupt. 0 - 3, 0 being the highest.
 231:.\Generated_Source\PSoC4/EncoderInterrupt.c **** *
 232:.\Generated_Source\PSoC4/EncoderInterrupt.c **** *******************************************************************************/
 233:.\Generated_Source\PSoC4/EncoderInterrupt.c **** uint8 EncoderInterrupt_GetPriority(void)
 234:.\Generated_Source\PSoC4/EncoderInterrupt.c **** {
 290              		.loc 1 234 0
 291              		.cfi_startproc
 292 0000 80B5     		push	{r7, lr}
 293              		.cfi_def_cfa_offset 8
 294              		.cfi_offset 7, -8
 295              		.cfi_offset 14, -4
 296 0002 82B0     		sub	sp, sp, #8
 297              		.cfi_def_cfa_offset 16
 298 0004 00AF     		add	r7, sp, #0
 299              		.cfi_def_cfa_register 7
 235:.\Generated_Source\PSoC4/EncoderInterrupt.c ****     uint32 priority;
 236:.\Generated_Source\PSoC4/EncoderInterrupt.c **** 	uint32 priorityOffset = ((EncoderInterrupt__INTC_NUMBER % 4u) * 8u) + 6u;
 300              		.loc 1 236 0
 301 0006 1623     		mov	r3, #22
 302 0008 7B60     		str	r3, [r7, #4]
 237:.\Generated_Source\PSoC4/EncoderInterrupt.c **** 
 238:.\Generated_Source\PSoC4/EncoderInterrupt.c ****     priority = (*EncoderInterrupt_INTC_PRIOR & EncoderInterrupt__INTC_PRIOR_MASK) >> priorityOffset
 303              		.loc 1 238 0
 304 000a 084B     		ldr	r3, .L21
 305 000c 1A68     		ldr	r2, [r3]
 306 000e C023     		mov	r3, #192
 307 0010 1B04     		lsl	r3, r3, #16
 308 0012 1A40     		and	r2, r3
 309 0014 7B68     		ldr	r3, [r7, #4]
 310 0016 111C     		mov	r1, r2
 311 0018 D940     		lsr	r1, r1, r3
 312 001a 0B1C     		mov	r3, r1
 313 001c 3B60     		str	r3, [r7]
 239:.\Generated_Source\PSoC4/EncoderInterrupt.c **** 
 240:.\Generated_Source\PSoC4/EncoderInterrupt.c ****     return (uint8)priority;
 314              		.loc 1 240 0
 315 001e 3B68     		ldr	r3, [r7]
 316 0020 DBB2     		uxtb	r3, r3
 241:.\Generated_Source\PSoC4/EncoderInterrupt.c **** }
 317              		.loc 1 241 0
 318 0022 181C     		mov	r0, r3
 319 0024 BD46     		mov	sp, r7
 320 0026 02B0     		add	sp, sp, #8
 321              		@ sp needed
 322 0028 80BD     		pop	{r7, pc}
 323              	.L22:
 324 002a C046     		.align	2
 325              	.L21:
 326 002c 00E400E0 		.word	-536812544
 327              		.cfi_endproc
 328              	.LFE7:
ARM GAS  C:\Users\Sam\AppData\Local\Temp\ccxtwSVX.s 			page 11


 329              		.size	EncoderInterrupt_GetPriority, .-EncoderInterrupt_GetPriority
 330              		.section	.text.EncoderInterrupt_Enable,"ax",%progbits
 331              		.align	2
 332              		.global	EncoderInterrupt_Enable
 333              		.code	16
 334              		.thumb_func
 335              		.type	EncoderInterrupt_Enable, %function
 336              	EncoderInterrupt_Enable:
 337              	.LFB8:
 242:.\Generated_Source\PSoC4/EncoderInterrupt.c **** 
 243:.\Generated_Source\PSoC4/EncoderInterrupt.c **** 
 244:.\Generated_Source\PSoC4/EncoderInterrupt.c **** /*******************************************************************************
 245:.\Generated_Source\PSoC4/EncoderInterrupt.c **** * Function Name: EncoderInterrupt_Enable
 246:.\Generated_Source\PSoC4/EncoderInterrupt.c **** ********************************************************************************
 247:.\Generated_Source\PSoC4/EncoderInterrupt.c **** *
 248:.\Generated_Source\PSoC4/EncoderInterrupt.c **** * Summary:
 249:.\Generated_Source\PSoC4/EncoderInterrupt.c **** *   Enables the interrupt.
 250:.\Generated_Source\PSoC4/EncoderInterrupt.c **** *
 251:.\Generated_Source\PSoC4/EncoderInterrupt.c **** * Parameters:
 252:.\Generated_Source\PSoC4/EncoderInterrupt.c **** *   None
 253:.\Generated_Source\PSoC4/EncoderInterrupt.c **** *
 254:.\Generated_Source\PSoC4/EncoderInterrupt.c **** * Return:
 255:.\Generated_Source\PSoC4/EncoderInterrupt.c **** *   None
 256:.\Generated_Source\PSoC4/EncoderInterrupt.c **** *
 257:.\Generated_Source\PSoC4/EncoderInterrupt.c **** *******************************************************************************/
 258:.\Generated_Source\PSoC4/EncoderInterrupt.c **** void EncoderInterrupt_Enable(void)
 259:.\Generated_Source\PSoC4/EncoderInterrupt.c **** {
 338              		.loc 1 259 0
 339              		.cfi_startproc
 340 0000 80B5     		push	{r7, lr}
 341              		.cfi_def_cfa_offset 8
 342              		.cfi_offset 7, -8
 343              		.cfi_offset 14, -4
 344 0002 00AF     		add	r7, sp, #0
 345              		.cfi_def_cfa_register 7
 260:.\Generated_Source\PSoC4/EncoderInterrupt.c ****     /* Enable the general interrupt. */
 261:.\Generated_Source\PSoC4/EncoderInterrupt.c ****     *EncoderInterrupt_INTC_SET_EN = EncoderInterrupt__INTC_MASK;
 346              		.loc 1 261 0
 347 0004 024B     		ldr	r3, .L24
 348 0006 0422     		mov	r2, #4
 349 0008 1A60     		str	r2, [r3]
 262:.\Generated_Source\PSoC4/EncoderInterrupt.c **** }
 350              		.loc 1 262 0
 351 000a BD46     		mov	sp, r7
 352              		@ sp needed
 353 000c 80BD     		pop	{r7, pc}
 354              	.L25:
 355 000e C046     		.align	2
 356              	.L24:
 357 0010 00E100E0 		.word	-536813312
 358              		.cfi_endproc
 359              	.LFE8:
 360              		.size	EncoderInterrupt_Enable, .-EncoderInterrupt_Enable
 361              		.section	.text.EncoderInterrupt_GetState,"ax",%progbits
 362              		.align	2
 363              		.global	EncoderInterrupt_GetState
 364              		.code	16
ARM GAS  C:\Users\Sam\AppData\Local\Temp\ccxtwSVX.s 			page 12


 365              		.thumb_func
 366              		.type	EncoderInterrupt_GetState, %function
 367              	EncoderInterrupt_GetState:
 368              	.LFB9:
 263:.\Generated_Source\PSoC4/EncoderInterrupt.c **** 
 264:.\Generated_Source\PSoC4/EncoderInterrupt.c **** 
 265:.\Generated_Source\PSoC4/EncoderInterrupt.c **** /*******************************************************************************
 266:.\Generated_Source\PSoC4/EncoderInterrupt.c **** * Function Name: EncoderInterrupt_GetState
 267:.\Generated_Source\PSoC4/EncoderInterrupt.c **** ********************************************************************************
 268:.\Generated_Source\PSoC4/EncoderInterrupt.c **** *
 269:.\Generated_Source\PSoC4/EncoderInterrupt.c **** * Summary:
 270:.\Generated_Source\PSoC4/EncoderInterrupt.c **** *   Gets the state (enabled, disabled) of the Interrupt.
 271:.\Generated_Source\PSoC4/EncoderInterrupt.c **** *
 272:.\Generated_Source\PSoC4/EncoderInterrupt.c **** * Parameters:
 273:.\Generated_Source\PSoC4/EncoderInterrupt.c **** *   None
 274:.\Generated_Source\PSoC4/EncoderInterrupt.c **** *
 275:.\Generated_Source\PSoC4/EncoderInterrupt.c **** * Return:
 276:.\Generated_Source\PSoC4/EncoderInterrupt.c **** *   1 if enabled, 0 if disabled.
 277:.\Generated_Source\PSoC4/EncoderInterrupt.c **** *
 278:.\Generated_Source\PSoC4/EncoderInterrupt.c **** *******************************************************************************/
 279:.\Generated_Source\PSoC4/EncoderInterrupt.c **** uint8 EncoderInterrupt_GetState(void)
 280:.\Generated_Source\PSoC4/EncoderInterrupt.c **** {
 369              		.loc 1 280 0
 370              		.cfi_startproc
 371 0000 80B5     		push	{r7, lr}
 372              		.cfi_def_cfa_offset 8
 373              		.cfi_offset 7, -8
 374              		.cfi_offset 14, -4
 375 0002 00AF     		add	r7, sp, #0
 376              		.cfi_def_cfa_register 7
 281:.\Generated_Source\PSoC4/EncoderInterrupt.c ****     /* Get the state of the general interrupt. */
 282:.\Generated_Source\PSoC4/EncoderInterrupt.c ****     return ((*EncoderInterrupt_INTC_SET_EN & (uint32)EncoderInterrupt__INTC_MASK) != 0u) ? 1u:0u;
 377              		.loc 1 282 0
 378 0004 054B     		ldr	r3, .L30
 379 0006 1A68     		ldr	r2, [r3]
 380 0008 0423     		mov	r3, #4
 381 000a 1340     		and	r3, r2
 382 000c 01D0     		beq	.L27
 383              		.loc 1 282 0 is_stmt 0 discriminator 1
 384 000e 0123     		mov	r3, #1
 385 0010 00E0     		b	.L28
 386              	.L27:
 387              		.loc 1 282 0 discriminator 2
 388 0012 0023     		mov	r3, #0
 389              	.L28:
 283:.\Generated_Source\PSoC4/EncoderInterrupt.c **** }
 390              		.loc 1 283 0 is_stmt 1 discriminator 3
 391 0014 181C     		mov	r0, r3
 392 0016 BD46     		mov	sp, r7
 393              		@ sp needed
 394 0018 80BD     		pop	{r7, pc}
 395              	.L31:
 396 001a C046     		.align	2
 397              	.L30:
 398 001c 00E100E0 		.word	-536813312
 399              		.cfi_endproc
 400              	.LFE9:
ARM GAS  C:\Users\Sam\AppData\Local\Temp\ccxtwSVX.s 			page 13


 401              		.size	EncoderInterrupt_GetState, .-EncoderInterrupt_GetState
 402              		.section	.text.EncoderInterrupt_Disable,"ax",%progbits
 403              		.align	2
 404              		.global	EncoderInterrupt_Disable
 405              		.code	16
 406              		.thumb_func
 407              		.type	EncoderInterrupt_Disable, %function
 408              	EncoderInterrupt_Disable:
 409              	.LFB10:
 284:.\Generated_Source\PSoC4/EncoderInterrupt.c **** 
 285:.\Generated_Source\PSoC4/EncoderInterrupt.c **** 
 286:.\Generated_Source\PSoC4/EncoderInterrupt.c **** /*******************************************************************************
 287:.\Generated_Source\PSoC4/EncoderInterrupt.c **** * Function Name: EncoderInterrupt_Disable
 288:.\Generated_Source\PSoC4/EncoderInterrupt.c **** ********************************************************************************
 289:.\Generated_Source\PSoC4/EncoderInterrupt.c **** *
 290:.\Generated_Source\PSoC4/EncoderInterrupt.c **** * Summary:
 291:.\Generated_Source\PSoC4/EncoderInterrupt.c **** *   Disables the Interrupt.
 292:.\Generated_Source\PSoC4/EncoderInterrupt.c **** *
 293:.\Generated_Source\PSoC4/EncoderInterrupt.c **** * Parameters:
 294:.\Generated_Source\PSoC4/EncoderInterrupt.c **** *   None
 295:.\Generated_Source\PSoC4/EncoderInterrupt.c **** *
 296:.\Generated_Source\PSoC4/EncoderInterrupt.c **** * Return:
 297:.\Generated_Source\PSoC4/EncoderInterrupt.c **** *   None
 298:.\Generated_Source\PSoC4/EncoderInterrupt.c **** *
 299:.\Generated_Source\PSoC4/EncoderInterrupt.c **** *******************************************************************************/
 300:.\Generated_Source\PSoC4/EncoderInterrupt.c **** void EncoderInterrupt_Disable(void)
 301:.\Generated_Source\PSoC4/EncoderInterrupt.c **** {
 410              		.loc 1 301 0
 411              		.cfi_startproc
 412 0000 80B5     		push	{r7, lr}
 413              		.cfi_def_cfa_offset 8
 414              		.cfi_offset 7, -8
 415              		.cfi_offset 14, -4
 416 0002 00AF     		add	r7, sp, #0
 417              		.cfi_def_cfa_register 7
 302:.\Generated_Source\PSoC4/EncoderInterrupt.c ****     /* Disable the general interrupt. */
 303:.\Generated_Source\PSoC4/EncoderInterrupt.c ****     *EncoderInterrupt_INTC_CLR_EN = EncoderInterrupt__INTC_MASK;
 418              		.loc 1 303 0
 419 0004 024B     		ldr	r3, .L33
 420 0006 0422     		mov	r2, #4
 421 0008 1A60     		str	r2, [r3]
 304:.\Generated_Source\PSoC4/EncoderInterrupt.c **** }
 422              		.loc 1 304 0
 423 000a BD46     		mov	sp, r7
 424              		@ sp needed
 425 000c 80BD     		pop	{r7, pc}
 426              	.L34:
 427 000e C046     		.align	2
 428              	.L33:
 429 0010 80E100E0 		.word	-536813184
 430              		.cfi_endproc
 431              	.LFE10:
 432              		.size	EncoderInterrupt_Disable, .-EncoderInterrupt_Disable
 433              		.section	.text.EncoderInterrupt_SetPending,"ax",%progbits
 434              		.align	2
 435              		.global	EncoderInterrupt_SetPending
 436              		.code	16
ARM GAS  C:\Users\Sam\AppData\Local\Temp\ccxtwSVX.s 			page 14


 437              		.thumb_func
 438              		.type	EncoderInterrupt_SetPending, %function
 439              	EncoderInterrupt_SetPending:
 440              	.LFB11:
 305:.\Generated_Source\PSoC4/EncoderInterrupt.c **** 
 306:.\Generated_Source\PSoC4/EncoderInterrupt.c **** 
 307:.\Generated_Source\PSoC4/EncoderInterrupt.c **** /*******************************************************************************
 308:.\Generated_Source\PSoC4/EncoderInterrupt.c **** * Function Name: EncoderInterrupt_SetPending
 309:.\Generated_Source\PSoC4/EncoderInterrupt.c **** ********************************************************************************
 310:.\Generated_Source\PSoC4/EncoderInterrupt.c **** *
 311:.\Generated_Source\PSoC4/EncoderInterrupt.c **** * Summary:
 312:.\Generated_Source\PSoC4/EncoderInterrupt.c **** *   Causes the Interrupt to enter the pending state, a software method of
 313:.\Generated_Source\PSoC4/EncoderInterrupt.c **** *   generating the interrupt.
 314:.\Generated_Source\PSoC4/EncoderInterrupt.c **** *
 315:.\Generated_Source\PSoC4/EncoderInterrupt.c **** * Parameters:
 316:.\Generated_Source\PSoC4/EncoderInterrupt.c **** *   None
 317:.\Generated_Source\PSoC4/EncoderInterrupt.c **** *
 318:.\Generated_Source\PSoC4/EncoderInterrupt.c **** * Return:
 319:.\Generated_Source\PSoC4/EncoderInterrupt.c **** *   None
 320:.\Generated_Source\PSoC4/EncoderInterrupt.c **** *
 321:.\Generated_Source\PSoC4/EncoderInterrupt.c **** *******************************************************************************/
 322:.\Generated_Source\PSoC4/EncoderInterrupt.c **** void EncoderInterrupt_SetPending(void)
 323:.\Generated_Source\PSoC4/EncoderInterrupt.c **** {
 441              		.loc 1 323 0
 442              		.cfi_startproc
 443 0000 80B5     		push	{r7, lr}
 444              		.cfi_def_cfa_offset 8
 445              		.cfi_offset 7, -8
 446              		.cfi_offset 14, -4
 447 0002 00AF     		add	r7, sp, #0
 448              		.cfi_def_cfa_register 7
 324:.\Generated_Source\PSoC4/EncoderInterrupt.c ****     *EncoderInterrupt_INTC_SET_PD = EncoderInterrupt__INTC_MASK;
 449              		.loc 1 324 0
 450 0004 024B     		ldr	r3, .L36
 451 0006 0422     		mov	r2, #4
 452 0008 1A60     		str	r2, [r3]
 325:.\Generated_Source\PSoC4/EncoderInterrupt.c **** }
 453              		.loc 1 325 0
 454 000a BD46     		mov	sp, r7
 455              		@ sp needed
 456 000c 80BD     		pop	{r7, pc}
 457              	.L37:
 458 000e C046     		.align	2
 459              	.L36:
 460 0010 00E200E0 		.word	-536813056
 461              		.cfi_endproc
 462              	.LFE11:
 463              		.size	EncoderInterrupt_SetPending, .-EncoderInterrupt_SetPending
 464              		.section	.text.EncoderInterrupt_ClearPending,"ax",%progbits
 465              		.align	2
 466              		.global	EncoderInterrupt_ClearPending
 467              		.code	16
 468              		.thumb_func
 469              		.type	EncoderInterrupt_ClearPending, %function
 470              	EncoderInterrupt_ClearPending:
 471              	.LFB12:
 326:.\Generated_Source\PSoC4/EncoderInterrupt.c **** 
ARM GAS  C:\Users\Sam\AppData\Local\Temp\ccxtwSVX.s 			page 15


 327:.\Generated_Source\PSoC4/EncoderInterrupt.c **** 
 328:.\Generated_Source\PSoC4/EncoderInterrupt.c **** /*******************************************************************************
 329:.\Generated_Source\PSoC4/EncoderInterrupt.c **** * Function Name: EncoderInterrupt_ClearPending
 330:.\Generated_Source\PSoC4/EncoderInterrupt.c **** ********************************************************************************
 331:.\Generated_Source\PSoC4/EncoderInterrupt.c **** *
 332:.\Generated_Source\PSoC4/EncoderInterrupt.c **** * Summary:
 333:.\Generated_Source\PSoC4/EncoderInterrupt.c **** *   Clears a pending interrupt.
 334:.\Generated_Source\PSoC4/EncoderInterrupt.c **** *
 335:.\Generated_Source\PSoC4/EncoderInterrupt.c **** * Parameters:
 336:.\Generated_Source\PSoC4/EncoderInterrupt.c **** *   None
 337:.\Generated_Source\PSoC4/EncoderInterrupt.c **** *
 338:.\Generated_Source\PSoC4/EncoderInterrupt.c **** * Return:
 339:.\Generated_Source\PSoC4/EncoderInterrupt.c **** *   None
 340:.\Generated_Source\PSoC4/EncoderInterrupt.c **** *
 341:.\Generated_Source\PSoC4/EncoderInterrupt.c **** *******************************************************************************/
 342:.\Generated_Source\PSoC4/EncoderInterrupt.c **** void EncoderInterrupt_ClearPending(void)
 343:.\Generated_Source\PSoC4/EncoderInterrupt.c **** {
 472              		.loc 1 343 0
 473              		.cfi_startproc
 474 0000 80B5     		push	{r7, lr}
 475              		.cfi_def_cfa_offset 8
 476              		.cfi_offset 7, -8
 477              		.cfi_offset 14, -4
 478 0002 00AF     		add	r7, sp, #0
 479              		.cfi_def_cfa_register 7
 344:.\Generated_Source\PSoC4/EncoderInterrupt.c ****     *EncoderInterrupt_INTC_CLR_PD = EncoderInterrupt__INTC_MASK;
 480              		.loc 1 344 0
 481 0004 024B     		ldr	r3, .L39
 482 0006 0422     		mov	r2, #4
 483 0008 1A60     		str	r2, [r3]
 345:.\Generated_Source\PSoC4/EncoderInterrupt.c **** }
 484              		.loc 1 345 0
 485 000a BD46     		mov	sp, r7
 486              		@ sp needed
 487 000c 80BD     		pop	{r7, pc}
 488              	.L40:
 489 000e C046     		.align	2
 490              	.L39:
 491 0010 80E200E0 		.word	-536812928
 492              		.cfi_endproc
 493              	.LFE12:
 494              		.size	EncoderInterrupt_ClearPending, .-EncoderInterrupt_ClearPending
 495              		.text
 496              	.Letext0:
 497              		.file 2 ".\\Generated_Source\\PSoC4/cytypes.h"