ARM GAS  C:\Users\Sam\AppData\Local\Temp\ccxikYff.s 			page 1


   1              		.cpu cortex-m0
   2              		.fpu softvfp
   3              		.eabi_attribute 20, 1
   4              		.eabi_attribute 21, 1
   5              		.eabi_attribute 23, 3
   6              		.eabi_attribute 24, 1
   7              		.eabi_attribute 25, 1
   8              		.eabi_attribute 26, 1
   9              		.eabi_attribute 30, 6
  10              		.eabi_attribute 34, 0
  11              		.eabi_attribute 18, 4
  12              		.code	16
  13              		.file	"main.c"
  14              		.text
  15              	.Ltext0:
  16              		.cfi_sections	.debug_frame
  17              		.comm	mb,36,4
  18              		.comm	encA,1,1
  19              		.comm	encB,1,1
  20              		.data
  21              		.align	2
  22              		.type	lookup, %object
  23              		.size	lookup, 16
  24              	lookup:
  25 0000 00       		.byte	0
  26 0001 FF       		.byte	-1
  27 0002 01       		.byte	1
  28 0003 00       		.byte	0
  29 0004 01       		.byte	1
  30 0005 00       		.byte	0
  31 0006 00       		.byte	0
  32 0007 FF       		.byte	-1
  33 0008 FF       		.byte	-1
  34 0009 00       		.byte	0
  35 000a 00       		.byte	0
  36 000b 01       		.byte	1
  37 000c 00       		.byte	0
  38 000d 01       		.byte	1
  39 000e FF       		.byte	-1
  40 000f 00       		.byte	0
  41              		.comm	enc_val,1,1
  42              		.comm	pidspeed,1,1
  43              		.comm	op,1,1
  44              		.global	interruptCount
  45              		.bss
  46              		.align	2
  47              		.type	interruptCount, %object
  48              		.size	interruptCount, 4
  49              	interruptCount:
  50 0000 00000000 		.space	4
  51              		.comm	encoderCount,4,4
  52              		.comm	pastEncoderCount,4,4
  53              		.comm	speedRPS,4,4
  54              		.comm	speedRPM,4,4
  55              		.global	ADCResult
  56              		.align	1
  57              		.type	ADCResult, %object
ARM GAS  C:\Users\Sam\AppData\Local\Temp\ccxikYff.s 			page 2


  58              		.size	ADCResult, 2
  59              	ADCResult:
  60 0004 0000     		.space	2
  61              		.global	ADCVoltage
  62 0006 0000     		.align	2
  63              		.type	ADCVoltage, %object
  64              		.size	ADCVoltage, 4
  65              	ADCVoltage:
  66 0008 00000000 		.space	4
  67              		.global	__aeabi_i2f
  68              		.global	__aeabi_fmul
  69              		.global	__aeabi_f2iz
  70              		.section	.text.main,"ax",%progbits
  71              		.align	2
  72              		.global	main
  73              		.code	16
  74              		.thumb_func
  75              		.type	main, %function
  76              	main:
  77              	.LFB33:
  78              		.file 1 ".\\main.c"
   1:.\main.c      **** /* ========================================
   2:.\main.c      ****  *
   3:.\main.c      ****  * Copyright Sam Walsh, 2015
   4:.\main.c      ****  * All Rights Reserved.
   5:.\main.c      ****  *
   6:.\main.c      ****  * main.c
   7:.\main.c      ****  *
   8:.\main.c      ****  * ========================================
   9:.\main.c      **** */
  10:.\main.c      **** #include <project.h>
  11:.\main.c      **** #include <interrupts.h>
  12:.\main.c      **** #include <modbus.h>
  13:.\main.c      **** #include <stdio.h>
  14:.\main.c      **** #include <stdbool.h>
  15:.\main.c      **** #include <stdlib.h>
  16:.\main.c      **** #include <math.h>
  17:.\main.c      **** 
  18:.\main.c      **** #define  forever    1
  19:.\main.c      **** #define  forwards   1
  20:.\main.c      **** #define  backwards  0
  21:.\main.c      **** 
  22:.\main.c      **** /* Function Prototypes */
  23:.\main.c      **** void updateEncoder(void);
  24:.\main.c      **** void updateModbusPackets(void);
  25:.\main.c      **** float calculateSpeed(void);
  26:.\main.c      **** int calculatePID(float, float);
  27:.\main.c      **** void scaleModbusPIDConstants(void);
  28:.\main.c      **** 
  29:.\main.c      **** /* Modbus Variables */
  30:.\main.c      **** extern unsigned int  holdingReg[50];
  31:.\main.c      **** extern unsigned char coils[50];
  32:.\main.c      **** extern unsigned char received[125];
  33:.\main.c      **** extern unsigned char response[125]; //Enough to return all holding-r's
  34:.\main.c      **** extern uint8 modbusMessage;
  35:.\main.c      **** 
  36:.\main.c      **** /* Typedef modbus packet */
ARM GAS  C:\Users\Sam\AppData\Local\Temp\ccxikYff.s 			page 3


  37:.\main.c      **** struct ModbusData {
  38:.\main.c      ****    int encoderCount;
  39:.\main.c      ****    int16 encoderHigh, encoderLow;
  40:.\main.c      ****    int16 speedRPSScaler;
  41:.\main.c      ****    int16 speedRPS;
  42:.\main.c      ****    int16 speedRPM;
  43:.\main.c      ****    uint16 motorCurrentScaler;
  44:.\main.c      ****    int16 motorCurrent;
  45:.\main.c      ****    uint16 PIDScaler;
  46:.\main.c      ****    float Kp,Ki,Kd; 
  47:.\main.c      ****    int16 setpointSpeedRPM;
  48:.\main.c      **** };
  49:.\main.c      **** struct ModbusData mb;
  50:.\main.c      **** 
  51:.\main.c      **** /* Encoder Variables */
  52:.\main.c      **** extern volatile uint8 encoderInterruptFlag, speedInterruptFlag;
  53:.\main.c      **** uint8 encA,encB; 
  54:.\main.c      **** static int8 lookup[] = {0,-1,1,0,1,0,0,-1,-1,0,0,1,0,1,-1,0}; //used for encoder values 
  55:.\main.c      **** uint8 enc_val,pidspeed; //to store the bit values of the encoders
  56:.\main.c      **** int8  op;
  57:.\main.c      **** int   interruptCount = 0;
  58:.\main.c      **** int   encoderCount,pastEncoderCount;
  59:.\main.c      **** float speedRPS,speedRPM;
  60:.\main.c      **** uint16 ADCResult = 0;
  61:.\main.c      **** float  ADCVoltage = 0;
  62:.\main.c      **** 
  63:.\main.c      **** /* Main loop */
  64:.\main.c      **** int main()
  65:.\main.c      **** {   
  79              		.loc 1 65 0
  80              		.cfi_startproc
  81 0000 98B5     		push	{r3, r4, r7, lr}
  82              		.cfi_def_cfa_offset 16
  83              		.cfi_offset 3, -16
  84              		.cfi_offset 4, -12
  85              		.cfi_offset 7, -8
  86              		.cfi_offset 14, -4
  87 0002 00AF     		add	r7, sp, #0
  88              		.cfi_def_cfa_register 7
  66:.\main.c      ****     /*Clear received array */
  67:.\main.c      ****     memset(&received[0], 0, sizeof(received));
  89              		.loc 1 67 0
  90 0004 694B     		ldr	r3, .L8
  91 0006 181C     		mov	r0, r3
  92 0008 0021     		mov	r1, #0
  93 000a 7D22     		mov	r2, #125
  94 000c FFF7FEFF 		bl	memset
  68:.\main.c      ****        
  69:.\main.c      ****     /* Start the SCB UART, Timer and its interrupt */
  70:.\main.c      ****     ModbusUART_Start();
  95              		.loc 1 70 0
  96 0010 FFF7FEFF 		bl	ModbusUART_Start
  71:.\main.c      ****     MessageReceived_StartEx(messageReceived_isr);  
  97              		.loc 1 71 0
  98 0014 664B     		ldr	r3, .L8+4
  99 0016 181C     		mov	r0, r3
 100 0018 FFF7FEFF 		bl	MessageReceived_StartEx
ARM GAS  C:\Users\Sam\AppData\Local\Temp\ccxikYff.s 			page 4


  72:.\main.c      ****     writeEnable_Write(0); // receive mode
 101              		.loc 1 72 0
 102 001c 0020     		mov	r0, #0
 103 001e FFF7FEFF 		bl	writeEnable_Write
  73:.\main.c      ****     
  74:.\main.c      ****     /* Start the encoder interrupt */
  75:.\main.c      ****     EncoderInterrupt_StartEx(encoder_isr);
 104              		.loc 1 75 0
 105 0022 644B     		ldr	r3, .L8+8
 106 0024 181C     		mov	r0, r3
 107 0026 FFF7FEFF 		bl	EncoderInterrupt_StartEx
  76:.\main.c      ****     SpeedInterrupt_StartEx(speed_isr);
 108              		.loc 1 76 0
 109 002a 634B     		ldr	r3, .L8+12
 110 002c 181C     		mov	r0, r3
 111 002e FFF7FEFF 		bl	SpeedInterrupt_StartEx
  77:.\main.c      ****     SpeedTimer_Start();
 112              		.loc 1 77 0
 113 0032 FFF7FEFF 		bl	SpeedTimer_Start
  78:.\main.c      ****     MotorPWM_Start();
 114              		.loc 1 78 0
 115 0036 FFF7FEFF 		bl	MotorPWM_Start
  79:.\main.c      ****     MotorPWM_WritePeriod(255);
 116              		.loc 1 79 0
 117 003a FF20     		mov	r0, #255
 118 003c FFF7FEFF 		bl	MotorPWM_WritePeriod
  80:.\main.c      ****     MotorCurrentADC_Start();
 119              		.loc 1 80 0
 120 0040 FFF7FEFF 		bl	MotorCurrentADC_Start
  81:.\main.c      ****     MotorCurrentADC_StartConvert();
 121              		.loc 1 81 0
 122 0044 FFF7FEFF 		bl	MotorCurrentADC_StartConvert
  82:.\main.c      ****     MotorCurrentADC_IsEndConversion(MotorCurrentADC_WAIT_FOR_RESULT);
 123              		.loc 1 82 0
 124 0048 0220     		mov	r0, #2
 125 004a FFF7FEFF 		bl	MotorCurrentADC_IsEndConversion
  83:.\main.c      ****     
  84:.\main.c      ****     CyGlobalIntEnable; /* comment this line to disable global interrupts. */
 126              		.loc 1 84 0
 127              	@ 84 ".\main.c" 1
 128 004e 62B6     		CPSIE   i
 129              	@ 0 "" 2
  85:.\main.c      ****     
  86:.\main.c      ****     /* Setup Scaling factors for Modbus */ 
  87:.\main.c      ****     mb.speedRPSScaler = 1000;
 130              		.loc 1 87 0
 131              		.code	16
 132 0050 5A4B     		ldr	r3, .L8+16
 133 0052 FA22     		mov	r2, #250
 134 0054 9200     		lsl	r2, r2, #2
 135 0056 1A81     		strh	r2, [r3, #8]
  88:.\main.c      ****     mb.motorCurrentScaler = 100;
 136              		.loc 1 88 0
 137 0058 584B     		ldr	r3, .L8+16
 138 005a 6422     		mov	r2, #100
 139 005c DA81     		strh	r2, [r3, #14]
  89:.\main.c      ****     mb.PIDScaler = 1000;
ARM GAS  C:\Users\Sam\AppData\Local\Temp\ccxikYff.s 			page 5


 140              		.loc 1 89 0
 141 005e 574B     		ldr	r3, .L8+16
 142 0060 FA22     		mov	r2, #250
 143 0062 9200     		lsl	r2, r2, #2
 144 0064 5A82     		strh	r2, [r3, #18]
  90:.\main.c      ****     scaleModbusPIDConstants();
 145              		.loc 1 90 0
 146 0066 FFF7FEFF 		bl	scaleModbusPIDConstants
 147              	.L7:
  91:.\main.c      ****     
  92:.\main.c      ****     while(forever)
  93:.\main.c      ****     {       
  94:.\main.c      ****         if(modbusMessage)
 148              		.loc 1 94 0
 149 006a 554B     		ldr	r3, .L8+20
 150 006c 1B78     		ldrb	r3, [r3]
 151 006e 002B     		cmp	r3, #0
 152 0070 01D0     		beq	.L2
  95:.\main.c      ****         {
  96:.\main.c      ****           processMessage();
 153              		.loc 1 96 0
 154 0072 FFF7FEFF 		bl	processMessage
 155              	.L2:
  97:.\main.c      ****         }
  98:.\main.c      ****         
  99:.\main.c      ****         if(encoderInterruptFlag)
 156              		.loc 1 99 0
 157 0076 534B     		ldr	r3, .L8+24
 158 0078 1B78     		ldrb	r3, [r3]
 159 007a DBB2     		uxtb	r3, r3
 160 007c 002B     		cmp	r3, #0
 161 007e 04D0     		beq	.L3
 100:.\main.c      ****         {
 101:.\main.c      ****             updateEncoder(); 
 162              		.loc 1 101 0
 163 0080 FFF7FEFF 		bl	updateEncoder
 102:.\main.c      ****             encoderInterruptFlag = 0;
 164              		.loc 1 102 0
 165 0084 4F4B     		ldr	r3, .L8+24
 166 0086 0022     		mov	r2, #0
 167 0088 1A70     		strb	r2, [r3]
 168              	.L3:
 103:.\main.c      ****         } 
 104:.\main.c      ****         
 105:.\main.c      ****         if(speedInterruptFlag)
 169              		.loc 1 105 0
 170 008a 4F4B     		ldr	r3, .L8+28
 171 008c 1B78     		ldrb	r3, [r3]
 172 008e DBB2     		uxtb	r3, r3
 173 0090 002B     		cmp	r3, #0
 174 0092 61D0     		beq	.L4
 106:.\main.c      ****         {          
 107:.\main.c      ****             speedRPS = calculateSpeed();
 175              		.loc 1 107 0
 176 0094 FFF7FEFF 		bl	calculateSpeed
 177 0098 021C     		add	r2, r0, #0
 178 009a 4C4B     		ldr	r3, .L8+32
ARM GAS  C:\Users\Sam\AppData\Local\Temp\ccxikYff.s 			page 6


 179 009c 1A60     		str	r2, [r3]
 108:.\main.c      ****             mb.speedRPS = speedRPS * mb.speedRPSScaler;
 180              		.loc 1 108 0
 181 009e 474B     		ldr	r3, .L8+16
 182 00a0 1B89     		ldrh	r3, [r3, #8]
 183 00a2 1BB2     		sxth	r3, r3
 184 00a4 181C     		mov	r0, r3
 185 00a6 FFF7FEFF 		bl	__aeabi_i2f
 186 00aa 021C     		add	r2, r0, #0
 187 00ac 474B     		ldr	r3, .L8+32
 188 00ae 1B68     		ldr	r3, [r3]
 189 00b0 101C     		add	r0, r2, #0
 190 00b2 191C     		add	r1, r3, #0
 191 00b4 FFF7FEFF 		bl	__aeabi_fmul
 192 00b8 031C     		add	r3, r0, #0
 193 00ba 181C     		add	r0, r3, #0
 194 00bc FFF7FEFF 		bl	__aeabi_f2iz
 195 00c0 031C     		mov	r3, r0
 196 00c2 9AB2     		uxth	r2, r3
 197 00c4 3D4B     		ldr	r3, .L8+16
 198 00c6 5A81     		strh	r2, [r3, #10]
 109:.\main.c      ****             mb.speedRPM = speedRPS * 60;              
 199              		.loc 1 109 0
 200 00c8 404B     		ldr	r3, .L8+32
 201 00ca 1B68     		ldr	r3, [r3]
 202 00cc 181C     		add	r0, r3, #0
 203 00ce 4049     		ldr	r1, .L8+36
 204 00d0 FFF7FEFF 		bl	__aeabi_fmul
 205 00d4 031C     		add	r3, r0, #0
 206 00d6 181C     		add	r0, r3, #0
 207 00d8 FFF7FEFF 		bl	__aeabi_f2iz
 208 00dc 031C     		mov	r3, r0
 209 00de 9AB2     		uxth	r2, r3
 210 00e0 364B     		ldr	r3, .L8+16
 211 00e2 9A81     		strh	r2, [r3, #12]
 110:.\main.c      ****             speedInterruptFlag = 0;
 212              		.loc 1 110 0
 213 00e4 384B     		ldr	r3, .L8+28
 214 00e6 0022     		mov	r2, #0
 215 00e8 1A70     		strb	r2, [r3]
 111:.\main.c      ****             
 112:.\main.c      ****             //everything after this point is pid additions 18/02/15
 113:.\main.c      ****             mb.setpointSpeedRPM = holdingReg[12];
 216              		.loc 1 113 0
 217 00ea 3A4B     		ldr	r3, .L8+40
 218 00ec 1B6B     		ldr	r3, [r3, #48]
 219 00ee 9AB2     		uxth	r2, r3
 220 00f0 324B     		ldr	r3, .L8+16
 221 00f2 1A84     		strh	r2, [r3, #32]
 114:.\main.c      ****             pidspeed = calculatePID(abs(mb.speedRPM),abs(mb.setpointSpeedRPM));
 222              		.loc 1 114 0
 223 00f4 314B     		ldr	r3, .L8+16
 224 00f6 9B89     		ldrh	r3, [r3, #12]
 225 00f8 1BB2     		sxth	r3, r3
 226 00fa DA17     		asr	r2, r3, #31
 227 00fc 9B18     		add	r3, r3, r2
 228 00fe 5340     		eor	r3, r2
ARM GAS  C:\Users\Sam\AppData\Local\Temp\ccxikYff.s 			page 7


 229 0100 181C     		mov	r0, r3
 230 0102 FFF7FEFF 		bl	__aeabi_i2f
 231 0106 041C     		add	r4, r0, #0
 232 0108 2C4B     		ldr	r3, .L8+16
 233 010a 1B8C     		ldrh	r3, [r3, #32]
 234 010c 1BB2     		sxth	r3, r3
 235 010e DA17     		asr	r2, r3, #31
 236 0110 9B18     		add	r3, r3, r2
 237 0112 5340     		eor	r3, r2
 238 0114 181C     		mov	r0, r3
 239 0116 FFF7FEFF 		bl	__aeabi_i2f
 240 011a 031C     		add	r3, r0, #0
 241 011c 201C     		add	r0, r4, #0
 242 011e 191C     		add	r1, r3, #0
 243 0120 FFF7FEFF 		bl	calculatePID
 244 0124 031C     		mov	r3, r0
 245 0126 DAB2     		uxtb	r2, r3
 246 0128 2B4B     		ldr	r3, .L8+44
 247 012a 1A70     		strb	r2, [r3]
 115:.\main.c      ****             holdingReg[13] = pidspeed;
 248              		.loc 1 115 0
 249 012c 2A4B     		ldr	r3, .L8+44
 250 012e 1B78     		ldrb	r3, [r3]
 251 0130 1A1C     		mov	r2, r3
 252 0132 284B     		ldr	r3, .L8+40
 253 0134 5A63     		str	r2, [r3, #52]
 116:.\main.c      ****             //check direction
 117:.\main.c      ****             if(mb.setpointSpeedRPM > 0){Direction_Write(forwards);}
 254              		.loc 1 117 0
 255 0136 214B     		ldr	r3, .L8+16
 256 0138 1B8C     		ldrh	r3, [r3, #32]
 257 013a 1BB2     		sxth	r3, r3
 258 013c 002B     		cmp	r3, #0
 259 013e 03DD     		ble	.L5
 260              		.loc 1 117 0 is_stmt 0 discriminator 1
 261 0140 0120     		mov	r0, #1
 262 0142 FFF7FEFF 		bl	Direction_Write
 263 0146 02E0     		b	.L6
 264              	.L5:
 118:.\main.c      ****             else{Direction_Write(backwards);}
 265              		.loc 1 118 0 is_stmt 1
 266 0148 0020     		mov	r0, #0
 267 014a FFF7FEFF 		bl	Direction_Write
 268              	.L6:
 119:.\main.c      ****             
 120:.\main.c      ****             MotorPWM_WriteCompare(pidspeed);    
 269              		.loc 1 120 0
 270 014e 224B     		ldr	r3, .L8+44
 271 0150 1B78     		ldrb	r3, [r3]
 272 0152 181C     		mov	r0, r3
 273 0154 FFF7FEFF 		bl	MotorPWM_WriteCompare
 274              	.L4:
 121:.\main.c      ****         }
 122:.\main.c      ****         
 123:.\main.c      ****         ADCResult  = MotorCurrentADC_GetResult16(0);
 275              		.loc 1 123 0
 276 0158 0020     		mov	r0, #0
ARM GAS  C:\Users\Sam\AppData\Local\Temp\ccxikYff.s 			page 8


 277 015a FFF7FEFF 		bl	MotorCurrentADC_GetResult16
 278 015e 031C     		mov	r3, r0
 279 0160 9AB2     		uxth	r2, r3
 280 0162 1E4B     		ldr	r3, .L8+48
 281 0164 1A80     		strh	r2, [r3]
 124:.\main.c      ****         ADCVoltage = MotorCurrentADC_CountsTo_Volts(0, ADCResult);
 282              		.loc 1 124 0
 283 0166 1D4B     		ldr	r3, .L8+48
 284 0168 1B88     		ldrh	r3, [r3]
 285 016a 9BB2     		uxth	r3, r3
 286 016c 1BB2     		sxth	r3, r3
 287 016e 0020     		mov	r0, #0
 288 0170 191C     		mov	r1, r3
 289 0172 FFF7FEFF 		bl	MotorCurrentADC_CountsTo_Volts
 290 0176 021C     		add	r2, r0, #0
 291 0178 194B     		ldr	r3, .L8+52
 292 017a 1A60     		str	r2, [r3]
 125:.\main.c      ****         mb.motorCurrent = ADCVoltage * mb.motorCurrentScaler;
 293              		.loc 1 125 0
 294 017c 0F4B     		ldr	r3, .L8+16
 295 017e DB89     		ldrh	r3, [r3, #14]
 296 0180 181C     		mov	r0, r3
 297 0182 FFF7FEFF 		bl	__aeabi_i2f
 298 0186 021C     		add	r2, r0, #0
 299 0188 154B     		ldr	r3, .L8+52
 300 018a 1B68     		ldr	r3, [r3]
 301 018c 101C     		add	r0, r2, #0
 302 018e 191C     		add	r1, r3, #0
 303 0190 FFF7FEFF 		bl	__aeabi_fmul
 304 0194 031C     		add	r3, r0, #0
 305 0196 181C     		add	r0, r3, #0
 306 0198 FFF7FEFF 		bl	__aeabi_f2iz
 307 019c 031C     		mov	r3, r0
 308 019e 9AB2     		uxth	r2, r3
 309 01a0 064B     		ldr	r3, .L8+16
 310 01a2 1A82     		strh	r2, [r3, #16]
 126:.\main.c      ****          
 127:.\main.c      ****         updateModbusPackets();  
 311              		.loc 1 127 0
 312 01a4 FFF7FEFF 		bl	updateModbusPackets
 128:.\main.c      ****     }
 313              		.loc 1 128 0
 314 01a8 5FE7     		b	.L7
 315              	.L9:
 316 01aa C046     		.align	2
 317              	.L8:
 318 01ac 00000000 		.word	received
 319 01b0 00000000 		.word	messageReceived_isr
 320 01b4 00000000 		.word	encoder_isr
 321 01b8 00000000 		.word	speed_isr
 322 01bc 00000000 		.word	mb
 323 01c0 00000000 		.word	modbusMessage
 324 01c4 00000000 		.word	encoderInterruptFlag
 325 01c8 00000000 		.word	speedInterruptFlag
 326 01cc 00000000 		.word	speedRPS
 327 01d0 00007042 		.word	1114636288
 328 01d4 00000000 		.word	holdingReg
ARM GAS  C:\Users\Sam\AppData\Local\Temp\ccxikYff.s 			page 9


 329 01d8 00000000 		.word	pidspeed
 330 01dc 00000000 		.word	ADCResult
 331 01e0 00000000 		.word	ADCVoltage
 332              		.cfi_endproc
 333              	.LFE33:
 334              		.size	main, .-main
 335              		.section	.text.updateEncoder,"ax",%progbits
 336              		.align	2
 337              		.global	updateEncoder
 338              		.code	16
 339              		.thumb_func
 340              		.type	updateEncoder, %function
 341              	updateEncoder:
 342              	.LFB34:
 129:.\main.c      **** }
 130:.\main.c      **** 
 131:.\main.c      **** void updateEncoder(void)
 132:.\main.c      **** {
 343              		.loc 1 132 0
 344              		.cfi_startproc
 345 0000 80B5     		push	{r7, lr}
 346              		.cfi_def_cfa_offset 8
 347              		.cfi_offset 7, -8
 348              		.cfi_offset 14, -4
 349 0002 00AF     		add	r7, sp, #0
 350              		.cfi_def_cfa_register 7
 133:.\main.c      ****     enc_val  = enc_val << 2;            //store last 2 values 
 351              		.loc 1 133 0
 352 0004 304B     		ldr	r3, .L11
 353 0006 1B78     		ldrb	r3, [r3]
 354 0008 9B00     		lsl	r3, r3, #2
 355 000a DAB2     		uxtb	r2, r3
 356 000c 2E4B     		ldr	r3, .L11
 357 000e 1A70     		strb	r2, [r3]
 134:.\main.c      ****     enc_val &= 0x0F;
 358              		.loc 1 134 0
 359 0010 2D4B     		ldr	r3, .L11
 360 0012 1A78     		ldrb	r2, [r3]
 361 0014 0F23     		mov	r3, #15
 362 0016 1340     		and	r3, r2
 363 0018 DAB2     		uxtb	r2, r3
 364 001a 2B4B     		ldr	r3, .L11
 365 001c 1A70     		strb	r2, [r3]
 135:.\main.c      ****     encA     = ChannelA_Read();
 366              		.loc 1 135 0
 367 001e FFF7FEFF 		bl	ChannelA_Read
 368 0022 031C     		mov	r3, r0
 369 0024 1A1C     		mov	r2, r3
 370 0026 294B     		ldr	r3, .L11+4
 371 0028 1A70     		strb	r2, [r3]
 136:.\main.c      ****     encB     = ChannelB_Read();
 372              		.loc 1 136 0
 373 002a FFF7FEFF 		bl	ChannelB_Read
 374 002e 031C     		mov	r3, r0
 375 0030 1A1C     		mov	r2, r3
 376 0032 274B     		ldr	r3, .L11+8
 377 0034 1A70     		strb	r2, [r3]
ARM GAS  C:\Users\Sam\AppData\Local\Temp\ccxikYff.s 			page 10


 137:.\main.c      ****     encA    &= 0x01; 
 378              		.loc 1 137 0
 379 0036 254B     		ldr	r3, .L11+4
 380 0038 1A78     		ldrb	r2, [r3]
 381 003a 0123     		mov	r3, #1
 382 003c 1340     		and	r3, r2
 383 003e DAB2     		uxtb	r2, r3
 384 0040 224B     		ldr	r3, .L11+4
 385 0042 1A70     		strb	r2, [r3]
 138:.\main.c      ****     encB    &= 0x01;                    //mask off everything except bit 1;
 386              		.loc 1 138 0
 387 0044 224B     		ldr	r3, .L11+8
 388 0046 1A78     		ldrb	r2, [r3]
 389 0048 0123     		mov	r3, #1
 390 004a 1340     		and	r3, r2
 391 004c DAB2     		uxtb	r2, r3
 392 004e 204B     		ldr	r3, .L11+8
 393 0050 1A70     		strb	r2, [r3]
 139:.\main.c      ****     enc_val |= ((encA << 1) | encB);    //shift A, merge with B then merge both with past values
 394              		.loc 1 139 0
 395 0052 1E4B     		ldr	r3, .L11+4
 396 0054 1B78     		ldrb	r3, [r3]
 397 0056 5B00     		lsl	r3, r3, #1
 398 0058 DAB2     		uxtb	r2, r3
 399 005a 1D4B     		ldr	r3, .L11+8
 400 005c 1B78     		ldrb	r3, [r3]
 401 005e DBB2     		uxtb	r3, r3
 402 0060 1343     		orr	r3, r2
 403 0062 DAB2     		uxtb	r2, r3
 404 0064 184B     		ldr	r3, .L11
 405 0066 1B78     		ldrb	r3, [r3]
 406 0068 DBB2     		uxtb	r3, r3
 407 006a 1343     		orr	r3, r2
 408 006c DBB2     		uxtb	r3, r3
 409 006e DAB2     		uxtb	r2, r3
 410 0070 154B     		ldr	r3, .L11
 411 0072 1A70     		strb	r2, [r3]
 140:.\main.c      ****     op = lookup[enc_val];
 412              		.loc 1 140 0
 413 0074 144B     		ldr	r3, .L11
 414 0076 1B78     		ldrb	r3, [r3]
 415 0078 164A     		ldr	r2, .L11+12
 416 007a D25C     		ldrb	r2, [r2, r3]
 417 007c 164B     		ldr	r3, .L11+16
 418 007e 1A70     		strb	r2, [r3]
 141:.\main.c      ****     mb.encoderCount += op;              //store count in 32 bit value
 419              		.loc 1 141 0
 420 0080 164B     		ldr	r3, .L11+20
 421 0082 1A68     		ldr	r2, [r3]
 422 0084 144B     		ldr	r3, .L11+16
 423 0086 1B78     		ldrb	r3, [r3]
 424 0088 5BB2     		sxtb	r3, r3
 425 008a D218     		add	r2, r2, r3
 426 008c 134B     		ldr	r3, .L11+20
 427 008e 1A60     		str	r2, [r3]
 142:.\main.c      ****     mb.encoderLow = mb.encoderCount & 0xffff; //store in 2 bytes for modbus
 428              		.loc 1 142 0
ARM GAS  C:\Users\Sam\AppData\Local\Temp\ccxikYff.s 			page 11


 429 0090 124B     		ldr	r3, .L11+20
 430 0092 1B68     		ldr	r3, [r3]
 431 0094 9AB2     		uxth	r2, r3
 432 0096 114B     		ldr	r3, .L11+20
 433 0098 DA80     		strh	r2, [r3, #6]
 143:.\main.c      ****     mb.encoderHigh = (mb.encoderCount >> 16) & 0xffff; 
 434              		.loc 1 143 0
 435 009a 104B     		ldr	r3, .L11+20
 436 009c 1B68     		ldr	r3, [r3]
 437 009e 1B0C     		lsr	r3, r3, #16
 438 00a0 9AB2     		uxth	r2, r3
 439 00a2 0E4B     		ldr	r3, .L11+20
 440 00a4 9A80     		strh	r2, [r3, #4]
 144:.\main.c      ****     //This bit is just for debugging to make sure the bytes go back into a 32 bit value
 145:.\main.c      ****     encoderCount = 0;
 441              		.loc 1 145 0
 442 00a6 0E4B     		ldr	r3, .L11+24
 443 00a8 0022     		mov	r2, #0
 444 00aa 1A60     		str	r2, [r3]
 146:.\main.c      ****     encoderCount |= mb.encoderLow;
 445              		.loc 1 146 0
 446 00ac 0B4B     		ldr	r3, .L11+20
 447 00ae DB88     		ldrh	r3, [r3, #6]
 448 00b0 1AB2     		sxth	r2, r3
 449 00b2 0B4B     		ldr	r3, .L11+24
 450 00b4 1B68     		ldr	r3, [r3]
 451 00b6 1A43     		orr	r2, r3
 452 00b8 094B     		ldr	r3, .L11+24
 453 00ba 1A60     		str	r2, [r3]
 147:.\main.c      ****     encoderCount |= ((mb.encoderCount << 16) & 0xff);
 454              		.loc 1 147 0
 455 00bc 084B     		ldr	r3, .L11+24
 456 00be 1A68     		ldr	r2, [r3]
 457 00c0 074B     		ldr	r3, .L11+24
 458 00c2 1A60     		str	r2, [r3]
 148:.\main.c      ****     
 149:.\main.c      **** }
 459              		.loc 1 149 0
 460 00c4 BD46     		mov	sp, r7
 461              		@ sp needed
 462 00c6 80BD     		pop	{r7, pc}
 463              	.L12:
 464              		.align	2
 465              	.L11:
 466 00c8 00000000 		.word	enc_val
 467 00cc 00000000 		.word	encA
 468 00d0 00000000 		.word	encB
 469 00d4 00000000 		.word	lookup
 470 00d8 00000000 		.word	op
 471 00dc 00000000 		.word	mb
 472 00e0 00000000 		.word	encoderCount
 473              		.cfi_endproc
 474              	.LFE34:
 475              		.size	updateEncoder, .-updateEncoder
 476              		.global	__aeabi_ui2f
 477              		.global	__aeabi_fdiv
 478              		.global	__aeabi_i2d
ARM GAS  C:\Users\Sam\AppData\Local\Temp\ccxikYff.s 			page 12


 479              		.global	__aeabi_ddiv
 480              		.global	__aeabi_f2d
 481              		.global	__aeabi_d2f
 482              		.section	.text.calculateSpeed,"ax",%progbits
 483              		.align	2
 484              		.global	calculateSpeed
 485              		.code	16
 486              		.thumb_func
 487              		.type	calculateSpeed, %function
 488              	calculateSpeed:
 489              	.LFB35:
 150:.\main.c      **** 
 151:.\main.c      **** float calculateSpeed(void)
 152:.\main.c      **** {
 490              		.loc 1 152 0
 491              		.cfi_startproc
 492 0000 F0B5     		push	{r4, r5, r6, r7, lr}
 493              		.cfi_def_cfa_offset 20
 494              		.cfi_offset 4, -20
 495              		.cfi_offset 5, -16
 496              		.cfi_offset 6, -12
 497              		.cfi_offset 7, -8
 498              		.cfi_offset 14, -4
 499 0002 85B0     		sub	sp, sp, #20
 500              		.cfi_def_cfa_offset 40
 501 0004 00AF     		add	r7, sp, #0
 502              		.cfi_def_cfa_register 7
 153:.\main.c      ****     //Velocity(RPS) = ((current count/pulses per revolution))/Time interval
 154:.\main.c      ****     int counts;
 155:.\main.c      ****     float speed, timePeriod; //used for doing the calcs
 156:.\main.c      ****     counts = mb.encoderCount - pastEncoderCount;
 503              		.loc 1 156 0
 504 0006 224B     		ldr	r3, .L15+8
 505 0008 1A68     		ldr	r2, [r3]
 506 000a 224B     		ldr	r3, .L15+12
 507 000c 1B68     		ldr	r3, [r3]
 508 000e D31A     		sub	r3, r2, r3
 509 0010 FB60     		str	r3, [r7, #12]
 157:.\main.c      ****     timePeriod = (float)SpeedTimer_ReadPeriod()/1000.0; //(1KHz clock)
 510              		.loc 1 157 0
 511 0012 FFF7FEFF 		bl	SpeedTimer_ReadPeriod
 512 0016 031C     		mov	r3, r0
 513 0018 181C     		mov	r0, r3
 514 001a FFF7FEFF 		bl	__aeabi_ui2f
 515 001e 031C     		add	r3, r0, #0
 516 0020 181C     		add	r0, r3, #0
 517 0022 1D49     		ldr	r1, .L15+16
 518 0024 FFF7FEFF 		bl	__aeabi_fdiv
 519 0028 031C     		add	r3, r0, #0
 520 002a BB60     		str	r3, [r7, #8]
 158:.\main.c      ****     speed = (counts/333.33)/timePeriod;
 521              		.loc 1 158 0
 522 002c F868     		ldr	r0, [r7, #12]
 523 002e FFF7FEFF 		bl	__aeabi_i2d
 524 0032 031C     		mov	r3, r0
 525 0034 0C1C     		mov	r4, r1
 526 0036 181C     		mov	r0, r3
ARM GAS  C:\Users\Sam\AppData\Local\Temp\ccxikYff.s 			page 13


 527 0038 211C     		mov	r1, r4
 528 003a 144B     		ldr	r3, .L15+4
 529 003c 124A     		ldr	r2, .L15
 530 003e FFF7FEFF 		bl	__aeabi_ddiv
 531 0042 031C     		mov	r3, r0
 532 0044 0C1C     		mov	r4, r1
 533 0046 1D1C     		mov	r5, r3
 534 0048 261C     		mov	r6, r4
 535 004a B868     		ldr	r0, [r7, #8]
 536 004c FFF7FEFF 		bl	__aeabi_f2d
 537 0050 031C     		mov	r3, r0
 538 0052 0C1C     		mov	r4, r1
 539 0054 281C     		mov	r0, r5
 540 0056 311C     		mov	r1, r6
 541 0058 1A1C     		mov	r2, r3
 542 005a 231C     		mov	r3, r4
 543 005c FFF7FEFF 		bl	__aeabi_ddiv
 544 0060 031C     		mov	r3, r0
 545 0062 0C1C     		mov	r4, r1
 546 0064 181C     		mov	r0, r3
 547 0066 211C     		mov	r1, r4
 548 0068 FFF7FEFF 		bl	__aeabi_d2f
 549 006c 031C     		add	r3, r0, #0
 550 006e 7B60     		str	r3, [r7, #4]
 159:.\main.c      ****     pastEncoderCount = mb.encoderCount; //used for speed calculation
 551              		.loc 1 159 0
 552 0070 074B     		ldr	r3, .L15+8
 553 0072 1A68     		ldr	r2, [r3]
 554 0074 074B     		ldr	r3, .L15+12
 555 0076 1A60     		str	r2, [r3]
 160:.\main.c      ****     return speed;
 556              		.loc 1 160 0
 557 0078 7B68     		ldr	r3, [r7, #4]
 161:.\main.c      **** }
 558              		.loc 1 161 0
 559 007a 181C     		add	r0, r3, #0
 560 007c BD46     		mov	sp, r7
 561 007e 05B0     		add	sp, sp, #20
 562              		@ sp needed
 563 0080 F0BD     		pop	{r4, r5, r6, r7, pc}
 564              	.L16:
 565 0082 C046C046 		.align	3
 565      C046
 566              	.L15:
 567 0088 E17A14AE 		.word	-1374389535
 568 008c 47D57440 		.word	1081398599
 569 0090 00000000 		.word	mb
 570 0094 00000000 		.word	pastEncoderCount
 571 0098 00007A44 		.word	1148846080
 572              		.cfi_endproc
 573              	.LFE35:
 574              		.size	calculateSpeed, .-calculateSpeed
 575 009c C046C046 		.section	.text.scaleModbusPIDConstants,"ax",%progbits
 576              		.align	2
 577              		.global	scaleModbusPIDConstants
 578              		.code	16
 579              		.thumb_func
ARM GAS  C:\Users\Sam\AppData\Local\Temp\ccxikYff.s 			page 14


 580              		.type	scaleModbusPIDConstants, %function
 581              	scaleModbusPIDConstants:
 582              	.LFB36:
 162:.\main.c      **** 
 163:.\main.c      **** void scaleModbusPIDConstants(void)
 164:.\main.c      **** {
 583              		.loc 1 164 0
 584              		.cfi_startproc
 585 0000 80B5     		push	{r7, lr}
 586              		.cfi_def_cfa_offset 8
 587              		.cfi_offset 7, -8
 588              		.cfi_offset 14, -4
 589 0002 00AF     		add	r7, sp, #0
 590              		.cfi_def_cfa_register 7
 165:.\main.c      ****     //Need to actually read the holding registers and do the divide but for now lets
 166:.\main.c      ****     //leave this as just setting the values.
 167:.\main.c      ****     mb.Kp = 2;
 591              		.loc 1 167 0
 592 0004 054B     		ldr	r3, .L18
 593 0006 8022     		mov	r2, #128
 594 0008 D205     		lsl	r2, r2, #23
 595 000a 5A61     		str	r2, [r3, #20]
 168:.\main.c      ****     mb.Ki = 0;
 596              		.loc 1 168 0
 597 000c 034B     		ldr	r3, .L18
 598 000e 0022     		mov	r2, #0
 599 0010 9A61     		str	r2, [r3, #24]
 169:.\main.c      ****     mb.Kd = 0;
 600              		.loc 1 169 0
 601 0012 024B     		ldr	r3, .L18
 602 0014 0022     		mov	r2, #0
 603 0016 DA61     		str	r2, [r3, #28]
 170:.\main.c      **** }
 604              		.loc 1 170 0
 605 0018 BD46     		mov	sp, r7
 606              		@ sp needed
 607 001a 80BD     		pop	{r7, pc}
 608              	.L19:
 609              		.align	2
 610              	.L18:
 611 001c 00000000 		.word	mb
 612              		.cfi_endproc
 613              	.LFE36:
 614              		.size	scaleModbusPIDConstants, .-scaleModbusPIDConstants
 615              		.global	__aeabi_fsub
 616              		.global	__aeabi_fadd
 617              		.global	__aeabi_dmul
 618              		.section	.text.calculatePID,"ax",%progbits
 619              		.align	2
 620              		.global	calculatePID
 621              		.code	16
 622              		.thumb_func
 623              		.type	calculatePID, %function
 624              	calculatePID:
 625              	.LFB37:
 171:.\main.c      **** 
 172:.\main.c      **** int calculatePID(float currentValue, float setpoint)
ARM GAS  C:\Users\Sam\AppData\Local\Temp\ccxikYff.s 			page 15


 173:.\main.c      **** {
 626              		.loc 1 173 0
 627              		.cfi_startproc
 628 0000 90B5     		push	{r4, r7, lr}
 629              		.cfi_def_cfa_offset 12
 630              		.cfi_offset 4, -12
 631              		.cfi_offset 7, -8
 632              		.cfi_offset 14, -4
 633 0002 87B0     		sub	sp, sp, #28
 634              		.cfi_def_cfa_offset 40
 635 0004 00AF     		add	r7, sp, #0
 636              		.cfi_def_cfa_register 7
 637 0006 7860     		str	r0, [r7, #4]
 638 0008 3960     		str	r1, [r7]
 174:.\main.c      ****     static float integral   = 0;
 175:.\main.c      ****     static float derivative = 0;
 176:.\main.c      ****     static float lastError = 0;
 177:.\main.c      **** 
 178:.\main.c      ****     float error, fcontrol = 0.0;
 639              		.loc 1 178 0
 640 000a 0023     		mov	r3, #0
 641 000c 3B61     		str	r3, [r7, #16]
 179:.\main.c      ****     int   control = 0;
 642              		.loc 1 179 0
 643 000e 0023     		mov	r3, #0
 644 0010 7B61     		str	r3, [r7, #20]
 180:.\main.c      ****     
 181:.\main.c      ****     error = setpoint - currentValue;
 645              		.loc 1 181 0
 646 0012 3868     		ldr	r0, [r7]
 647 0014 7968     		ldr	r1, [r7, #4]
 648 0016 FFF7FEFF 		bl	__aeabi_fsub
 649 001a 031C     		add	r3, r0, #0
 650 001c FB60     		str	r3, [r7, #12]
 182:.\main.c      ****     integral = (integral + error);
 651              		.loc 1 182 0
 652 001e 344B     		ldr	r3, .L24+8
 653 0020 1B68     		ldr	r3, [r3]
 654 0022 181C     		add	r0, r3, #0
 655 0024 F968     		ldr	r1, [r7, #12]
 656 0026 FFF7FEFF 		bl	__aeabi_fadd
 657 002a 031C     		add	r3, r0, #0
 658 002c 1A1C     		add	r2, r3, #0
 659 002e 304B     		ldr	r3, .L24+8
 660 0030 1A60     		str	r2, [r3]
 183:.\main.c      ****     integral = 0.6 * integral; //damping integral 
 661              		.loc 1 183 0
 662 0032 2F4B     		ldr	r3, .L24+8
 663 0034 1B68     		ldr	r3, [r3]
 664 0036 181C     		add	r0, r3, #0
 665 0038 FFF7FEFF 		bl	__aeabi_f2d
 666 003c 031C     		mov	r3, r0
 667 003e 0C1C     		mov	r4, r1
 668 0040 181C     		mov	r0, r3
 669 0042 211C     		mov	r1, r4
 670 0044 294B     		ldr	r3, .L24+4
 671 0046 284A     		ldr	r2, .L24
ARM GAS  C:\Users\Sam\AppData\Local\Temp\ccxikYff.s 			page 16


 672 0048 FFF7FEFF 		bl	__aeabi_dmul
 673 004c 031C     		mov	r3, r0
 674 004e 0C1C     		mov	r4, r1
 675 0050 181C     		mov	r0, r3
 676 0052 211C     		mov	r1, r4
 677 0054 FFF7FEFF 		bl	__aeabi_d2f
 678 0058 021C     		add	r2, r0, #0
 679 005a 254B     		ldr	r3, .L24+8
 680 005c 1A60     		str	r2, [r3]
 184:.\main.c      **** 	derivative = (error - lastError);
 681              		.loc 1 184 0
 682 005e 254B     		ldr	r3, .L24+12
 683 0060 1B68     		ldr	r3, [r3]
 684 0062 F868     		ldr	r0, [r7, #12]
 685 0064 191C     		add	r1, r3, #0
 686 0066 FFF7FEFF 		bl	__aeabi_fsub
 687 006a 031C     		add	r3, r0, #0
 688 006c 1A1C     		add	r2, r3, #0
 689 006e 224B     		ldr	r3, .L24+16
 690 0070 1A60     		str	r2, [r3]
 185:.\main.c      **** 	fcontrol =  (mb.Kp * error); 
 691              		.loc 1 185 0
 692 0072 224B     		ldr	r3, .L24+20
 693 0074 5B69     		ldr	r3, [r3, #20]
 694 0076 181C     		add	r0, r3, #0
 695 0078 F968     		ldr	r1, [r7, #12]
 696 007a FFF7FEFF 		bl	__aeabi_fmul
 697 007e 031C     		add	r3, r0, #0
 698 0080 3B61     		str	r3, [r7, #16]
 186:.\main.c      **** 	fcontrol += (mb.Kd * derivative);
 699              		.loc 1 186 0
 700 0082 1E4B     		ldr	r3, .L24+20
 701 0084 DA69     		ldr	r2, [r3, #28]
 702 0086 1C4B     		ldr	r3, .L24+16
 703 0088 1B68     		ldr	r3, [r3]
 704 008a 101C     		add	r0, r2, #0
 705 008c 191C     		add	r1, r3, #0
 706 008e FFF7FEFF 		bl	__aeabi_fmul
 707 0092 031C     		add	r3, r0, #0
 708 0094 3869     		ldr	r0, [r7, #16]
 709 0096 191C     		add	r1, r3, #0
 710 0098 FFF7FEFF 		bl	__aeabi_fadd
 711 009c 031C     		add	r3, r0, #0
 712 009e 3B61     		str	r3, [r7, #16]
 187:.\main.c      **** 	fcontrol += (mb.Ki * integral);
 713              		.loc 1 187 0
 714 00a0 164B     		ldr	r3, .L24+20
 715 00a2 9A69     		ldr	r2, [r3, #24]
 716 00a4 124B     		ldr	r3, .L24+8
 717 00a6 1B68     		ldr	r3, [r3]
 718 00a8 101C     		add	r0, r2, #0
 719 00aa 191C     		add	r1, r3, #0
 720 00ac FFF7FEFF 		bl	__aeabi_fmul
 721 00b0 031C     		add	r3, r0, #0
 722 00b2 3869     		ldr	r0, [r7, #16]
 723 00b4 191C     		add	r1, r3, #0
 724 00b6 FFF7FEFF 		bl	__aeabi_fadd
ARM GAS  C:\Users\Sam\AppData\Local\Temp\ccxikYff.s 			page 17


 725 00ba 031C     		add	r3, r0, #0
 726 00bc 3B61     		str	r3, [r7, #16]
 188:.\main.c      ****     control = (int)fcontrol;
 727              		.loc 1 188 0
 728 00be 3869     		ldr	r0, [r7, #16]
 729 00c0 FFF7FEFF 		bl	__aeabi_f2iz
 730 00c4 031C     		mov	r3, r0
 731 00c6 7B61     		str	r3, [r7, #20]
 189:.\main.c      ****     if(control > 255)
 732              		.loc 1 189 0
 733 00c8 7B69     		ldr	r3, [r7, #20]
 734 00ca FF2B     		cmp	r3, #255
 735 00cc 02DD     		ble	.L21
 190:.\main.c      ****     {
 191:.\main.c      ****         control = 255;
 736              		.loc 1 191 0
 737 00ce FF23     		mov	r3, #255
 738 00d0 7B61     		str	r3, [r7, #20]
 739 00d2 04E0     		b	.L22
 740              	.L21:
 192:.\main.c      ****     }
 193:.\main.c      ****     else if (control < 0)
 741              		.loc 1 193 0
 742 00d4 7B69     		ldr	r3, [r7, #20]
 743 00d6 002B     		cmp	r3, #0
 744 00d8 01DA     		bge	.L22
 194:.\main.c      ****     {
 195:.\main.c      ****         control = 0;
 745              		.loc 1 195 0
 746 00da 0023     		mov	r3, #0
 747 00dc 7B61     		str	r3, [r7, #20]
 748              	.L22:
 196:.\main.c      ****     }
 197:.\main.c      ****     return control;   
 749              		.loc 1 197 0
 750 00de 7B69     		ldr	r3, [r7, #20]
 198:.\main.c      **** }
 751              		.loc 1 198 0
 752 00e0 181C     		mov	r0, r3
 753 00e2 BD46     		mov	sp, r7
 754 00e4 07B0     		add	sp, sp, #28
 755              		@ sp needed
 756 00e6 90BD     		pop	{r4, r7, pc}
 757              	.L25:
 758              		.align	3
 759              	.L24:
 760 00e8 33333333 		.word	858993459
 761 00ec 3333E33F 		.word	1071854387
 762 00f0 0C000000 		.word	integral.7287
 763 00f4 10000000 		.word	lastError.7289
 764 00f8 14000000 		.word	derivative.7288
 765 00fc 00000000 		.word	mb
 766              		.cfi_endproc
 767              	.LFE37:
 768              		.size	calculatePID, .-calculatePID
 769              		.section	.text.updateModbusPackets,"ax",%progbits
 770              		.align	2
ARM GAS  C:\Users\Sam\AppData\Local\Temp\ccxikYff.s 			page 18


 771              		.global	updateModbusPackets
 772              		.code	16
 773              		.thumb_func
 774              		.type	updateModbusPackets, %function
 775              	updateModbusPackets:
 776              	.LFB38:
 199:.\main.c      **** 
 200:.\main.c      **** 
 201:.\main.c      **** void updateModbusPackets(void)
 202:.\main.c      **** {
 777              		.loc 1 202 0
 778              		.cfi_startproc
 779 0000 80B5     		push	{r7, lr}
 780              		.cfi_def_cfa_offset 8
 781              		.cfi_offset 7, -8
 782              		.cfi_offset 14, -4
 783 0002 00AF     		add	r7, sp, #0
 784              		.cfi_def_cfa_register 7
 203:.\main.c      ****     holdingReg[0] = mb.encoderLow;
 785              		.loc 1 203 0
 786 0004 124B     		ldr	r3, .L27
 787 0006 DB88     		ldrh	r3, [r3, #6]
 788 0008 1AB2     		sxth	r2, r3
 789 000a 124B     		ldr	r3, .L27+4
 790 000c 1A60     		str	r2, [r3]
 204:.\main.c      ****     holdingReg[1] = mb.encoderHigh;
 791              		.loc 1 204 0
 792 000e 104B     		ldr	r3, .L27
 793 0010 9B88     		ldrh	r3, [r3, #4]
 794 0012 1AB2     		sxth	r2, r3
 795 0014 0F4B     		ldr	r3, .L27+4
 796 0016 5A60     		str	r2, [r3, #4]
 205:.\main.c      ****     holdingReg[2] = mb.speedRPSScaler;
 797              		.loc 1 205 0
 798 0018 0D4B     		ldr	r3, .L27
 799 001a 1B89     		ldrh	r3, [r3, #8]
 800 001c 1AB2     		sxth	r2, r3
 801 001e 0D4B     		ldr	r3, .L27+4
 802 0020 9A60     		str	r2, [r3, #8]
 206:.\main.c      ****     holdingReg[3] = mb.speedRPS;
 803              		.loc 1 206 0
 804 0022 0B4B     		ldr	r3, .L27
 805 0024 5B89     		ldrh	r3, [r3, #10]
 806 0026 1AB2     		sxth	r2, r3
 807 0028 0A4B     		ldr	r3, .L27+4
 808 002a DA60     		str	r2, [r3, #12]
 207:.\main.c      ****     holdingReg[4] = mb.speedRPM;
 809              		.loc 1 207 0
 810 002c 084B     		ldr	r3, .L27
 811 002e 9B89     		ldrh	r3, [r3, #12]
 812 0030 1AB2     		sxth	r2, r3
 813 0032 084B     		ldr	r3, .L27+4
 814 0034 1A61     		str	r2, [r3, #16]
 208:.\main.c      ****     //holdingReg[5] = duty cycle
 209:.\main.c      ****     //holdingReg[6] = direction
 210:.\main.c      ****     holdingReg[7] = mb.motorCurrent;
 815              		.loc 1 210 0
ARM GAS  C:\Users\Sam\AppData\Local\Temp\ccxikYff.s 			page 19


 816 0036 064B     		ldr	r3, .L27
 817 0038 1B8A     		ldrh	r3, [r3, #16]
 818 003a 1AB2     		sxth	r2, r3
 819 003c 054B     		ldr	r3, .L27+4
 820 003e DA61     		str	r2, [r3, #28]
 211:.\main.c      ****     //holdingReg[8]  = PIDScaler
 212:.\main.c      ****     //holdingReg[9]  = Kp
 213:.\main.c      ****     //holdingReg[10] = Ki
 214:.\main.c      ****     //holdingReg[11] = Kd
 215:.\main.c      ****     //holdingReg[12] = setpointRPM
 216:.\main.c      ****     holdingReg[13] = pidspeed;
 821              		.loc 1 216 0
 822 0040 054B     		ldr	r3, .L27+8
 823 0042 1B78     		ldrb	r3, [r3]
 824 0044 1A1C     		mov	r2, r3
 825 0046 034B     		ldr	r3, .L27+4
 826 0048 5A63     		str	r2, [r3, #52]
 217:.\main.c      ****     //holdingReg[14] = disable
 218:.\main.c      **** 
 219:.\main.c      **** }
 827              		.loc 1 219 0
 828 004a BD46     		mov	sp, r7
 829              		@ sp needed
 830 004c 80BD     		pop	{r7, pc}
 831              	.L28:
 832 004e C046     		.align	2
 833              	.L27:
 834 0050 00000000 		.word	mb
 835 0054 00000000 		.word	holdingReg
 836 0058 00000000 		.word	pidspeed
 837              		.cfi_endproc
 838              	.LFE38:
 839              		.size	updateModbusPackets, .-updateModbusPackets
 840              		.bss
 841              		.align	2
 842              	integral.7287:
 843 000c 00000000 		.space	4
 844              		.align	2
 845              	lastError.7289:
 846 0010 00000000 		.space	4
 847              		.align	2
 848              	derivative.7288:
 849 0014 00000000 		.space	4
 850              		.text
 851              	.Letext0:
 852              		.file 2 ".\\Generated_Source\\PSoC4/cytypes.h"