ARM GAS  C:\Users\Sam\AppData\Local\Temp\ccTX1UXg.s 			page 1


   1              		.cpu cortex-m0
   2              		.fpu softvfp
   3              		.eabi_attribute 20, 1
   4              		.eabi_attribute 21, 1
   5              		.eabi_attribute 23, 3
   6              		.eabi_attribute 24, 1
   7              		.eabi_attribute 25, 1
   8              		.eabi_attribute 26, 1
   9              		.eabi_attribute 30, 6
  10              		.eabi_attribute 34, 0
  11              		.eabi_attribute 18, 4
  12              		.code	16
  13              		.file	"MessageTimer.c"
  14              		.text
  15              	.Ltext0:
  16              		.cfi_sections	.debug_frame
  17              		.global	MessageTimer_initVar
  18              		.bss
  19              		.type	MessageTimer_initVar, %object
  20              		.size	MessageTimer_initVar, 1
  21              	MessageTimer_initVar:
  22 0000 00       		.space	1
  23              		.section	.text.MessageTimer_Init,"ax",%progbits
  24              		.align	2
  25              		.global	MessageTimer_Init
  26              		.code	16
  27              		.thumb_func
  28              		.type	MessageTimer_Init, %function
  29              	MessageTimer_Init:
  30              	.LFB0:
  31              		.file 1 ".\\Generated_Source\\PSoC4\\MessageTimer.c"
   1:.\Generated_Source\PSoC4/MessageTimer.c **** /*******************************************************************************
   2:.\Generated_Source\PSoC4/MessageTimer.c **** * File Name: MessageTimer.c
   3:.\Generated_Source\PSoC4/MessageTimer.c **** * Version 2.0
   4:.\Generated_Source\PSoC4/MessageTimer.c **** *
   5:.\Generated_Source\PSoC4/MessageTimer.c **** * Description:
   6:.\Generated_Source\PSoC4/MessageTimer.c **** *  This file provides the source code to the API for the MessageTimer
   7:.\Generated_Source\PSoC4/MessageTimer.c **** *  component
   8:.\Generated_Source\PSoC4/MessageTimer.c **** *
   9:.\Generated_Source\PSoC4/MessageTimer.c **** * Note:
  10:.\Generated_Source\PSoC4/MessageTimer.c **** *  None
  11:.\Generated_Source\PSoC4/MessageTimer.c **** *
  12:.\Generated_Source\PSoC4/MessageTimer.c **** ********************************************************************************
  13:.\Generated_Source\PSoC4/MessageTimer.c **** * Copyright 2013-2014, Cypress Semiconductor Corporation.  All rights reserved.
  14:.\Generated_Source\PSoC4/MessageTimer.c **** * You may use this file only in accordance with the license, terms, conditions,
  15:.\Generated_Source\PSoC4/MessageTimer.c **** * disclaimers, and limitations in the end user license agreement accompanying
  16:.\Generated_Source\PSoC4/MessageTimer.c **** * the software package with which this file was provided.
  17:.\Generated_Source\PSoC4/MessageTimer.c **** *******************************************************************************/
  18:.\Generated_Source\PSoC4/MessageTimer.c **** 
  19:.\Generated_Source\PSoC4/MessageTimer.c **** #include "MessageTimer.h"
  20:.\Generated_Source\PSoC4/MessageTimer.c **** 
  21:.\Generated_Source\PSoC4/MessageTimer.c **** uint8 MessageTimer_initVar = 0u;
  22:.\Generated_Source\PSoC4/MessageTimer.c **** 
  23:.\Generated_Source\PSoC4/MessageTimer.c **** 
  24:.\Generated_Source\PSoC4/MessageTimer.c **** /*******************************************************************************
  25:.\Generated_Source\PSoC4/MessageTimer.c **** * Function Name: MessageTimer_Init
  26:.\Generated_Source\PSoC4/MessageTimer.c **** ********************************************************************************
ARM GAS  C:\Users\Sam\AppData\Local\Temp\ccTX1UXg.s 			page 2


  27:.\Generated_Source\PSoC4/MessageTimer.c **** *
  28:.\Generated_Source\PSoC4/MessageTimer.c **** * Summary:
  29:.\Generated_Source\PSoC4/MessageTimer.c **** *  Initialize/Restore default MessageTimer configuration.
  30:.\Generated_Source\PSoC4/MessageTimer.c **** *
  31:.\Generated_Source\PSoC4/MessageTimer.c **** * Parameters:
  32:.\Generated_Source\PSoC4/MessageTimer.c **** *  None
  33:.\Generated_Source\PSoC4/MessageTimer.c **** *
  34:.\Generated_Source\PSoC4/MessageTimer.c **** * Return:
  35:.\Generated_Source\PSoC4/MessageTimer.c **** *  None
  36:.\Generated_Source\PSoC4/MessageTimer.c **** *
  37:.\Generated_Source\PSoC4/MessageTimer.c **** *******************************************************************************/
  38:.\Generated_Source\PSoC4/MessageTimer.c **** void MessageTimer_Init(void)
  39:.\Generated_Source\PSoC4/MessageTimer.c **** {
  32              		.loc 1 39 0
  33              		.cfi_startproc
  34 0000 80B5     		push	{r7, lr}
  35              		.cfi_def_cfa_offset 8
  36              		.cfi_offset 7, -8
  37              		.cfi_offset 14, -4
  38 0002 00AF     		add	r7, sp, #0
  39              		.cfi_def_cfa_register 7
  40:.\Generated_Source\PSoC4/MessageTimer.c **** 
  41:.\Generated_Source\PSoC4/MessageTimer.c ****     /* Set values from customizer to CTRL */
  42:.\Generated_Source\PSoC4/MessageTimer.c ****     #if (MessageTimer__QUAD == MessageTimer_CONFIG)
  43:.\Generated_Source\PSoC4/MessageTimer.c ****         MessageTimer_CONTROL_REG = MessageTimer_CTRL_QUAD_BASE_CONFIG;
  44:.\Generated_Source\PSoC4/MessageTimer.c ****         
  45:.\Generated_Source\PSoC4/MessageTimer.c ****         /* Set values from customizer to CTRL1 */
  46:.\Generated_Source\PSoC4/MessageTimer.c ****         MessageTimer_TRIG_CONTROL1_REG  = MessageTimer_QUAD_SIGNALS_MODES;
  47:.\Generated_Source\PSoC4/MessageTimer.c **** 
  48:.\Generated_Source\PSoC4/MessageTimer.c ****         /* Set values from customizer to INTR */
  49:.\Generated_Source\PSoC4/MessageTimer.c ****         MessageTimer_SetInterruptMode(MessageTimer_QUAD_INTERRUPT_MASK);
  50:.\Generated_Source\PSoC4/MessageTimer.c ****         
  51:.\Generated_Source\PSoC4/MessageTimer.c ****          /* Set other values */
  52:.\Generated_Source\PSoC4/MessageTimer.c ****         MessageTimer_SetCounterMode(MessageTimer_COUNT_DOWN);
  53:.\Generated_Source\PSoC4/MessageTimer.c ****         MessageTimer_WritePeriod(MessageTimer_QUAD_PERIOD_INIT_VALUE);
  54:.\Generated_Source\PSoC4/MessageTimer.c ****         MessageTimer_WriteCounter(MessageTimer_QUAD_PERIOD_INIT_VALUE);
  55:.\Generated_Source\PSoC4/MessageTimer.c ****     #endif  /* (MessageTimer__QUAD == MessageTimer_CONFIG) */
  56:.\Generated_Source\PSoC4/MessageTimer.c **** 
  57:.\Generated_Source\PSoC4/MessageTimer.c ****     #if (MessageTimer__TIMER == MessageTimer_CONFIG)
  58:.\Generated_Source\PSoC4/MessageTimer.c ****         MessageTimer_CONTROL_REG = MessageTimer_CTRL_TIMER_BASE_CONFIG;
  40              		.loc 1 58 0
  41 0004 084B     		ldr	r3, .L2
  42 0006 8122     		mov	r2, #129
  43 0008 9204     		lsl	r2, r2, #18
  44 000a 1A60     		str	r2, [r3]
  59:.\Generated_Source\PSoC4/MessageTimer.c ****         
  60:.\Generated_Source\PSoC4/MessageTimer.c ****         /* Set values from customizer to CTRL1 */
  61:.\Generated_Source\PSoC4/MessageTimer.c ****         MessageTimer_TRIG_CONTROL1_REG  = MessageTimer_TIMER_SIGNALS_MODES;
  45              		.loc 1 61 0
  46 000c 074B     		ldr	r3, .L2+4
  47 000e 0C22     		mov	r2, #12
  48 0010 1A60     		str	r2, [r3]
  62:.\Generated_Source\PSoC4/MessageTimer.c ****     
  63:.\Generated_Source\PSoC4/MessageTimer.c ****         /* Set values from customizer to INTR */
  64:.\Generated_Source\PSoC4/MessageTimer.c ****         MessageTimer_SetInterruptMode(MessageTimer_TC_INTERRUPT_MASK);
  49              		.loc 1 64 0
  50 0012 0120     		mov	r0, #1
ARM GAS  C:\Users\Sam\AppData\Local\Temp\ccTX1UXg.s 			page 3


  51 0014 FFF7FEFF 		bl	MessageTimer_SetInterruptMode
  65:.\Generated_Source\PSoC4/MessageTimer.c ****         
  66:.\Generated_Source\PSoC4/MessageTimer.c ****         /* Set other values from customizer */
  67:.\Generated_Source\PSoC4/MessageTimer.c ****         MessageTimer_WritePeriod(MessageTimer_TC_PERIOD_VALUE );
  52              		.loc 1 67 0
  53 0018 0F20     		mov	r0, #15
  54 001a FFF7FEFF 		bl	MessageTimer_WritePeriod
  68:.\Generated_Source\PSoC4/MessageTimer.c **** 
  69:.\Generated_Source\PSoC4/MessageTimer.c ****         #if (MessageTimer__COMPARE == MessageTimer_TC_COMP_CAP_MODE)
  70:.\Generated_Source\PSoC4/MessageTimer.c ****             MessageTimer_WriteCompare(MessageTimer_TC_COMPARE_VALUE);
  71:.\Generated_Source\PSoC4/MessageTimer.c **** 
  72:.\Generated_Source\PSoC4/MessageTimer.c ****             #if (1u == MessageTimer_TC_COMPARE_SWAP)
  73:.\Generated_Source\PSoC4/MessageTimer.c ****                 MessageTimer_SetCompareSwap(1u);
  74:.\Generated_Source\PSoC4/MessageTimer.c ****                 MessageTimer_WriteCompareBuf(MessageTimer_TC_COMPARE_BUF_VALUE);
  75:.\Generated_Source\PSoC4/MessageTimer.c ****             #endif  /* (1u == MessageTimer_TC_COMPARE_SWAP) */
  76:.\Generated_Source\PSoC4/MessageTimer.c ****         #endif  /* (MessageTimer__COMPARE == MessageTimer_TC_COMP_CAP_MODE) */
  77:.\Generated_Source\PSoC4/MessageTimer.c **** 
  78:.\Generated_Source\PSoC4/MessageTimer.c ****         /* Initialize counter value */
  79:.\Generated_Source\PSoC4/MessageTimer.c ****         #if (MessageTimer_CY_TCPWM_V2 && MessageTimer_TIMER_UPDOWN_CNT_USED && !MessageTimer_CY_TCP
  80:.\Generated_Source\PSoC4/MessageTimer.c ****             MessageTimer_WriteCounter(1u);
  81:.\Generated_Source\PSoC4/MessageTimer.c ****         #elif(MessageTimer__COUNT_DOWN == MessageTimer_TC_COUNTER_MODE)
  82:.\Generated_Source\PSoC4/MessageTimer.c ****             MessageTimer_WriteCounter(MessageTimer_TC_PERIOD_VALUE);
  83:.\Generated_Source\PSoC4/MessageTimer.c ****         #else
  84:.\Generated_Source\PSoC4/MessageTimer.c ****             MessageTimer_WriteCounter(0u);
  55              		.loc 1 84 0
  56 001e 0020     		mov	r0, #0
  57 0020 FFF7FEFF 		bl	MessageTimer_WriteCounter
  85:.\Generated_Source\PSoC4/MessageTimer.c ****         #endif /* (MessageTimer_CY_TCPWM_V2 && MessageTimer_TIMER_UPDOWN_CNT_USED && !MessageTimer_
  86:.\Generated_Source\PSoC4/MessageTimer.c ****     #endif  /* (MessageTimer__TIMER == MessageTimer_CONFIG) */
  87:.\Generated_Source\PSoC4/MessageTimer.c **** 
  88:.\Generated_Source\PSoC4/MessageTimer.c ****     #if (MessageTimer__PWM_SEL == MessageTimer_CONFIG)
  89:.\Generated_Source\PSoC4/MessageTimer.c ****         MessageTimer_CONTROL_REG = MessageTimer_CTRL_PWM_BASE_CONFIG;
  90:.\Generated_Source\PSoC4/MessageTimer.c **** 
  91:.\Generated_Source\PSoC4/MessageTimer.c ****         #if (MessageTimer__PWM_PR == MessageTimer_PWM_MODE)
  92:.\Generated_Source\PSoC4/MessageTimer.c ****             MessageTimer_CONTROL_REG |= MessageTimer_CTRL_PWM_RUN_MODE;
  93:.\Generated_Source\PSoC4/MessageTimer.c ****             MessageTimer_WriteCounter(MessageTimer_PWM_PR_INIT_VALUE);
  94:.\Generated_Source\PSoC4/MessageTimer.c ****         #else
  95:.\Generated_Source\PSoC4/MessageTimer.c ****             MessageTimer_CONTROL_REG |= MessageTimer_CTRL_PWM_ALIGN | MessageTimer_CTRL_PWM_KILL_EV
  96:.\Generated_Source\PSoC4/MessageTimer.c ****             
  97:.\Generated_Source\PSoC4/MessageTimer.c ****             /* Initialize counter value */
  98:.\Generated_Source\PSoC4/MessageTimer.c ****             #if (MessageTimer_CY_TCPWM_V2 && MessageTimer_PWM_UPDOWN_CNT_USED && !MessageTimer_CY_T
  99:.\Generated_Source\PSoC4/MessageTimer.c ****                 MessageTimer_WriteCounter(1u);
 100:.\Generated_Source\PSoC4/MessageTimer.c ****             #elif (MessageTimer__RIGHT == MessageTimer_PWM_ALIGN)
 101:.\Generated_Source\PSoC4/MessageTimer.c ****                 MessageTimer_WriteCounter(MessageTimer_PWM_PERIOD_VALUE);
 102:.\Generated_Source\PSoC4/MessageTimer.c ****             #else 
 103:.\Generated_Source\PSoC4/MessageTimer.c ****                 MessageTimer_WriteCounter(0u);
 104:.\Generated_Source\PSoC4/MessageTimer.c ****             #endif  /* (MessageTimer_CY_TCPWM_V2 && MessageTimer_PWM_UPDOWN_CNT_USED && !MessageTim
 105:.\Generated_Source\PSoC4/MessageTimer.c ****         #endif  /* (MessageTimer__PWM_PR == MessageTimer_PWM_MODE) */
 106:.\Generated_Source\PSoC4/MessageTimer.c **** 
 107:.\Generated_Source\PSoC4/MessageTimer.c ****         #if (MessageTimer__PWM_DT == MessageTimer_PWM_MODE)
 108:.\Generated_Source\PSoC4/MessageTimer.c ****             MessageTimer_CONTROL_REG |= MessageTimer_CTRL_PWM_DEAD_TIME_CYCLE;
 109:.\Generated_Source\PSoC4/MessageTimer.c ****         #endif  /* (MessageTimer__PWM_DT == MessageTimer_PWM_MODE) */
 110:.\Generated_Source\PSoC4/MessageTimer.c **** 
 111:.\Generated_Source\PSoC4/MessageTimer.c ****         #if (MessageTimer__PWM == MessageTimer_PWM_MODE)
 112:.\Generated_Source\PSoC4/MessageTimer.c ****             MessageTimer_CONTROL_REG |= MessageTimer_CTRL_PWM_PRESCALER;
 113:.\Generated_Source\PSoC4/MessageTimer.c ****         #endif  /* (MessageTimer__PWM == MessageTimer_PWM_MODE) */
 114:.\Generated_Source\PSoC4/MessageTimer.c **** 
ARM GAS  C:\Users\Sam\AppData\Local\Temp\ccTX1UXg.s 			page 4


 115:.\Generated_Source\PSoC4/MessageTimer.c ****         /* Set values from customizer to CTRL1 */
 116:.\Generated_Source\PSoC4/MessageTimer.c ****         MessageTimer_TRIG_CONTROL1_REG  = MessageTimer_PWM_SIGNALS_MODES;
 117:.\Generated_Source\PSoC4/MessageTimer.c ****     
 118:.\Generated_Source\PSoC4/MessageTimer.c ****         /* Set values from customizer to INTR */
 119:.\Generated_Source\PSoC4/MessageTimer.c ****         MessageTimer_SetInterruptMode(MessageTimer_PWM_INTERRUPT_MASK);
 120:.\Generated_Source\PSoC4/MessageTimer.c **** 
 121:.\Generated_Source\PSoC4/MessageTimer.c ****         /* Set values from customizer to CTRL2 */
 122:.\Generated_Source\PSoC4/MessageTimer.c ****         #if (MessageTimer__PWM_PR == MessageTimer_PWM_MODE)
 123:.\Generated_Source\PSoC4/MessageTimer.c ****             MessageTimer_TRIG_CONTROL2_REG =
 124:.\Generated_Source\PSoC4/MessageTimer.c ****                     (MessageTimer_CC_MATCH_NO_CHANGE    |
 125:.\Generated_Source\PSoC4/MessageTimer.c ****                     MessageTimer_OVERLOW_NO_CHANGE      |
 126:.\Generated_Source\PSoC4/MessageTimer.c ****                     MessageTimer_UNDERFLOW_NO_CHANGE);
 127:.\Generated_Source\PSoC4/MessageTimer.c ****         #else
 128:.\Generated_Source\PSoC4/MessageTimer.c ****             #if (MessageTimer__LEFT == MessageTimer_PWM_ALIGN)
 129:.\Generated_Source\PSoC4/MessageTimer.c ****                 MessageTimer_TRIG_CONTROL2_REG = MessageTimer_PWM_MODE_LEFT;
 130:.\Generated_Source\PSoC4/MessageTimer.c ****             #endif  /* ( MessageTimer_PWM_LEFT == MessageTimer_PWM_ALIGN) */
 131:.\Generated_Source\PSoC4/MessageTimer.c **** 
 132:.\Generated_Source\PSoC4/MessageTimer.c ****             #if (MessageTimer__RIGHT == MessageTimer_PWM_ALIGN)
 133:.\Generated_Source\PSoC4/MessageTimer.c ****                 MessageTimer_TRIG_CONTROL2_REG = MessageTimer_PWM_MODE_RIGHT;
 134:.\Generated_Source\PSoC4/MessageTimer.c ****             #endif  /* ( MessageTimer_PWM_RIGHT == MessageTimer_PWM_ALIGN) */
 135:.\Generated_Source\PSoC4/MessageTimer.c **** 
 136:.\Generated_Source\PSoC4/MessageTimer.c ****             #if (MessageTimer__CENTER == MessageTimer_PWM_ALIGN)
 137:.\Generated_Source\PSoC4/MessageTimer.c ****                 MessageTimer_TRIG_CONTROL2_REG = MessageTimer_PWM_MODE_CENTER;
 138:.\Generated_Source\PSoC4/MessageTimer.c ****             #endif  /* ( MessageTimer_PWM_CENTER == MessageTimer_PWM_ALIGN) */
 139:.\Generated_Source\PSoC4/MessageTimer.c **** 
 140:.\Generated_Source\PSoC4/MessageTimer.c ****             #if (MessageTimer__ASYMMETRIC == MessageTimer_PWM_ALIGN)
 141:.\Generated_Source\PSoC4/MessageTimer.c ****                 MessageTimer_TRIG_CONTROL2_REG = MessageTimer_PWM_MODE_ASYM;
 142:.\Generated_Source\PSoC4/MessageTimer.c ****             #endif  /* (MessageTimer__ASYMMETRIC == MessageTimer_PWM_ALIGN) */
 143:.\Generated_Source\PSoC4/MessageTimer.c ****         #endif  /* (MessageTimer__PWM_PR == MessageTimer_PWM_MODE) */
 144:.\Generated_Source\PSoC4/MessageTimer.c **** 
 145:.\Generated_Source\PSoC4/MessageTimer.c ****         /* Set other values from customizer */
 146:.\Generated_Source\PSoC4/MessageTimer.c ****         MessageTimer_WritePeriod(MessageTimer_PWM_PERIOD_VALUE );
 147:.\Generated_Source\PSoC4/MessageTimer.c ****         MessageTimer_WriteCompare(MessageTimer_PWM_COMPARE_VALUE);
 148:.\Generated_Source\PSoC4/MessageTimer.c **** 
 149:.\Generated_Source\PSoC4/MessageTimer.c ****         #if (1u == MessageTimer_PWM_COMPARE_SWAP)
 150:.\Generated_Source\PSoC4/MessageTimer.c ****             MessageTimer_SetCompareSwap(1u);
 151:.\Generated_Source\PSoC4/MessageTimer.c ****             MessageTimer_WriteCompareBuf(MessageTimer_PWM_COMPARE_BUF_VALUE);
 152:.\Generated_Source\PSoC4/MessageTimer.c ****         #endif  /* (1u == MessageTimer_PWM_COMPARE_SWAP) */
 153:.\Generated_Source\PSoC4/MessageTimer.c **** 
 154:.\Generated_Source\PSoC4/MessageTimer.c ****         #if (1u == MessageTimer_PWM_PERIOD_SWAP)
 155:.\Generated_Source\PSoC4/MessageTimer.c ****             MessageTimer_SetPeriodSwap(1u);
 156:.\Generated_Source\PSoC4/MessageTimer.c ****             MessageTimer_WritePeriodBuf(MessageTimer_PWM_PERIOD_BUF_VALUE);
 157:.\Generated_Source\PSoC4/MessageTimer.c ****         #endif  /* (1u == MessageTimer_PWM_PERIOD_SWAP) */
 158:.\Generated_Source\PSoC4/MessageTimer.c ****     #endif  /* (MessageTimer__PWM_SEL == MessageTimer_CONFIG) */
 159:.\Generated_Source\PSoC4/MessageTimer.c ****     
 160:.\Generated_Source\PSoC4/MessageTimer.c **** }
  58              		.loc 1 160 0
  59 0024 BD46     		mov	sp, r7
  60              		@ sp needed
  61 0026 80BD     		pop	{r7, pc}
  62              	.L3:
  63              		.align	2
  64              	.L2:
  65 0028 00010540 		.word	1074069760
  66 002c 24010540 		.word	1074069796
  67              		.cfi_endproc
  68              	.LFE0:
ARM GAS  C:\Users\Sam\AppData\Local\Temp\ccTX1UXg.s 			page 5


  69              		.size	MessageTimer_Init, .-MessageTimer_Init
  70              		.section	.text.MessageTimer_Enable,"ax",%progbits
  71              		.align	2
  72              		.global	MessageTimer_Enable
  73              		.code	16
  74              		.thumb_func
  75              		.type	MessageTimer_Enable, %function
  76              	MessageTimer_Enable:
  77              	.LFB1:
 161:.\Generated_Source\PSoC4/MessageTimer.c **** 
 162:.\Generated_Source\PSoC4/MessageTimer.c **** 
 163:.\Generated_Source\PSoC4/MessageTimer.c **** /*******************************************************************************
 164:.\Generated_Source\PSoC4/MessageTimer.c **** * Function Name: MessageTimer_Enable
 165:.\Generated_Source\PSoC4/MessageTimer.c **** ********************************************************************************
 166:.\Generated_Source\PSoC4/MessageTimer.c **** *
 167:.\Generated_Source\PSoC4/MessageTimer.c **** * Summary:
 168:.\Generated_Source\PSoC4/MessageTimer.c **** *  Enables the MessageTimer.
 169:.\Generated_Source\PSoC4/MessageTimer.c **** *
 170:.\Generated_Source\PSoC4/MessageTimer.c **** * Parameters:
 171:.\Generated_Source\PSoC4/MessageTimer.c **** *  None
 172:.\Generated_Source\PSoC4/MessageTimer.c **** *
 173:.\Generated_Source\PSoC4/MessageTimer.c **** * Return:
 174:.\Generated_Source\PSoC4/MessageTimer.c **** *  None
 175:.\Generated_Source\PSoC4/MessageTimer.c **** *
 176:.\Generated_Source\PSoC4/MessageTimer.c **** *******************************************************************************/
 177:.\Generated_Source\PSoC4/MessageTimer.c **** void MessageTimer_Enable(void)
 178:.\Generated_Source\PSoC4/MessageTimer.c **** {
  78              		.loc 1 178 0
  79              		.cfi_startproc
  80 0000 90B5     		push	{r4, r7, lr}
  81              		.cfi_def_cfa_offset 12
  82              		.cfi_offset 4, -12
  83              		.cfi_offset 7, -8
  84              		.cfi_offset 14, -4
  85 0002 83B0     		sub	sp, sp, #12
  86              		.cfi_def_cfa_offset 24
  87 0004 00AF     		add	r7, sp, #0
  88              		.cfi_def_cfa_register 7
 179:.\Generated_Source\PSoC4/MessageTimer.c ****     uint8 enableInterrupts;
 180:.\Generated_Source\PSoC4/MessageTimer.c **** 
 181:.\Generated_Source\PSoC4/MessageTimer.c ****     enableInterrupts = CyEnterCriticalSection();
  89              		.loc 1 181 0
  90 0006 FC1D     		add	r4, r7, #7
  91 0008 FFF7FEFF 		bl	CyEnterCriticalSection
  92 000c 031C     		mov	r3, r0
  93 000e 2370     		strb	r3, [r4]
 182:.\Generated_Source\PSoC4/MessageTimer.c ****     MessageTimer_BLOCK_CONTROL_REG |= MessageTimer_MASK;
  94              		.loc 1 182 0
  95 0010 084B     		ldr	r3, .L5
  96 0012 084A     		ldr	r2, .L5
  97 0014 1268     		ldr	r2, [r2]
  98 0016 0121     		mov	r1, #1
  99 0018 0A43     		orr	r2, r1
 100 001a 1A60     		str	r2, [r3]
 183:.\Generated_Source\PSoC4/MessageTimer.c ****     CyExitCriticalSection(enableInterrupts);
 101              		.loc 1 183 0
 102 001c FB1D     		add	r3, r7, #7
ARM GAS  C:\Users\Sam\AppData\Local\Temp\ccTX1UXg.s 			page 6


 103 001e 1B78     		ldrb	r3, [r3]
 104 0020 181C     		mov	r0, r3
 105 0022 FFF7FEFF 		bl	CyExitCriticalSection
 184:.\Generated_Source\PSoC4/MessageTimer.c **** 
 185:.\Generated_Source\PSoC4/MessageTimer.c ****     /* Start Timer or PWM if start input is absent */
 186:.\Generated_Source\PSoC4/MessageTimer.c ****     #if (MessageTimer__PWM_SEL == MessageTimer_CONFIG)
 187:.\Generated_Source\PSoC4/MessageTimer.c ****         #if (0u == MessageTimer_PWM_START_SIGNAL_PRESENT)
 188:.\Generated_Source\PSoC4/MessageTimer.c ****             MessageTimer_TriggerCommand(MessageTimer_MASK, MessageTimer_CMD_START);
 189:.\Generated_Source\PSoC4/MessageTimer.c ****         #endif /* (0u == MessageTimer_PWM_START_SIGNAL_PRESENT) */
 190:.\Generated_Source\PSoC4/MessageTimer.c ****     #endif /* (MessageTimer__PWM_SEL == MessageTimer_CONFIG) */
 191:.\Generated_Source\PSoC4/MessageTimer.c **** 
 192:.\Generated_Source\PSoC4/MessageTimer.c ****     #if (MessageTimer__TIMER == MessageTimer_CONFIG)
 193:.\Generated_Source\PSoC4/MessageTimer.c ****         #if (0u == MessageTimer_TC_START_SIGNAL_PRESENT)
 194:.\Generated_Source\PSoC4/MessageTimer.c ****             MessageTimer_TriggerCommand(MessageTimer_MASK, MessageTimer_CMD_START);
 106              		.loc 1 194 0
 107 0026 0120     		mov	r0, #1
 108 0028 1821     		mov	r1, #24
 109 002a FFF7FEFF 		bl	MessageTimer_TriggerCommand
 195:.\Generated_Source\PSoC4/MessageTimer.c ****         #endif /* (0u == MessageTimer_TC_START_SIGNAL_PRESENT) */
 196:.\Generated_Source\PSoC4/MessageTimer.c ****     #endif /* (MessageTimer__TIMER == MessageTimer_CONFIG) */
 197:.\Generated_Source\PSoC4/MessageTimer.c **** }
 110              		.loc 1 197 0
 111 002e BD46     		mov	sp, r7
 112 0030 03B0     		add	sp, sp, #12
 113              		@ sp needed
 114 0032 90BD     		pop	{r4, r7, pc}
 115              	.L6:
 116              		.align	2
 117              	.L5:
 118 0034 00000540 		.word	1074069504
 119              		.cfi_endproc
 120              	.LFE1:
 121              		.size	MessageTimer_Enable, .-MessageTimer_Enable
 122              		.section	.text.MessageTimer_Start,"ax",%progbits
 123              		.align	2
 124              		.global	MessageTimer_Start
 125              		.code	16
 126              		.thumb_func
 127              		.type	MessageTimer_Start, %function
 128              	MessageTimer_Start:
 129              	.LFB2:
 198:.\Generated_Source\PSoC4/MessageTimer.c **** 
 199:.\Generated_Source\PSoC4/MessageTimer.c **** 
 200:.\Generated_Source\PSoC4/MessageTimer.c **** /*******************************************************************************
 201:.\Generated_Source\PSoC4/MessageTimer.c **** * Function Name: MessageTimer_Start
 202:.\Generated_Source\PSoC4/MessageTimer.c **** ********************************************************************************
 203:.\Generated_Source\PSoC4/MessageTimer.c **** *
 204:.\Generated_Source\PSoC4/MessageTimer.c **** * Summary:
 205:.\Generated_Source\PSoC4/MessageTimer.c **** *  Initializes the MessageTimer with default customizer
 206:.\Generated_Source\PSoC4/MessageTimer.c **** *  values when called the first time and enables the MessageTimer.
 207:.\Generated_Source\PSoC4/MessageTimer.c **** *  For subsequent calls the configuration is left unchanged and the component is
 208:.\Generated_Source\PSoC4/MessageTimer.c **** *  just enabled.
 209:.\Generated_Source\PSoC4/MessageTimer.c **** *
 210:.\Generated_Source\PSoC4/MessageTimer.c **** * Parameters:
 211:.\Generated_Source\PSoC4/MessageTimer.c **** *  None
 212:.\Generated_Source\PSoC4/MessageTimer.c **** *
 213:.\Generated_Source\PSoC4/MessageTimer.c **** * Return:
ARM GAS  C:\Users\Sam\AppData\Local\Temp\ccTX1UXg.s 			page 7


 214:.\Generated_Source\PSoC4/MessageTimer.c **** *  None
 215:.\Generated_Source\PSoC4/MessageTimer.c **** *
 216:.\Generated_Source\PSoC4/MessageTimer.c **** * Global variables:
 217:.\Generated_Source\PSoC4/MessageTimer.c **** *  MessageTimer_initVar: global variable is used to indicate initial
 218:.\Generated_Source\PSoC4/MessageTimer.c **** *  configuration of this component.  The variable is initialized to zero and set
 219:.\Generated_Source\PSoC4/MessageTimer.c **** *  to 1 the first time MessageTimer_Start() is called. This allows
 220:.\Generated_Source\PSoC4/MessageTimer.c **** *  enabling/disabling a component without re-initialization in all subsequent
 221:.\Generated_Source\PSoC4/MessageTimer.c **** *  calls to the MessageTimer_Start() routine.
 222:.\Generated_Source\PSoC4/MessageTimer.c **** *
 223:.\Generated_Source\PSoC4/MessageTimer.c **** *******************************************************************************/
 224:.\Generated_Source\PSoC4/MessageTimer.c **** void MessageTimer_Start(void)
 225:.\Generated_Source\PSoC4/MessageTimer.c **** {
 130              		.loc 1 225 0
 131              		.cfi_startproc
 132 0000 80B5     		push	{r7, lr}
 133              		.cfi_def_cfa_offset 8
 134              		.cfi_offset 7, -8
 135              		.cfi_offset 14, -4
 136 0002 00AF     		add	r7, sp, #0
 137              		.cfi_def_cfa_register 7
 226:.\Generated_Source\PSoC4/MessageTimer.c ****     if (0u == MessageTimer_initVar)
 138              		.loc 1 226 0
 139 0004 064B     		ldr	r3, .L9
 140 0006 1B78     		ldrb	r3, [r3]
 141 0008 002B     		cmp	r3, #0
 142 000a 04D1     		bne	.L8
 227:.\Generated_Source\PSoC4/MessageTimer.c ****     {
 228:.\Generated_Source\PSoC4/MessageTimer.c ****         MessageTimer_Init();
 143              		.loc 1 228 0
 144 000c FFF7FEFF 		bl	MessageTimer_Init
 229:.\Generated_Source\PSoC4/MessageTimer.c ****         MessageTimer_initVar = 1u;
 145              		.loc 1 229 0
 146 0010 034B     		ldr	r3, .L9
 147 0012 0122     		mov	r2, #1
 148 0014 1A70     		strb	r2, [r3]
 149              	.L8:
 230:.\Generated_Source\PSoC4/MessageTimer.c ****     }
 231:.\Generated_Source\PSoC4/MessageTimer.c **** 
 232:.\Generated_Source\PSoC4/MessageTimer.c ****     MessageTimer_Enable();
 150              		.loc 1 232 0
 151 0016 FFF7FEFF 		bl	MessageTimer_Enable
 233:.\Generated_Source\PSoC4/MessageTimer.c **** }
 152              		.loc 1 233 0
 153 001a BD46     		mov	sp, r7
 154              		@ sp needed
 155 001c 80BD     		pop	{r7, pc}
 156              	.L10:
 157 001e C046     		.align	2
 158              	.L9:
 159 0020 00000000 		.word	MessageTimer_initVar
 160              		.cfi_endproc
 161              	.LFE2:
 162              		.size	MessageTimer_Start, .-MessageTimer_Start
 163              		.section	.text.MessageTimer_Stop,"ax",%progbits
 164              		.align	2
 165              		.global	MessageTimer_Stop
 166              		.code	16
ARM GAS  C:\Users\Sam\AppData\Local\Temp\ccTX1UXg.s 			page 8


 167              		.thumb_func
 168              		.type	MessageTimer_Stop, %function
 169              	MessageTimer_Stop:
 170              	.LFB3:
 234:.\Generated_Source\PSoC4/MessageTimer.c **** 
 235:.\Generated_Source\PSoC4/MessageTimer.c **** 
 236:.\Generated_Source\PSoC4/MessageTimer.c **** /*******************************************************************************
 237:.\Generated_Source\PSoC4/MessageTimer.c **** * Function Name: MessageTimer_Stop
 238:.\Generated_Source\PSoC4/MessageTimer.c **** ********************************************************************************
 239:.\Generated_Source\PSoC4/MessageTimer.c **** *
 240:.\Generated_Source\PSoC4/MessageTimer.c **** * Summary:
 241:.\Generated_Source\PSoC4/MessageTimer.c **** *  Disables the MessageTimer.
 242:.\Generated_Source\PSoC4/MessageTimer.c **** *
 243:.\Generated_Source\PSoC4/MessageTimer.c **** * Parameters:
 244:.\Generated_Source\PSoC4/MessageTimer.c **** *  None
 245:.\Generated_Source\PSoC4/MessageTimer.c **** *
 246:.\Generated_Source\PSoC4/MessageTimer.c **** * Return:
 247:.\Generated_Source\PSoC4/MessageTimer.c **** *  None
 248:.\Generated_Source\PSoC4/MessageTimer.c **** *
 249:.\Generated_Source\PSoC4/MessageTimer.c **** *******************************************************************************/
 250:.\Generated_Source\PSoC4/MessageTimer.c **** void MessageTimer_Stop(void)
 251:.\Generated_Source\PSoC4/MessageTimer.c **** {
 171              		.loc 1 251 0
 172              		.cfi_startproc
 173 0000 90B5     		push	{r4, r7, lr}
 174              		.cfi_def_cfa_offset 12
 175              		.cfi_offset 4, -12
 176              		.cfi_offset 7, -8
 177              		.cfi_offset 14, -4
 178 0002 83B0     		sub	sp, sp, #12
 179              		.cfi_def_cfa_offset 24
 180 0004 00AF     		add	r7, sp, #0
 181              		.cfi_def_cfa_register 7
 252:.\Generated_Source\PSoC4/MessageTimer.c ****     uint8 enableInterrupts;
 253:.\Generated_Source\PSoC4/MessageTimer.c **** 
 254:.\Generated_Source\PSoC4/MessageTimer.c ****     enableInterrupts = CyEnterCriticalSection();
 182              		.loc 1 254 0
 183 0006 FC1D     		add	r4, r7, #7
 184 0008 FFF7FEFF 		bl	CyEnterCriticalSection
 185 000c 031C     		mov	r3, r0
 186 000e 2370     		strb	r3, [r4]
 255:.\Generated_Source\PSoC4/MessageTimer.c **** 
 256:.\Generated_Source\PSoC4/MessageTimer.c ****     MessageTimer_BLOCK_CONTROL_REG &= (uint32)~MessageTimer_MASK;
 187              		.loc 1 256 0
 188 0010 064B     		ldr	r3, .L12
 189 0012 064A     		ldr	r2, .L12
 190 0014 1268     		ldr	r2, [r2]
 191 0016 0121     		mov	r1, #1
 192 0018 8A43     		bic	r2, r1
 193 001a 1A60     		str	r2, [r3]
 257:.\Generated_Source\PSoC4/MessageTimer.c **** 
 258:.\Generated_Source\PSoC4/MessageTimer.c ****     CyExitCriticalSection(enableInterrupts);
 194              		.loc 1 258 0
 195 001c FB1D     		add	r3, r7, #7
 196 001e 1B78     		ldrb	r3, [r3]
 197 0020 181C     		mov	r0, r3
 198 0022 FFF7FEFF 		bl	CyExitCriticalSection
ARM GAS  C:\Users\Sam\AppData\Local\Temp\ccTX1UXg.s 			page 9


 259:.\Generated_Source\PSoC4/MessageTimer.c **** }
 199              		.loc 1 259 0
 200 0026 BD46     		mov	sp, r7
 201 0028 03B0     		add	sp, sp, #12
 202              		@ sp needed
 203 002a 90BD     		pop	{r4, r7, pc}
 204              	.L13:
 205              		.align	2
 206              	.L12:
 207 002c 00000540 		.word	1074069504
 208              		.cfi_endproc
 209              	.LFE3:
 210              		.size	MessageTimer_Stop, .-MessageTimer_Stop
 211              		.section	.text.MessageTimer_SetMode,"ax",%progbits
 212              		.align	2
 213              		.global	MessageTimer_SetMode
 214              		.code	16
 215              		.thumb_func
 216              		.type	MessageTimer_SetMode, %function
 217              	MessageTimer_SetMode:
 218              	.LFB4:
 260:.\Generated_Source\PSoC4/MessageTimer.c **** 
 261:.\Generated_Source\PSoC4/MessageTimer.c **** 
 262:.\Generated_Source\PSoC4/MessageTimer.c **** /*******************************************************************************
 263:.\Generated_Source\PSoC4/MessageTimer.c **** * Function Name: MessageTimer_SetMode
 264:.\Generated_Source\PSoC4/MessageTimer.c **** ********************************************************************************
 265:.\Generated_Source\PSoC4/MessageTimer.c **** *
 266:.\Generated_Source\PSoC4/MessageTimer.c **** * Summary:
 267:.\Generated_Source\PSoC4/MessageTimer.c **** *  Sets the operation mode of the MessageTimer. This function is used when
 268:.\Generated_Source\PSoC4/MessageTimer.c **** *  configured as a generic MessageTimer and the actual mode of operation is
 269:.\Generated_Source\PSoC4/MessageTimer.c **** *  set at runtime. The mode must be set while the component is disabled.
 270:.\Generated_Source\PSoC4/MessageTimer.c **** *
 271:.\Generated_Source\PSoC4/MessageTimer.c **** * Parameters:
 272:.\Generated_Source\PSoC4/MessageTimer.c **** *  mode: Mode for the MessageTimer to operate in
 273:.\Generated_Source\PSoC4/MessageTimer.c **** *   Values:
 274:.\Generated_Source\PSoC4/MessageTimer.c **** *   - MessageTimer_MODE_TIMER_COMPARE - Timer / Counter with
 275:.\Generated_Source\PSoC4/MessageTimer.c **** *                                                 compare capability
 276:.\Generated_Source\PSoC4/MessageTimer.c **** *         - MessageTimer_MODE_TIMER_CAPTURE - Timer / Counter with
 277:.\Generated_Source\PSoC4/MessageTimer.c **** *                                                 capture capability
 278:.\Generated_Source\PSoC4/MessageTimer.c **** *         - MessageTimer_MODE_QUAD - Quadrature decoder
 279:.\Generated_Source\PSoC4/MessageTimer.c **** *         - MessageTimer_MODE_PWM - PWM
 280:.\Generated_Source\PSoC4/MessageTimer.c **** *         - MessageTimer_MODE_PWM_DT - PWM with dead time
 281:.\Generated_Source\PSoC4/MessageTimer.c **** *         - MessageTimer_MODE_PWM_PR - PWM with pseudo random capability
 282:.\Generated_Source\PSoC4/MessageTimer.c **** *
 283:.\Generated_Source\PSoC4/MessageTimer.c **** * Return:
 284:.\Generated_Source\PSoC4/MessageTimer.c **** *  None
 285:.\Generated_Source\PSoC4/MessageTimer.c **** *
 286:.\Generated_Source\PSoC4/MessageTimer.c **** *******************************************************************************/
 287:.\Generated_Source\PSoC4/MessageTimer.c **** void MessageTimer_SetMode(uint32 mode)
 288:.\Generated_Source\PSoC4/MessageTimer.c **** {
 219              		.loc 1 288 0
 220              		.cfi_startproc
 221 0000 90B5     		push	{r4, r7, lr}
 222              		.cfi_def_cfa_offset 12
 223              		.cfi_offset 4, -12
 224              		.cfi_offset 7, -8
 225              		.cfi_offset 14, -4
ARM GAS  C:\Users\Sam\AppData\Local\Temp\ccTX1UXg.s 			page 10


 226 0002 85B0     		sub	sp, sp, #20
 227              		.cfi_def_cfa_offset 32
 228 0004 00AF     		add	r7, sp, #0
 229              		.cfi_def_cfa_register 7
 230 0006 7860     		str	r0, [r7, #4]
 289:.\Generated_Source\PSoC4/MessageTimer.c ****     uint8 enableInterrupts;
 290:.\Generated_Source\PSoC4/MessageTimer.c **** 
 291:.\Generated_Source\PSoC4/MessageTimer.c ****     enableInterrupts = CyEnterCriticalSection();
 231              		.loc 1 291 0
 232 0008 3C1C     		mov	r4, r7
 233 000a 0F34     		add	r4, r4, #15
 234 000c FFF7FEFF 		bl	CyEnterCriticalSection
 235 0010 031C     		mov	r3, r0
 236 0012 2370     		strb	r3, [r4]
 292:.\Generated_Source\PSoC4/MessageTimer.c **** 
 293:.\Generated_Source\PSoC4/MessageTimer.c ****     MessageTimer_CONTROL_REG &= (uint32)~MessageTimer_MODE_MASK;
 237              		.loc 1 293 0
 238 0014 0A4B     		ldr	r3, .L15
 239 0016 0A4A     		ldr	r2, .L15
 240 0018 1168     		ldr	r1, [r2]
 241 001a 0A4A     		ldr	r2, .L15+4
 242 001c 0A40     		and	r2, r1
 243 001e 1A60     		str	r2, [r3]
 294:.\Generated_Source\PSoC4/MessageTimer.c ****     MessageTimer_CONTROL_REG |= mode;
 244              		.loc 1 294 0
 245 0020 074B     		ldr	r3, .L15
 246 0022 074A     		ldr	r2, .L15
 247 0024 1168     		ldr	r1, [r2]
 248 0026 7A68     		ldr	r2, [r7, #4]
 249 0028 0A43     		orr	r2, r1
 250 002a 1A60     		str	r2, [r3]
 295:.\Generated_Source\PSoC4/MessageTimer.c **** 
 296:.\Generated_Source\PSoC4/MessageTimer.c ****     CyExitCriticalSection(enableInterrupts);
 251              		.loc 1 296 0
 252 002c 3B1C     		mov	r3, r7
 253 002e 0F33     		add	r3, r3, #15
 254 0030 1B78     		ldrb	r3, [r3]
 255 0032 181C     		mov	r0, r3
 256 0034 FFF7FEFF 		bl	CyExitCriticalSection
 297:.\Generated_Source\PSoC4/MessageTimer.c **** }
 257              		.loc 1 297 0
 258 0038 BD46     		mov	sp, r7
 259 003a 05B0     		add	sp, sp, #20
 260              		@ sp needed
 261 003c 90BD     		pop	{r4, r7, pc}
 262              	.L16:
 263 003e C046     		.align	2
 264              	.L15:
 265 0040 00010540 		.word	1074069760
 266 0044 FFFFFFF8 		.word	-117440513
 267              		.cfi_endproc
 268              	.LFE4:
 269              		.size	MessageTimer_SetMode, .-MessageTimer_SetMode
 270              		.section	.text.MessageTimer_SetQDMode,"ax",%progbits
 271              		.align	2
 272              		.global	MessageTimer_SetQDMode
 273              		.code	16
ARM GAS  C:\Users\Sam\AppData\Local\Temp\ccTX1UXg.s 			page 11


 274              		.thumb_func
 275              		.type	MessageTimer_SetQDMode, %function
 276              	MessageTimer_SetQDMode:
 277              	.LFB5:
 298:.\Generated_Source\PSoC4/MessageTimer.c **** 
 299:.\Generated_Source\PSoC4/MessageTimer.c **** 
 300:.\Generated_Source\PSoC4/MessageTimer.c **** /*******************************************************************************
 301:.\Generated_Source\PSoC4/MessageTimer.c **** * Function Name: MessageTimer_SetQDMode
 302:.\Generated_Source\PSoC4/MessageTimer.c **** ********************************************************************************
 303:.\Generated_Source\PSoC4/MessageTimer.c **** *
 304:.\Generated_Source\PSoC4/MessageTimer.c **** * Summary:
 305:.\Generated_Source\PSoC4/MessageTimer.c **** *  Sets the the Quadrature Decoder to one of the 3 supported modes.
 306:.\Generated_Source\PSoC4/MessageTimer.c **** *  Its functionality is only applicable to Quadrature Decoder operation.
 307:.\Generated_Source\PSoC4/MessageTimer.c **** *
 308:.\Generated_Source\PSoC4/MessageTimer.c **** * Parameters:
 309:.\Generated_Source\PSoC4/MessageTimer.c **** *  qdMode: Quadrature Decoder mode
 310:.\Generated_Source\PSoC4/MessageTimer.c **** *   Values:
 311:.\Generated_Source\PSoC4/MessageTimer.c **** *         - MessageTimer_MODE_X1 - Counts on phi 1 rising
 312:.\Generated_Source\PSoC4/MessageTimer.c **** *         - MessageTimer_MODE_X2 - Counts on both edges of phi1 (2x faster)
 313:.\Generated_Source\PSoC4/MessageTimer.c **** *         - MessageTimer_MODE_X4 - Counts on both edges of phi1 and phi2
 314:.\Generated_Source\PSoC4/MessageTimer.c **** *                                        (4x faster)
 315:.\Generated_Source\PSoC4/MessageTimer.c **** *
 316:.\Generated_Source\PSoC4/MessageTimer.c **** * Return:
 317:.\Generated_Source\PSoC4/MessageTimer.c **** *  None
 318:.\Generated_Source\PSoC4/MessageTimer.c **** *
 319:.\Generated_Source\PSoC4/MessageTimer.c **** *******************************************************************************/
 320:.\Generated_Source\PSoC4/MessageTimer.c **** void MessageTimer_SetQDMode(uint32 qdMode)
 321:.\Generated_Source\PSoC4/MessageTimer.c **** {
 278              		.loc 1 321 0
 279              		.cfi_startproc
 280 0000 90B5     		push	{r4, r7, lr}
 281              		.cfi_def_cfa_offset 12
 282              		.cfi_offset 4, -12
 283              		.cfi_offset 7, -8
 284              		.cfi_offset 14, -4
 285 0002 85B0     		sub	sp, sp, #20
 286              		.cfi_def_cfa_offset 32
 287 0004 00AF     		add	r7, sp, #0
 288              		.cfi_def_cfa_register 7
 289 0006 7860     		str	r0, [r7, #4]
 322:.\Generated_Source\PSoC4/MessageTimer.c ****     uint8 enableInterrupts;
 323:.\Generated_Source\PSoC4/MessageTimer.c **** 
 324:.\Generated_Source\PSoC4/MessageTimer.c ****     enableInterrupts = CyEnterCriticalSection();
 290              		.loc 1 324 0
 291 0008 3C1C     		mov	r4, r7
 292 000a 0F34     		add	r4, r4, #15
 293 000c FFF7FEFF 		bl	CyEnterCriticalSection
 294 0010 031C     		mov	r3, r0
 295 0012 2370     		strb	r3, [r4]
 325:.\Generated_Source\PSoC4/MessageTimer.c **** 
 326:.\Generated_Source\PSoC4/MessageTimer.c ****     MessageTimer_CONTROL_REG &= (uint32)~MessageTimer_QUAD_MODE_MASK;
 296              		.loc 1 326 0
 297 0014 0A4B     		ldr	r3, .L18
 298 0016 0A4A     		ldr	r2, .L18
 299 0018 1168     		ldr	r1, [r2]
 300 001a 0A4A     		ldr	r2, .L18+4
 301 001c 0A40     		and	r2, r1
ARM GAS  C:\Users\Sam\AppData\Local\Temp\ccTX1UXg.s 			page 12


 302 001e 1A60     		str	r2, [r3]
 327:.\Generated_Source\PSoC4/MessageTimer.c ****     MessageTimer_CONTROL_REG |= qdMode;
 303              		.loc 1 327 0
 304 0020 074B     		ldr	r3, .L18
 305 0022 074A     		ldr	r2, .L18
 306 0024 1168     		ldr	r1, [r2]
 307 0026 7A68     		ldr	r2, [r7, #4]
 308 0028 0A43     		orr	r2, r1
 309 002a 1A60     		str	r2, [r3]
 328:.\Generated_Source\PSoC4/MessageTimer.c **** 
 329:.\Generated_Source\PSoC4/MessageTimer.c ****     CyExitCriticalSection(enableInterrupts);
 310              		.loc 1 329 0
 311 002c 3B1C     		mov	r3, r7
 312 002e 0F33     		add	r3, r3, #15
 313 0030 1B78     		ldrb	r3, [r3]
 314 0032 181C     		mov	r0, r3
 315 0034 FFF7FEFF 		bl	CyExitCriticalSection
 330:.\Generated_Source\PSoC4/MessageTimer.c **** }
 316              		.loc 1 330 0
 317 0038 BD46     		mov	sp, r7
 318 003a 05B0     		add	sp, sp, #20
 319              		@ sp needed
 320 003c 90BD     		pop	{r4, r7, pc}
 321              	.L19:
 322 003e C046     		.align	2
 323              	.L18:
 324 0040 00010540 		.word	1074069760
 325 0044 FFFF8FFF 		.word	-7340033
 326              		.cfi_endproc
 327              	.LFE5:
 328              		.size	MessageTimer_SetQDMode, .-MessageTimer_SetQDMode
 329              		.section	.text.MessageTimer_SetPrescaler,"ax",%progbits
 330              		.align	2
 331              		.global	MessageTimer_SetPrescaler
 332              		.code	16
 333              		.thumb_func
 334              		.type	MessageTimer_SetPrescaler, %function
 335              	MessageTimer_SetPrescaler:
 336              	.LFB6:
 331:.\Generated_Source\PSoC4/MessageTimer.c **** 
 332:.\Generated_Source\PSoC4/MessageTimer.c **** 
 333:.\Generated_Source\PSoC4/MessageTimer.c **** /*******************************************************************************
 334:.\Generated_Source\PSoC4/MessageTimer.c **** * Function Name: MessageTimer_SetPrescaler
 335:.\Generated_Source\PSoC4/MessageTimer.c **** ********************************************************************************
 336:.\Generated_Source\PSoC4/MessageTimer.c **** *
 337:.\Generated_Source\PSoC4/MessageTimer.c **** * Summary:
 338:.\Generated_Source\PSoC4/MessageTimer.c **** *  Sets the prescaler value that is applied to the clock input.  Not applicable
 339:.\Generated_Source\PSoC4/MessageTimer.c **** *  to a PWM with the dead time mode or Quadrature Decoder mode.
 340:.\Generated_Source\PSoC4/MessageTimer.c **** *
 341:.\Generated_Source\PSoC4/MessageTimer.c **** * Parameters:
 342:.\Generated_Source\PSoC4/MessageTimer.c **** *  prescaler: Prescaler divider value
 343:.\Generated_Source\PSoC4/MessageTimer.c **** *   Values:
 344:.\Generated_Source\PSoC4/MessageTimer.c **** *         - MessageTimer_PRESCALE_DIVBY1    - Divide by 1 (no prescaling)
 345:.\Generated_Source\PSoC4/MessageTimer.c **** *         - MessageTimer_PRESCALE_DIVBY2    - Divide by 2
 346:.\Generated_Source\PSoC4/MessageTimer.c **** *         - MessageTimer_PRESCALE_DIVBY4    - Divide by 4
 347:.\Generated_Source\PSoC4/MessageTimer.c **** *         - MessageTimer_PRESCALE_DIVBY8    - Divide by 8
 348:.\Generated_Source\PSoC4/MessageTimer.c **** *         - MessageTimer_PRESCALE_DIVBY16   - Divide by 16
ARM GAS  C:\Users\Sam\AppData\Local\Temp\ccTX1UXg.s 			page 13


 349:.\Generated_Source\PSoC4/MessageTimer.c **** *         - MessageTimer_PRESCALE_DIVBY32   - Divide by 32
 350:.\Generated_Source\PSoC4/MessageTimer.c **** *         - MessageTimer_PRESCALE_DIVBY64   - Divide by 64
 351:.\Generated_Source\PSoC4/MessageTimer.c **** *         - MessageTimer_PRESCALE_DIVBY128  - Divide by 128
 352:.\Generated_Source\PSoC4/MessageTimer.c **** *
 353:.\Generated_Source\PSoC4/MessageTimer.c **** * Return:
 354:.\Generated_Source\PSoC4/MessageTimer.c **** *  None
 355:.\Generated_Source\PSoC4/MessageTimer.c **** *
 356:.\Generated_Source\PSoC4/MessageTimer.c **** *******************************************************************************/
 357:.\Generated_Source\PSoC4/MessageTimer.c **** void MessageTimer_SetPrescaler(uint32 prescaler)
 358:.\Generated_Source\PSoC4/MessageTimer.c **** {
 337              		.loc 1 358 0
 338              		.cfi_startproc
 339 0000 90B5     		push	{r4, r7, lr}
 340              		.cfi_def_cfa_offset 12
 341              		.cfi_offset 4, -12
 342              		.cfi_offset 7, -8
 343              		.cfi_offset 14, -4
 344 0002 85B0     		sub	sp, sp, #20
 345              		.cfi_def_cfa_offset 32
 346 0004 00AF     		add	r7, sp, #0
 347              		.cfi_def_cfa_register 7
 348 0006 7860     		str	r0, [r7, #4]
 359:.\Generated_Source\PSoC4/MessageTimer.c ****     uint8 enableInterrupts;
 360:.\Generated_Source\PSoC4/MessageTimer.c **** 
 361:.\Generated_Source\PSoC4/MessageTimer.c ****     enableInterrupts = CyEnterCriticalSection();
 349              		.loc 1 361 0
 350 0008 3C1C     		mov	r4, r7
 351 000a 0F34     		add	r4, r4, #15
 352 000c FFF7FEFF 		bl	CyEnterCriticalSection
 353 0010 031C     		mov	r3, r0
 354 0012 2370     		strb	r3, [r4]
 362:.\Generated_Source\PSoC4/MessageTimer.c **** 
 363:.\Generated_Source\PSoC4/MessageTimer.c ****     MessageTimer_CONTROL_REG &= (uint32)~MessageTimer_PRESCALER_MASK;
 355              		.loc 1 363 0
 356 0014 0A4B     		ldr	r3, .L21
 357 0016 0A4A     		ldr	r2, .L21
 358 0018 1168     		ldr	r1, [r2]
 359 001a 0A4A     		ldr	r2, .L21+4
 360 001c 0A40     		and	r2, r1
 361 001e 1A60     		str	r2, [r3]
 364:.\Generated_Source\PSoC4/MessageTimer.c ****     MessageTimer_CONTROL_REG |= prescaler;
 362              		.loc 1 364 0
 363 0020 074B     		ldr	r3, .L21
 364 0022 074A     		ldr	r2, .L21
 365 0024 1168     		ldr	r1, [r2]
 366 0026 7A68     		ldr	r2, [r7, #4]
 367 0028 0A43     		orr	r2, r1
 368 002a 1A60     		str	r2, [r3]
 365:.\Generated_Source\PSoC4/MessageTimer.c **** 
 366:.\Generated_Source\PSoC4/MessageTimer.c ****     CyExitCriticalSection(enableInterrupts);
 369              		.loc 1 366 0
 370 002c 3B1C     		mov	r3, r7
 371 002e 0F33     		add	r3, r3, #15
 372 0030 1B78     		ldrb	r3, [r3]
 373 0032 181C     		mov	r0, r3
 374 0034 FFF7FEFF 		bl	CyExitCriticalSection
 367:.\Generated_Source\PSoC4/MessageTimer.c **** }
ARM GAS  C:\Users\Sam\AppData\Local\Temp\ccTX1UXg.s 			page 14


 375              		.loc 1 367 0
 376 0038 BD46     		mov	sp, r7
 377 003a 05B0     		add	sp, sp, #20
 378              		@ sp needed
 379 003c 90BD     		pop	{r4, r7, pc}
 380              	.L22:
 381 003e C046     		.align	2
 382              	.L21:
 383 0040 00010540 		.word	1074069760
 384 0044 FF00FFFF 		.word	-65281
 385              		.cfi_endproc
 386              	.LFE6:
 387              		.size	MessageTimer_SetPrescaler, .-MessageTimer_SetPrescaler
 388              		.section	.text.MessageTimer_SetOneShot,"ax",%progbits
 389              		.align	2
 390              		.global	MessageTimer_SetOneShot
 391              		.code	16
 392              		.thumb_func
 393              		.type	MessageTimer_SetOneShot, %function
 394              	MessageTimer_SetOneShot:
 395              	.LFB7:
 368:.\Generated_Source\PSoC4/MessageTimer.c **** 
 369:.\Generated_Source\PSoC4/MessageTimer.c **** 
 370:.\Generated_Source\PSoC4/MessageTimer.c **** /*******************************************************************************
 371:.\Generated_Source\PSoC4/MessageTimer.c **** * Function Name: MessageTimer_SetOneShot
 372:.\Generated_Source\PSoC4/MessageTimer.c **** ********************************************************************************
 373:.\Generated_Source\PSoC4/MessageTimer.c **** *
 374:.\Generated_Source\PSoC4/MessageTimer.c **** * Summary:
 375:.\Generated_Source\PSoC4/MessageTimer.c **** *  Writes the register that controls whether the MessageTimer runs
 376:.\Generated_Source\PSoC4/MessageTimer.c **** *  continuously or stops when terminal count is reached.  By default the
 377:.\Generated_Source\PSoC4/MessageTimer.c **** *  MessageTimer operates in the continuous mode.
 378:.\Generated_Source\PSoC4/MessageTimer.c **** *
 379:.\Generated_Source\PSoC4/MessageTimer.c **** * Parameters:
 380:.\Generated_Source\PSoC4/MessageTimer.c **** *  oneShotEnable
 381:.\Generated_Source\PSoC4/MessageTimer.c **** *   Values:
 382:.\Generated_Source\PSoC4/MessageTimer.c **** *     - 0 - Continuous
 383:.\Generated_Source\PSoC4/MessageTimer.c **** *     - 1 - Enable One Shot
 384:.\Generated_Source\PSoC4/MessageTimer.c **** *
 385:.\Generated_Source\PSoC4/MessageTimer.c **** * Return:
 386:.\Generated_Source\PSoC4/MessageTimer.c **** *  None
 387:.\Generated_Source\PSoC4/MessageTimer.c **** *
 388:.\Generated_Source\PSoC4/MessageTimer.c **** *******************************************************************************/
 389:.\Generated_Source\PSoC4/MessageTimer.c **** void MessageTimer_SetOneShot(uint32 oneShotEnable)
 390:.\Generated_Source\PSoC4/MessageTimer.c **** {
 396              		.loc 1 390 0
 397              		.cfi_startproc
 398 0000 90B5     		push	{r4, r7, lr}
 399              		.cfi_def_cfa_offset 12
 400              		.cfi_offset 4, -12
 401              		.cfi_offset 7, -8
 402              		.cfi_offset 14, -4
 403 0002 85B0     		sub	sp, sp, #20
 404              		.cfi_def_cfa_offset 32
 405 0004 00AF     		add	r7, sp, #0
 406              		.cfi_def_cfa_register 7
 407 0006 7860     		str	r0, [r7, #4]
 391:.\Generated_Source\PSoC4/MessageTimer.c ****     uint8 enableInterrupts;
ARM GAS  C:\Users\Sam\AppData\Local\Temp\ccTX1UXg.s 			page 15


 392:.\Generated_Source\PSoC4/MessageTimer.c **** 
 393:.\Generated_Source\PSoC4/MessageTimer.c ****     enableInterrupts = CyEnterCriticalSection();
 408              		.loc 1 393 0
 409 0008 3C1C     		mov	r4, r7
 410 000a 0F34     		add	r4, r4, #15
 411 000c FFF7FEFF 		bl	CyEnterCriticalSection
 412 0010 031C     		mov	r3, r0
 413 0012 2370     		strb	r3, [r4]
 394:.\Generated_Source\PSoC4/MessageTimer.c **** 
 395:.\Generated_Source\PSoC4/MessageTimer.c ****     MessageTimer_CONTROL_REG &= (uint32)~MessageTimer_ONESHOT_MASK;
 414              		.loc 1 395 0
 415 0014 0B4B     		ldr	r3, .L24
 416 0016 0B4A     		ldr	r2, .L24
 417 0018 1168     		ldr	r1, [r2]
 418 001a 0B4A     		ldr	r2, .L24+4
 419 001c 0A40     		and	r2, r1
 420 001e 1A60     		str	r2, [r3]
 396:.\Generated_Source\PSoC4/MessageTimer.c ****     MessageTimer_CONTROL_REG |= ((uint32)((oneShotEnable & MessageTimer_1BIT_MASK) <<
 421              		.loc 1 396 0
 422 0020 084B     		ldr	r3, .L24
 423 0022 084A     		ldr	r2, .L24
 424 0024 1168     		ldr	r1, [r2]
 425 0026 7868     		ldr	r0, [r7, #4]
 426 0028 0122     		mov	r2, #1
 427 002a 0240     		and	r2, r0
 428 002c 9204     		lsl	r2, r2, #18
 429 002e 0A43     		orr	r2, r1
 430 0030 1A60     		str	r2, [r3]
 397:.\Generated_Source\PSoC4/MessageTimer.c ****                                                                MessageTimer_ONESHOT_SHIFT));
 398:.\Generated_Source\PSoC4/MessageTimer.c **** 
 399:.\Generated_Source\PSoC4/MessageTimer.c ****     CyExitCriticalSection(enableInterrupts);
 431              		.loc 1 399 0
 432 0032 3B1C     		mov	r3, r7
 433 0034 0F33     		add	r3, r3, #15
 434 0036 1B78     		ldrb	r3, [r3]
 435 0038 181C     		mov	r0, r3
 436 003a FFF7FEFF 		bl	CyExitCriticalSection
 400:.\Generated_Source\PSoC4/MessageTimer.c **** }
 437              		.loc 1 400 0
 438 003e BD46     		mov	sp, r7
 439 0040 05B0     		add	sp, sp, #20
 440              		@ sp needed
 441 0042 90BD     		pop	{r4, r7, pc}
 442              	.L25:
 443              		.align	2
 444              	.L24:
 445 0044 00010540 		.word	1074069760
 446 0048 FFFFFBFF 		.word	-262145
 447              		.cfi_endproc
 448              	.LFE7:
 449              		.size	MessageTimer_SetOneShot, .-MessageTimer_SetOneShot
 450              		.section	.text.MessageTimer_SetPWMMode,"ax",%progbits
 451              		.align	2
 452              		.global	MessageTimer_SetPWMMode
 453              		.code	16
 454              		.thumb_func
 455              		.type	MessageTimer_SetPWMMode, %function
ARM GAS  C:\Users\Sam\AppData\Local\Temp\ccTX1UXg.s 			page 16


 456              	MessageTimer_SetPWMMode:
 457              	.LFB8:
 401:.\Generated_Source\PSoC4/MessageTimer.c **** 
 402:.\Generated_Source\PSoC4/MessageTimer.c **** 
 403:.\Generated_Source\PSoC4/MessageTimer.c **** /*******************************************************************************
 404:.\Generated_Source\PSoC4/MessageTimer.c **** * Function Name: MessageTimer_SetPWMMode
 405:.\Generated_Source\PSoC4/MessageTimer.c **** ********************************************************************************
 406:.\Generated_Source\PSoC4/MessageTimer.c **** *
 407:.\Generated_Source\PSoC4/MessageTimer.c **** * Summary:
 408:.\Generated_Source\PSoC4/MessageTimer.c **** *  Writes the control register that determines what mode of operation the PWM
 409:.\Generated_Source\PSoC4/MessageTimer.c **** *  output lines are driven in.  There is a setting for what to do on a
 410:.\Generated_Source\PSoC4/MessageTimer.c **** *  comparison match (CC_MATCH), on an overflow (OVERFLOW) and on an underflow
 411:.\Generated_Source\PSoC4/MessageTimer.c **** *  (UNDERFLOW).  The value for each of the three must be ORed together to form
 412:.\Generated_Source\PSoC4/MessageTimer.c **** *  the mode.
 413:.\Generated_Source\PSoC4/MessageTimer.c **** *
 414:.\Generated_Source\PSoC4/MessageTimer.c **** * Parameters:
 415:.\Generated_Source\PSoC4/MessageTimer.c **** *  modeMask: A combination of three mode settings.  Mask must include a value
 416:.\Generated_Source\PSoC4/MessageTimer.c **** *  for each of the three or use one of the preconfigured PWM settings.
 417:.\Generated_Source\PSoC4/MessageTimer.c **** *   Values:
 418:.\Generated_Source\PSoC4/MessageTimer.c **** *     - CC_MATCH_SET        - Set on comparison match
 419:.\Generated_Source\PSoC4/MessageTimer.c **** *     - CC_MATCH_CLEAR      - Clear on comparison match
 420:.\Generated_Source\PSoC4/MessageTimer.c **** *     - CC_MATCH_INVERT     - Invert on comparison match
 421:.\Generated_Source\PSoC4/MessageTimer.c **** *     - CC_MATCH_NO_CHANGE  - No change on comparison match
 422:.\Generated_Source\PSoC4/MessageTimer.c **** *     - OVERLOW_SET         - Set on overflow
 423:.\Generated_Source\PSoC4/MessageTimer.c **** *     - OVERLOW_CLEAR       - Clear on  overflow
 424:.\Generated_Source\PSoC4/MessageTimer.c **** *     - OVERLOW_INVERT      - Invert on overflow
 425:.\Generated_Source\PSoC4/MessageTimer.c **** *     - OVERLOW_NO_CHANGE   - No change on overflow
 426:.\Generated_Source\PSoC4/MessageTimer.c **** *     - UNDERFLOW_SET       - Set on underflow
 427:.\Generated_Source\PSoC4/MessageTimer.c **** *     - UNDERFLOW_CLEAR     - Clear on underflow
 428:.\Generated_Source\PSoC4/MessageTimer.c **** *     - UNDERFLOW_INVERT    - Invert on underflow
 429:.\Generated_Source\PSoC4/MessageTimer.c **** *     - UNDERFLOW_NO_CHANGE - No change on underflow
 430:.\Generated_Source\PSoC4/MessageTimer.c **** *     - PWM_MODE_LEFT       - Setting for left aligned PWM.  Should be combined
 431:.\Generated_Source\PSoC4/MessageTimer.c **** *                             with up counting mode
 432:.\Generated_Source\PSoC4/MessageTimer.c **** *     - PWM_MODE_RIGHT      - Setting for right aligned PWM.  Should be combined
 433:.\Generated_Source\PSoC4/MessageTimer.c **** *                             with down counting mode
 434:.\Generated_Source\PSoC4/MessageTimer.c **** *     - PWM_MODE_CENTER     - Setting for center aligned PWM.  Should be
 435:.\Generated_Source\PSoC4/MessageTimer.c **** *                             combined with up/down 0 mode
 436:.\Generated_Source\PSoC4/MessageTimer.c **** *     - PWM_MODE_ASYM       - Setting for asymmetric PWM.  Should be combined
 437:.\Generated_Source\PSoC4/MessageTimer.c **** *                             with up/down 1 mode
 438:.\Generated_Source\PSoC4/MessageTimer.c **** *
 439:.\Generated_Source\PSoC4/MessageTimer.c **** * Return:
 440:.\Generated_Source\PSoC4/MessageTimer.c **** *  None
 441:.\Generated_Source\PSoC4/MessageTimer.c **** *
 442:.\Generated_Source\PSoC4/MessageTimer.c **** *******************************************************************************/
 443:.\Generated_Source\PSoC4/MessageTimer.c **** void MessageTimer_SetPWMMode(uint32 modeMask)
 444:.\Generated_Source\PSoC4/MessageTimer.c **** {
 458              		.loc 1 444 0
 459              		.cfi_startproc
 460 0000 80B5     		push	{r7, lr}
 461              		.cfi_def_cfa_offset 8
 462              		.cfi_offset 7, -8
 463              		.cfi_offset 14, -4
 464 0002 82B0     		sub	sp, sp, #8
 465              		.cfi_def_cfa_offset 16
 466 0004 00AF     		add	r7, sp, #0
 467              		.cfi_def_cfa_register 7
 468 0006 7860     		str	r0, [r7, #4]
ARM GAS  C:\Users\Sam\AppData\Local\Temp\ccTX1UXg.s 			page 17


 445:.\Generated_Source\PSoC4/MessageTimer.c ****     MessageTimer_TRIG_CONTROL2_REG = (modeMask & MessageTimer_6BIT_MASK);
 469              		.loc 1 445 0
 470 0008 034B     		ldr	r3, .L27
 471 000a 7968     		ldr	r1, [r7, #4]
 472 000c 3F22     		mov	r2, #63
 473 000e 0A40     		and	r2, r1
 474 0010 1A60     		str	r2, [r3]
 446:.\Generated_Source\PSoC4/MessageTimer.c **** }
 475              		.loc 1 446 0
 476 0012 BD46     		mov	sp, r7
 477 0014 02B0     		add	sp, sp, #8
 478              		@ sp needed
 479 0016 80BD     		pop	{r7, pc}
 480              	.L28:
 481              		.align	2
 482              	.L27:
 483 0018 28010540 		.word	1074069800
 484              		.cfi_endproc
 485              	.LFE8:
 486              		.size	MessageTimer_SetPWMMode, .-MessageTimer_SetPWMMode
 487              		.section	.text.MessageTimer_SetPWMSyncKill,"ax",%progbits
 488              		.align	2
 489              		.global	MessageTimer_SetPWMSyncKill
 490              		.code	16
 491              		.thumb_func
 492              		.type	MessageTimer_SetPWMSyncKill, %function
 493              	MessageTimer_SetPWMSyncKill:
 494              	.LFB9:
 447:.\Generated_Source\PSoC4/MessageTimer.c **** 
 448:.\Generated_Source\PSoC4/MessageTimer.c **** 
 449:.\Generated_Source\PSoC4/MessageTimer.c **** 
 450:.\Generated_Source\PSoC4/MessageTimer.c **** /*******************************************************************************
 451:.\Generated_Source\PSoC4/MessageTimer.c **** * Function Name: MessageTimer_SetPWMSyncKill
 452:.\Generated_Source\PSoC4/MessageTimer.c **** ********************************************************************************
 453:.\Generated_Source\PSoC4/MessageTimer.c **** *
 454:.\Generated_Source\PSoC4/MessageTimer.c **** * Summary:
 455:.\Generated_Source\PSoC4/MessageTimer.c **** *  Writes the register that controls whether the PWM kill signal (stop input)
 456:.\Generated_Source\PSoC4/MessageTimer.c **** *  causes asynchronous or synchronous kill operation.  By default the kill
 457:.\Generated_Source\PSoC4/MessageTimer.c **** *  operation is asynchronous.  This functionality is only applicable to the PWM
 458:.\Generated_Source\PSoC4/MessageTimer.c **** *  and PWM with dead time modes.
 459:.\Generated_Source\PSoC4/MessageTimer.c **** *
 460:.\Generated_Source\PSoC4/MessageTimer.c **** *  For Synchronous mode the kill signal disables both the line and line_n
 461:.\Generated_Source\PSoC4/MessageTimer.c **** *  signals until the next terminal count.
 462:.\Generated_Source\PSoC4/MessageTimer.c **** *
 463:.\Generated_Source\PSoC4/MessageTimer.c **** *  For Asynchronous mode the kill signal disables both the line and line_n
 464:.\Generated_Source\PSoC4/MessageTimer.c **** *  signals when the kill signal is present.  This mode should only be used
 465:.\Generated_Source\PSoC4/MessageTimer.c **** *  when the kill signal (stop input) is configured in the pass through mode
 466:.\Generated_Source\PSoC4/MessageTimer.c **** *  (Level sensitive signal).
 467:.\Generated_Source\PSoC4/MessageTimer.c **** 
 468:.\Generated_Source\PSoC4/MessageTimer.c **** *
 469:.\Generated_Source\PSoC4/MessageTimer.c **** * Parameters:
 470:.\Generated_Source\PSoC4/MessageTimer.c **** *  syncKillEnable
 471:.\Generated_Source\PSoC4/MessageTimer.c **** *   Values:
 472:.\Generated_Source\PSoC4/MessageTimer.c **** *     - 0 - Asynchronous
 473:.\Generated_Source\PSoC4/MessageTimer.c **** *     - 1 - Synchronous
 474:.\Generated_Source\PSoC4/MessageTimer.c **** *
 475:.\Generated_Source\PSoC4/MessageTimer.c **** * Return:
ARM GAS  C:\Users\Sam\AppData\Local\Temp\ccTX1UXg.s 			page 18


 476:.\Generated_Source\PSoC4/MessageTimer.c **** *  None
 477:.\Generated_Source\PSoC4/MessageTimer.c **** *
 478:.\Generated_Source\PSoC4/MessageTimer.c **** *******************************************************************************/
 479:.\Generated_Source\PSoC4/MessageTimer.c **** void MessageTimer_SetPWMSyncKill(uint32 syncKillEnable)
 480:.\Generated_Source\PSoC4/MessageTimer.c **** {
 495              		.loc 1 480 0
 496              		.cfi_startproc
 497 0000 90B5     		push	{r4, r7, lr}
 498              		.cfi_def_cfa_offset 12
 499              		.cfi_offset 4, -12
 500              		.cfi_offset 7, -8
 501              		.cfi_offset 14, -4
 502 0002 85B0     		sub	sp, sp, #20
 503              		.cfi_def_cfa_offset 32
 504 0004 00AF     		add	r7, sp, #0
 505              		.cfi_def_cfa_register 7
 506 0006 7860     		str	r0, [r7, #4]
 481:.\Generated_Source\PSoC4/MessageTimer.c ****     uint8 enableInterrupts;
 482:.\Generated_Source\PSoC4/MessageTimer.c **** 
 483:.\Generated_Source\PSoC4/MessageTimer.c ****     enableInterrupts = CyEnterCriticalSection();
 507              		.loc 1 483 0
 508 0008 3C1C     		mov	r4, r7
 509 000a 0F34     		add	r4, r4, #15
 510 000c FFF7FEFF 		bl	CyEnterCriticalSection
 511 0010 031C     		mov	r3, r0
 512 0012 2370     		strb	r3, [r4]
 484:.\Generated_Source\PSoC4/MessageTimer.c **** 
 485:.\Generated_Source\PSoC4/MessageTimer.c ****     MessageTimer_CONTROL_REG &= (uint32)~MessageTimer_PWM_SYNC_KILL_MASK;
 513              		.loc 1 485 0
 514 0014 0B4B     		ldr	r3, .L30
 515 0016 0B4A     		ldr	r2, .L30
 516 0018 1268     		ldr	r2, [r2]
 517 001a 0421     		mov	r1, #4
 518 001c 8A43     		bic	r2, r1
 519 001e 1A60     		str	r2, [r3]
 486:.\Generated_Source\PSoC4/MessageTimer.c ****     MessageTimer_CONTROL_REG |= ((uint32)((syncKillEnable & MessageTimer_1BIT_MASK)  <<
 520              		.loc 1 486 0
 521 0020 084B     		ldr	r3, .L30
 522 0022 084A     		ldr	r2, .L30
 523 0024 1168     		ldr	r1, [r2]
 524 0026 7868     		ldr	r0, [r7, #4]
 525 0028 0122     		mov	r2, #1
 526 002a 0240     		and	r2, r0
 527 002c 9200     		lsl	r2, r2, #2
 528 002e 0A43     		orr	r2, r1
 529 0030 1A60     		str	r2, [r3]
 487:.\Generated_Source\PSoC4/MessageTimer.c ****                                                MessageTimer_PWM_SYNC_KILL_SHIFT));
 488:.\Generated_Source\PSoC4/MessageTimer.c **** 
 489:.\Generated_Source\PSoC4/MessageTimer.c ****     CyExitCriticalSection(enableInterrupts);
 530              		.loc 1 489 0
 531 0032 3B1C     		mov	r3, r7
 532 0034 0F33     		add	r3, r3, #15
 533 0036 1B78     		ldrb	r3, [r3]
 534 0038 181C     		mov	r0, r3
 535 003a FFF7FEFF 		bl	CyExitCriticalSection
 490:.\Generated_Source\PSoC4/MessageTimer.c **** }
 536              		.loc 1 490 0
ARM GAS  C:\Users\Sam\AppData\Local\Temp\ccTX1UXg.s 			page 19


 537 003e BD46     		mov	sp, r7
 538 0040 05B0     		add	sp, sp, #20
 539              		@ sp needed
 540 0042 90BD     		pop	{r4, r7, pc}
 541              	.L31:
 542              		.align	2
 543              	.L30:
 544 0044 00010540 		.word	1074069760
 545              		.cfi_endproc
 546              	.LFE9:
 547              		.size	MessageTimer_SetPWMSyncKill, .-MessageTimer_SetPWMSyncKill
 548              		.section	.text.MessageTimer_SetPWMStopOnKill,"ax",%progbits
 549              		.align	2
 550              		.global	MessageTimer_SetPWMStopOnKill
 551              		.code	16
 552              		.thumb_func
 553              		.type	MessageTimer_SetPWMStopOnKill, %function
 554              	MessageTimer_SetPWMStopOnKill:
 555              	.LFB10:
 491:.\Generated_Source\PSoC4/MessageTimer.c **** 
 492:.\Generated_Source\PSoC4/MessageTimer.c **** 
 493:.\Generated_Source\PSoC4/MessageTimer.c **** /*******************************************************************************
 494:.\Generated_Source\PSoC4/MessageTimer.c **** * Function Name: MessageTimer_SetPWMStopOnKill
 495:.\Generated_Source\PSoC4/MessageTimer.c **** ********************************************************************************
 496:.\Generated_Source\PSoC4/MessageTimer.c **** *
 497:.\Generated_Source\PSoC4/MessageTimer.c **** * Summary:
 498:.\Generated_Source\PSoC4/MessageTimer.c **** *  Writes the register that controls whether the PWM kill signal (stop input)
 499:.\Generated_Source\PSoC4/MessageTimer.c **** *  causes the PWM counter to stop.  By default the kill operation does not stop
 500:.\Generated_Source\PSoC4/MessageTimer.c **** *  the counter.  This functionality is only applicable to the three PWM modes.
 501:.\Generated_Source\PSoC4/MessageTimer.c **** *
 502:.\Generated_Source\PSoC4/MessageTimer.c **** *
 503:.\Generated_Source\PSoC4/MessageTimer.c **** * Parameters:
 504:.\Generated_Source\PSoC4/MessageTimer.c **** *  stopOnKillEnable
 505:.\Generated_Source\PSoC4/MessageTimer.c **** *   Values:
 506:.\Generated_Source\PSoC4/MessageTimer.c **** *     - 0 - Don't stop
 507:.\Generated_Source\PSoC4/MessageTimer.c **** *     - 1 - Stop
 508:.\Generated_Source\PSoC4/MessageTimer.c **** *
 509:.\Generated_Source\PSoC4/MessageTimer.c **** * Return:
 510:.\Generated_Source\PSoC4/MessageTimer.c **** *  None
 511:.\Generated_Source\PSoC4/MessageTimer.c **** *
 512:.\Generated_Source\PSoC4/MessageTimer.c **** *******************************************************************************/
 513:.\Generated_Source\PSoC4/MessageTimer.c **** void MessageTimer_SetPWMStopOnKill(uint32 stopOnKillEnable)
 514:.\Generated_Source\PSoC4/MessageTimer.c **** {
 556              		.loc 1 514 0
 557              		.cfi_startproc
 558 0000 90B5     		push	{r4, r7, lr}
 559              		.cfi_def_cfa_offset 12
 560              		.cfi_offset 4, -12
 561              		.cfi_offset 7, -8
 562              		.cfi_offset 14, -4
 563 0002 85B0     		sub	sp, sp, #20
 564              		.cfi_def_cfa_offset 32
 565 0004 00AF     		add	r7, sp, #0
 566              		.cfi_def_cfa_register 7
 567 0006 7860     		str	r0, [r7, #4]
 515:.\Generated_Source\PSoC4/MessageTimer.c ****     uint8 enableInterrupts;
 516:.\Generated_Source\PSoC4/MessageTimer.c **** 
ARM GAS  C:\Users\Sam\AppData\Local\Temp\ccTX1UXg.s 			page 20


 517:.\Generated_Source\PSoC4/MessageTimer.c ****     enableInterrupts = CyEnterCriticalSection();
 568              		.loc 1 517 0
 569 0008 3C1C     		mov	r4, r7
 570 000a 0F34     		add	r4, r4, #15
 571 000c FFF7FEFF 		bl	CyEnterCriticalSection
 572 0010 031C     		mov	r3, r0
 573 0012 2370     		strb	r3, [r4]
 518:.\Generated_Source\PSoC4/MessageTimer.c **** 
 519:.\Generated_Source\PSoC4/MessageTimer.c ****     MessageTimer_CONTROL_REG &= (uint32)~MessageTimer_PWM_STOP_KILL_MASK;
 574              		.loc 1 519 0
 575 0014 0B4B     		ldr	r3, .L33
 576 0016 0B4A     		ldr	r2, .L33
 577 0018 1268     		ldr	r2, [r2]
 578 001a 0821     		mov	r1, #8
 579 001c 8A43     		bic	r2, r1
 580 001e 1A60     		str	r2, [r3]
 520:.\Generated_Source\PSoC4/MessageTimer.c ****     MessageTimer_CONTROL_REG |= ((uint32)((stopOnKillEnable & MessageTimer_1BIT_MASK)  <<
 581              		.loc 1 520 0
 582 0020 084B     		ldr	r3, .L33
 583 0022 084A     		ldr	r2, .L33
 584 0024 1168     		ldr	r1, [r2]
 585 0026 7868     		ldr	r0, [r7, #4]
 586 0028 0122     		mov	r2, #1
 587 002a 0240     		and	r2, r0
 588 002c D200     		lsl	r2, r2, #3
 589 002e 0A43     		orr	r2, r1
 590 0030 1A60     		str	r2, [r3]
 521:.\Generated_Source\PSoC4/MessageTimer.c ****                                                          MessageTimer_PWM_STOP_KILL_SHIFT));
 522:.\Generated_Source\PSoC4/MessageTimer.c **** 
 523:.\Generated_Source\PSoC4/MessageTimer.c ****     CyExitCriticalSection(enableInterrupts);
 591              		.loc 1 523 0
 592 0032 3B1C     		mov	r3, r7
 593 0034 0F33     		add	r3, r3, #15
 594 0036 1B78     		ldrb	r3, [r3]
 595 0038 181C     		mov	r0, r3
 596 003a FFF7FEFF 		bl	CyExitCriticalSection
 524:.\Generated_Source\PSoC4/MessageTimer.c **** }
 597              		.loc 1 524 0
 598 003e BD46     		mov	sp, r7
 599 0040 05B0     		add	sp, sp, #20
 600              		@ sp needed
 601 0042 90BD     		pop	{r4, r7, pc}
 602              	.L34:
 603              		.align	2
 604              	.L33:
 605 0044 00010540 		.word	1074069760
 606              		.cfi_endproc
 607              	.LFE10:
 608              		.size	MessageTimer_SetPWMStopOnKill, .-MessageTimer_SetPWMStopOnKill
 609              		.section	.text.MessageTimer_SetPWMDeadTime,"ax",%progbits
 610              		.align	2
 611              		.global	MessageTimer_SetPWMDeadTime
 612              		.code	16
 613              		.thumb_func
 614              		.type	MessageTimer_SetPWMDeadTime, %function
 615              	MessageTimer_SetPWMDeadTime:
 616              	.LFB11:
ARM GAS  C:\Users\Sam\AppData\Local\Temp\ccTX1UXg.s 			page 21


 525:.\Generated_Source\PSoC4/MessageTimer.c **** 
 526:.\Generated_Source\PSoC4/MessageTimer.c **** 
 527:.\Generated_Source\PSoC4/MessageTimer.c **** /*******************************************************************************
 528:.\Generated_Source\PSoC4/MessageTimer.c **** * Function Name: MessageTimer_SetPWMDeadTime
 529:.\Generated_Source\PSoC4/MessageTimer.c **** ********************************************************************************
 530:.\Generated_Source\PSoC4/MessageTimer.c **** *
 531:.\Generated_Source\PSoC4/MessageTimer.c **** * Summary:
 532:.\Generated_Source\PSoC4/MessageTimer.c **** *  Writes the dead time control value.  This value delays the rising edge of
 533:.\Generated_Source\PSoC4/MessageTimer.c **** *  both the line and line_n signals the designated number of cycles resulting
 534:.\Generated_Source\PSoC4/MessageTimer.c **** *  in both signals being inactive for that many cycles.  This functionality is
 535:.\Generated_Source\PSoC4/MessageTimer.c **** *  only applicable to the PWM in the dead time mode.
 536:.\Generated_Source\PSoC4/MessageTimer.c **** 
 537:.\Generated_Source\PSoC4/MessageTimer.c **** *
 538:.\Generated_Source\PSoC4/MessageTimer.c **** * Parameters:
 539:.\Generated_Source\PSoC4/MessageTimer.c **** *  Dead time to insert
 540:.\Generated_Source\PSoC4/MessageTimer.c **** *   Values: 0 to 255
 541:.\Generated_Source\PSoC4/MessageTimer.c **** *
 542:.\Generated_Source\PSoC4/MessageTimer.c **** * Return:
 543:.\Generated_Source\PSoC4/MessageTimer.c **** *  None
 544:.\Generated_Source\PSoC4/MessageTimer.c **** *
 545:.\Generated_Source\PSoC4/MessageTimer.c **** *******************************************************************************/
 546:.\Generated_Source\PSoC4/MessageTimer.c **** void MessageTimer_SetPWMDeadTime(uint32 deadTime)
 547:.\Generated_Source\PSoC4/MessageTimer.c **** {
 617              		.loc 1 547 0
 618              		.cfi_startproc
 619 0000 90B5     		push	{r4, r7, lr}
 620              		.cfi_def_cfa_offset 12
 621              		.cfi_offset 4, -12
 622              		.cfi_offset 7, -8
 623              		.cfi_offset 14, -4
 624 0002 85B0     		sub	sp, sp, #20
 625              		.cfi_def_cfa_offset 32
 626 0004 00AF     		add	r7, sp, #0
 627              		.cfi_def_cfa_register 7
 628 0006 7860     		str	r0, [r7, #4]
 548:.\Generated_Source\PSoC4/MessageTimer.c ****     uint8 enableInterrupts;
 549:.\Generated_Source\PSoC4/MessageTimer.c **** 
 550:.\Generated_Source\PSoC4/MessageTimer.c ****     enableInterrupts = CyEnterCriticalSection();
 629              		.loc 1 550 0
 630 0008 3C1C     		mov	r4, r7
 631 000a 0F34     		add	r4, r4, #15
 632 000c FFF7FEFF 		bl	CyEnterCriticalSection
 633 0010 031C     		mov	r3, r0
 634 0012 2370     		strb	r3, [r4]
 551:.\Generated_Source\PSoC4/MessageTimer.c **** 
 552:.\Generated_Source\PSoC4/MessageTimer.c ****     MessageTimer_CONTROL_REG &= (uint32)~MessageTimer_PRESCALER_MASK;
 635              		.loc 1 552 0
 636 0014 0B4B     		ldr	r3, .L36
 637 0016 0B4A     		ldr	r2, .L36
 638 0018 1168     		ldr	r1, [r2]
 639 001a 0B4A     		ldr	r2, .L36+4
 640 001c 0A40     		and	r2, r1
 641 001e 1A60     		str	r2, [r3]
 553:.\Generated_Source\PSoC4/MessageTimer.c ****     MessageTimer_CONTROL_REG |= ((uint32)((deadTime & MessageTimer_8BIT_MASK) <<
 642              		.loc 1 553 0
 643 0020 084B     		ldr	r3, .L36
 644 0022 084A     		ldr	r2, .L36
ARM GAS  C:\Users\Sam\AppData\Local\Temp\ccTX1UXg.s 			page 22


 645 0024 1168     		ldr	r1, [r2]
 646 0026 7A68     		ldr	r2, [r7, #4]
 647 0028 1202     		lsl	r2, r2, #8
 648 002a 1204     		lsl	r2, r2, #16
 649 002c 120C     		lsr	r2, r2, #16
 650 002e 0A43     		orr	r2, r1
 651 0030 1A60     		str	r2, [r3]
 554:.\Generated_Source\PSoC4/MessageTimer.c ****                                                           MessageTimer_PRESCALER_SHIFT));
 555:.\Generated_Source\PSoC4/MessageTimer.c **** 
 556:.\Generated_Source\PSoC4/MessageTimer.c ****     CyExitCriticalSection(enableInterrupts);
 652              		.loc 1 556 0
 653 0032 3B1C     		mov	r3, r7
 654 0034 0F33     		add	r3, r3, #15
 655 0036 1B78     		ldrb	r3, [r3]
 656 0038 181C     		mov	r0, r3
 657 003a FFF7FEFF 		bl	CyExitCriticalSection
 557:.\Generated_Source\PSoC4/MessageTimer.c **** }
 658              		.loc 1 557 0
 659 003e BD46     		mov	sp, r7
 660 0040 05B0     		add	sp, sp, #20
 661              		@ sp needed
 662 0042 90BD     		pop	{r4, r7, pc}
 663              	.L37:
 664              		.align	2
 665              	.L36:
 666 0044 00010540 		.word	1074069760
 667 0048 FF00FFFF 		.word	-65281
 668              		.cfi_endproc
 669              	.LFE11:
 670              		.size	MessageTimer_SetPWMDeadTime, .-MessageTimer_SetPWMDeadTime
 671              		.section	.text.MessageTimer_SetPWMInvert,"ax",%progbits
 672              		.align	2
 673              		.global	MessageTimer_SetPWMInvert
 674              		.code	16
 675              		.thumb_func
 676              		.type	MessageTimer_SetPWMInvert, %function
 677              	MessageTimer_SetPWMInvert:
 678              	.LFB12:
 558:.\Generated_Source\PSoC4/MessageTimer.c **** 
 559:.\Generated_Source\PSoC4/MessageTimer.c **** 
 560:.\Generated_Source\PSoC4/MessageTimer.c **** /*******************************************************************************
 561:.\Generated_Source\PSoC4/MessageTimer.c **** * Function Name: MessageTimer_SetPWMInvert
 562:.\Generated_Source\PSoC4/MessageTimer.c **** ********************************************************************************
 563:.\Generated_Source\PSoC4/MessageTimer.c **** *
 564:.\Generated_Source\PSoC4/MessageTimer.c **** * Summary:
 565:.\Generated_Source\PSoC4/MessageTimer.c **** *  Writes the bits that control whether the line and line_n outputs are
 566:.\Generated_Source\PSoC4/MessageTimer.c **** *  inverted from their normal output values.  This functionality is only
 567:.\Generated_Source\PSoC4/MessageTimer.c **** *  applicable to the three PWM modes.
 568:.\Generated_Source\PSoC4/MessageTimer.c **** *
 569:.\Generated_Source\PSoC4/MessageTimer.c **** * Parameters:
 570:.\Generated_Source\PSoC4/MessageTimer.c **** *  mask: Mask of outputs to invert.
 571:.\Generated_Source\PSoC4/MessageTimer.c **** *   Values:
 572:.\Generated_Source\PSoC4/MessageTimer.c **** *         - MessageTimer_INVERT_LINE   - Inverts the line output
 573:.\Generated_Source\PSoC4/MessageTimer.c **** *         - MessageTimer_INVERT_LINE_N - Inverts the line_n output
 574:.\Generated_Source\PSoC4/MessageTimer.c **** *
 575:.\Generated_Source\PSoC4/MessageTimer.c **** * Return:
 576:.\Generated_Source\PSoC4/MessageTimer.c **** *  None
ARM GAS  C:\Users\Sam\AppData\Local\Temp\ccTX1UXg.s 			page 23


 577:.\Generated_Source\PSoC4/MessageTimer.c **** *
 578:.\Generated_Source\PSoC4/MessageTimer.c **** *******************************************************************************/
 579:.\Generated_Source\PSoC4/MessageTimer.c **** void MessageTimer_SetPWMInvert(uint32 mask)
 580:.\Generated_Source\PSoC4/MessageTimer.c **** {
 679              		.loc 1 580 0
 680              		.cfi_startproc
 681 0000 90B5     		push	{r4, r7, lr}
 682              		.cfi_def_cfa_offset 12
 683              		.cfi_offset 4, -12
 684              		.cfi_offset 7, -8
 685              		.cfi_offset 14, -4
 686 0002 85B0     		sub	sp, sp, #20
 687              		.cfi_def_cfa_offset 32
 688 0004 00AF     		add	r7, sp, #0
 689              		.cfi_def_cfa_register 7
 690 0006 7860     		str	r0, [r7, #4]
 581:.\Generated_Source\PSoC4/MessageTimer.c ****     uint8 enableInterrupts;
 582:.\Generated_Source\PSoC4/MessageTimer.c **** 
 583:.\Generated_Source\PSoC4/MessageTimer.c ****     enableInterrupts = CyEnterCriticalSection();
 691              		.loc 1 583 0
 692 0008 3C1C     		mov	r4, r7
 693 000a 0F34     		add	r4, r4, #15
 694 000c FFF7FEFF 		bl	CyEnterCriticalSection
 695 0010 031C     		mov	r3, r0
 696 0012 2370     		strb	r3, [r4]
 584:.\Generated_Source\PSoC4/MessageTimer.c **** 
 585:.\Generated_Source\PSoC4/MessageTimer.c ****     MessageTimer_CONTROL_REG &= (uint32)~MessageTimer_INV_OUT_MASK;
 697              		.loc 1 585 0
 698 0014 0A4B     		ldr	r3, .L39
 699 0016 0A4A     		ldr	r2, .L39
 700 0018 1168     		ldr	r1, [r2]
 701 001a 0A4A     		ldr	r2, .L39+4
 702 001c 0A40     		and	r2, r1
 703 001e 1A60     		str	r2, [r3]
 586:.\Generated_Source\PSoC4/MessageTimer.c ****     MessageTimer_CONTROL_REG |= mask;
 704              		.loc 1 586 0
 705 0020 074B     		ldr	r3, .L39
 706 0022 074A     		ldr	r2, .L39
 707 0024 1168     		ldr	r1, [r2]
 708 0026 7A68     		ldr	r2, [r7, #4]
 709 0028 0A43     		orr	r2, r1
 710 002a 1A60     		str	r2, [r3]
 587:.\Generated_Source\PSoC4/MessageTimer.c **** 
 588:.\Generated_Source\PSoC4/MessageTimer.c ****     CyExitCriticalSection(enableInterrupts);
 711              		.loc 1 588 0
 712 002c 3B1C     		mov	r3, r7
 713 002e 0F33     		add	r3, r3, #15
 714 0030 1B78     		ldrb	r3, [r3]
 715 0032 181C     		mov	r0, r3
 716 0034 FFF7FEFF 		bl	CyExitCriticalSection
 589:.\Generated_Source\PSoC4/MessageTimer.c **** }
 717              		.loc 1 589 0
 718 0038 BD46     		mov	sp, r7
 719 003a 05B0     		add	sp, sp, #20
 720              		@ sp needed
 721 003c 90BD     		pop	{r4, r7, pc}
 722              	.L40:
ARM GAS  C:\Users\Sam\AppData\Local\Temp\ccTX1UXg.s 			page 24


 723 003e C046     		.align	2
 724              	.L39:
 725 0040 00010540 		.word	1074069760
 726 0044 FFFFCFFF 		.word	-3145729
 727              		.cfi_endproc
 728              	.LFE12:
 729              		.size	MessageTimer_SetPWMInvert, .-MessageTimer_SetPWMInvert
 730              		.section	.text.MessageTimer_WriteCounter,"ax",%progbits
 731              		.align	2
 732              		.global	MessageTimer_WriteCounter
 733              		.code	16
 734              		.thumb_func
 735              		.type	MessageTimer_WriteCounter, %function
 736              	MessageTimer_WriteCounter:
 737              	.LFB13:
 590:.\Generated_Source\PSoC4/MessageTimer.c **** 
 591:.\Generated_Source\PSoC4/MessageTimer.c **** 
 592:.\Generated_Source\PSoC4/MessageTimer.c **** 
 593:.\Generated_Source\PSoC4/MessageTimer.c **** /*******************************************************************************
 594:.\Generated_Source\PSoC4/MessageTimer.c **** * Function Name: MessageTimer_WriteCounter
 595:.\Generated_Source\PSoC4/MessageTimer.c **** ********************************************************************************
 596:.\Generated_Source\PSoC4/MessageTimer.c **** *
 597:.\Generated_Source\PSoC4/MessageTimer.c **** * Summary:
 598:.\Generated_Source\PSoC4/MessageTimer.c **** *  Writes a new 16bit counter value directly into the counter register, thus
 599:.\Generated_Source\PSoC4/MessageTimer.c **** *  setting the counter (not the period) to the value written. It is not
 600:.\Generated_Source\PSoC4/MessageTimer.c **** *  advised to write to this field when the counter is running.
 601:.\Generated_Source\PSoC4/MessageTimer.c **** *
 602:.\Generated_Source\PSoC4/MessageTimer.c **** * Parameters:
 603:.\Generated_Source\PSoC4/MessageTimer.c **** *  count: value to write
 604:.\Generated_Source\PSoC4/MessageTimer.c **** *
 605:.\Generated_Source\PSoC4/MessageTimer.c **** * Return:
 606:.\Generated_Source\PSoC4/MessageTimer.c **** *  None
 607:.\Generated_Source\PSoC4/MessageTimer.c **** *
 608:.\Generated_Source\PSoC4/MessageTimer.c **** *******************************************************************************/
 609:.\Generated_Source\PSoC4/MessageTimer.c **** void MessageTimer_WriteCounter(uint32 count)
 610:.\Generated_Source\PSoC4/MessageTimer.c **** {
 738              		.loc 1 610 0
 739              		.cfi_startproc
 740 0000 80B5     		push	{r7, lr}
 741              		.cfi_def_cfa_offset 8
 742              		.cfi_offset 7, -8
 743              		.cfi_offset 14, -4
 744 0002 82B0     		sub	sp, sp, #8
 745              		.cfi_def_cfa_offset 16
 746 0004 00AF     		add	r7, sp, #0
 747              		.cfi_def_cfa_register 7
 748 0006 7860     		str	r0, [r7, #4]
 611:.\Generated_Source\PSoC4/MessageTimer.c ****     MessageTimer_COUNTER_REG = (count & MessageTimer_16BIT_MASK);
 749              		.loc 1 611 0
 750 0008 034B     		ldr	r3, .L42
 751 000a 7A68     		ldr	r2, [r7, #4]
 752 000c 1204     		lsl	r2, r2, #16
 753 000e 120C     		lsr	r2, r2, #16
 754 0010 1A60     		str	r2, [r3]
 612:.\Generated_Source\PSoC4/MessageTimer.c **** }
 755              		.loc 1 612 0
 756 0012 BD46     		mov	sp, r7
ARM GAS  C:\Users\Sam\AppData\Local\Temp\ccTX1UXg.s 			page 25


 757 0014 02B0     		add	sp, sp, #8
 758              		@ sp needed
 759 0016 80BD     		pop	{r7, pc}
 760              	.L43:
 761              		.align	2
 762              	.L42:
 763 0018 08010540 		.word	1074069768
 764              		.cfi_endproc
 765              	.LFE13:
 766              		.size	MessageTimer_WriteCounter, .-MessageTimer_WriteCounter
 767              		.section	.text.MessageTimer_ReadCounter,"ax",%progbits
 768              		.align	2
 769              		.global	MessageTimer_ReadCounter
 770              		.code	16
 771              		.thumb_func
 772              		.type	MessageTimer_ReadCounter, %function
 773              	MessageTimer_ReadCounter:
 774              	.LFB14:
 613:.\Generated_Source\PSoC4/MessageTimer.c **** 
 614:.\Generated_Source\PSoC4/MessageTimer.c **** 
 615:.\Generated_Source\PSoC4/MessageTimer.c **** /*******************************************************************************
 616:.\Generated_Source\PSoC4/MessageTimer.c **** * Function Name: MessageTimer_ReadCounter
 617:.\Generated_Source\PSoC4/MessageTimer.c **** ********************************************************************************
 618:.\Generated_Source\PSoC4/MessageTimer.c **** *
 619:.\Generated_Source\PSoC4/MessageTimer.c **** * Summary:
 620:.\Generated_Source\PSoC4/MessageTimer.c **** *  Reads the current counter value.
 621:.\Generated_Source\PSoC4/MessageTimer.c **** *
 622:.\Generated_Source\PSoC4/MessageTimer.c **** * Parameters:
 623:.\Generated_Source\PSoC4/MessageTimer.c **** *  None
 624:.\Generated_Source\PSoC4/MessageTimer.c **** *
 625:.\Generated_Source\PSoC4/MessageTimer.c **** * Return:
 626:.\Generated_Source\PSoC4/MessageTimer.c **** *  Current counter value
 627:.\Generated_Source\PSoC4/MessageTimer.c **** *
 628:.\Generated_Source\PSoC4/MessageTimer.c **** *******************************************************************************/
 629:.\Generated_Source\PSoC4/MessageTimer.c **** uint32 MessageTimer_ReadCounter(void)
 630:.\Generated_Source\PSoC4/MessageTimer.c **** {
 775              		.loc 1 630 0
 776              		.cfi_startproc
 777 0000 80B5     		push	{r7, lr}
 778              		.cfi_def_cfa_offset 8
 779              		.cfi_offset 7, -8
 780              		.cfi_offset 14, -4
 781 0002 00AF     		add	r7, sp, #0
 782              		.cfi_def_cfa_register 7
 631:.\Generated_Source\PSoC4/MessageTimer.c ****     return (MessageTimer_COUNTER_REG & MessageTimer_16BIT_MASK);
 783              		.loc 1 631 0
 784 0004 034B     		ldr	r3, .L46
 785 0006 1B68     		ldr	r3, [r3]
 786 0008 1B04     		lsl	r3, r3, #16
 787 000a 1B0C     		lsr	r3, r3, #16
 632:.\Generated_Source\PSoC4/MessageTimer.c **** }
 788              		.loc 1 632 0
 789 000c 181C     		mov	r0, r3
 790 000e BD46     		mov	sp, r7
 791              		@ sp needed
 792 0010 80BD     		pop	{r7, pc}
 793              	.L47:
ARM GAS  C:\Users\Sam\AppData\Local\Temp\ccTX1UXg.s 			page 26


 794 0012 C046     		.align	2
 795              	.L46:
 796 0014 08010540 		.word	1074069768
 797              		.cfi_endproc
 798              	.LFE14:
 799              		.size	MessageTimer_ReadCounter, .-MessageTimer_ReadCounter
 800              		.section	.text.MessageTimer_SetCounterMode,"ax",%progbits
 801              		.align	2
 802              		.global	MessageTimer_SetCounterMode
 803              		.code	16
 804              		.thumb_func
 805              		.type	MessageTimer_SetCounterMode, %function
 806              	MessageTimer_SetCounterMode:
 807              	.LFB15:
 633:.\Generated_Source\PSoC4/MessageTimer.c **** 
 634:.\Generated_Source\PSoC4/MessageTimer.c **** 
 635:.\Generated_Source\PSoC4/MessageTimer.c **** /*******************************************************************************
 636:.\Generated_Source\PSoC4/MessageTimer.c **** * Function Name: MessageTimer_SetCounterMode
 637:.\Generated_Source\PSoC4/MessageTimer.c **** ********************************************************************************
 638:.\Generated_Source\PSoC4/MessageTimer.c **** *
 639:.\Generated_Source\PSoC4/MessageTimer.c **** * Summary:
 640:.\Generated_Source\PSoC4/MessageTimer.c **** *  Sets the counter mode.  Applicable to all modes except Quadrature Decoder
 641:.\Generated_Source\PSoC4/MessageTimer.c **** *  and the PWM with a pseudo random output.
 642:.\Generated_Source\PSoC4/MessageTimer.c **** *
 643:.\Generated_Source\PSoC4/MessageTimer.c **** * Parameters:
 644:.\Generated_Source\PSoC4/MessageTimer.c **** *  counterMode: Enumerated counter type values
 645:.\Generated_Source\PSoC4/MessageTimer.c **** *   Values:
 646:.\Generated_Source\PSoC4/MessageTimer.c **** *     - MessageTimer_COUNT_UP       - Counts up
 647:.\Generated_Source\PSoC4/MessageTimer.c **** *     - MessageTimer_COUNT_DOWN     - Counts down
 648:.\Generated_Source\PSoC4/MessageTimer.c **** *     - MessageTimer_COUNT_UPDOWN0  - Counts up and down. Terminal count
 649:.\Generated_Source\PSoC4/MessageTimer.c **** *                                         generated when counter reaches 0
 650:.\Generated_Source\PSoC4/MessageTimer.c **** *     - MessageTimer_COUNT_UPDOWN1  - Counts up and down. Terminal count
 651:.\Generated_Source\PSoC4/MessageTimer.c **** *                                         generated both when counter reaches 0
 652:.\Generated_Source\PSoC4/MessageTimer.c **** *                                         and period
 653:.\Generated_Source\PSoC4/MessageTimer.c **** *
 654:.\Generated_Source\PSoC4/MessageTimer.c **** * Return:
 655:.\Generated_Source\PSoC4/MessageTimer.c **** *  None
 656:.\Generated_Source\PSoC4/MessageTimer.c **** *
 657:.\Generated_Source\PSoC4/MessageTimer.c **** *******************************************************************************/
 658:.\Generated_Source\PSoC4/MessageTimer.c **** void MessageTimer_SetCounterMode(uint32 counterMode)
 659:.\Generated_Source\PSoC4/MessageTimer.c **** {
 808              		.loc 1 659 0
 809              		.cfi_startproc
 810 0000 90B5     		push	{r4, r7, lr}
 811              		.cfi_def_cfa_offset 12
 812              		.cfi_offset 4, -12
 813              		.cfi_offset 7, -8
 814              		.cfi_offset 14, -4
 815 0002 85B0     		sub	sp, sp, #20
 816              		.cfi_def_cfa_offset 32
 817 0004 00AF     		add	r7, sp, #0
 818              		.cfi_def_cfa_register 7
 819 0006 7860     		str	r0, [r7, #4]
 660:.\Generated_Source\PSoC4/MessageTimer.c ****     uint8 enableInterrupts;
 661:.\Generated_Source\PSoC4/MessageTimer.c **** 
 662:.\Generated_Source\PSoC4/MessageTimer.c ****     enableInterrupts = CyEnterCriticalSection();
 820              		.loc 1 662 0
ARM GAS  C:\Users\Sam\AppData\Local\Temp\ccTX1UXg.s 			page 27


 821 0008 3C1C     		mov	r4, r7
 822 000a 0F34     		add	r4, r4, #15
 823 000c FFF7FEFF 		bl	CyEnterCriticalSection
 824 0010 031C     		mov	r3, r0
 825 0012 2370     		strb	r3, [r4]
 663:.\Generated_Source\PSoC4/MessageTimer.c **** 
 664:.\Generated_Source\PSoC4/MessageTimer.c ****     MessageTimer_CONTROL_REG &= (uint32)~MessageTimer_UPDOWN_MASK;
 826              		.loc 1 664 0
 827 0014 0A4B     		ldr	r3, .L49
 828 0016 0A4A     		ldr	r2, .L49
 829 0018 1168     		ldr	r1, [r2]
 830 001a 0A4A     		ldr	r2, .L49+4
 831 001c 0A40     		and	r2, r1
 832 001e 1A60     		str	r2, [r3]
 665:.\Generated_Source\PSoC4/MessageTimer.c ****     MessageTimer_CONTROL_REG |= counterMode;
 833              		.loc 1 665 0
 834 0020 074B     		ldr	r3, .L49
 835 0022 074A     		ldr	r2, .L49
 836 0024 1168     		ldr	r1, [r2]
 837 0026 7A68     		ldr	r2, [r7, #4]
 838 0028 0A43     		orr	r2, r1
 839 002a 1A60     		str	r2, [r3]
 666:.\Generated_Source\PSoC4/MessageTimer.c **** 
 667:.\Generated_Source\PSoC4/MessageTimer.c ****     CyExitCriticalSection(enableInterrupts);
 840              		.loc 1 667 0
 841 002c 3B1C     		mov	r3, r7
 842 002e 0F33     		add	r3, r3, #15
 843 0030 1B78     		ldrb	r3, [r3]
 844 0032 181C     		mov	r0, r3
 845 0034 FFF7FEFF 		bl	CyExitCriticalSection
 668:.\Generated_Source\PSoC4/MessageTimer.c **** }
 846              		.loc 1 668 0
 847 0038 BD46     		mov	sp, r7
 848 003a 05B0     		add	sp, sp, #20
 849              		@ sp needed
 850 003c 90BD     		pop	{r4, r7, pc}
 851              	.L50:
 852 003e C046     		.align	2
 853              	.L49:
 854 0040 00010540 		.word	1074069760
 855 0044 FFFFFCFF 		.word	-196609
 856              		.cfi_endproc
 857              	.LFE15:
 858              		.size	MessageTimer_SetCounterMode, .-MessageTimer_SetCounterMode
 859              		.section	.text.MessageTimer_WritePeriod,"ax",%progbits
 860              		.align	2
 861              		.global	MessageTimer_WritePeriod
 862              		.code	16
 863              		.thumb_func
 864              		.type	MessageTimer_WritePeriod, %function
 865              	MessageTimer_WritePeriod:
 866              	.LFB16:
 669:.\Generated_Source\PSoC4/MessageTimer.c **** 
 670:.\Generated_Source\PSoC4/MessageTimer.c **** 
 671:.\Generated_Source\PSoC4/MessageTimer.c **** /*******************************************************************************
 672:.\Generated_Source\PSoC4/MessageTimer.c **** * Function Name: MessageTimer_WritePeriod
 673:.\Generated_Source\PSoC4/MessageTimer.c **** ********************************************************************************
ARM GAS  C:\Users\Sam\AppData\Local\Temp\ccTX1UXg.s 			page 28


 674:.\Generated_Source\PSoC4/MessageTimer.c **** *
 675:.\Generated_Source\PSoC4/MessageTimer.c **** * Summary:
 676:.\Generated_Source\PSoC4/MessageTimer.c **** *  Writes the 16 bit period register with the new period value.
 677:.\Generated_Source\PSoC4/MessageTimer.c **** *  To cause the counter to count for N cycles this register should be written
 678:.\Generated_Source\PSoC4/MessageTimer.c **** *  with N-1 (counts from 0 to period inclusive).
 679:.\Generated_Source\PSoC4/MessageTimer.c **** *
 680:.\Generated_Source\PSoC4/MessageTimer.c **** * Parameters:
 681:.\Generated_Source\PSoC4/MessageTimer.c **** *  period: Period value
 682:.\Generated_Source\PSoC4/MessageTimer.c **** *
 683:.\Generated_Source\PSoC4/MessageTimer.c **** * Return:
 684:.\Generated_Source\PSoC4/MessageTimer.c **** *  None
 685:.\Generated_Source\PSoC4/MessageTimer.c **** *
 686:.\Generated_Source\PSoC4/MessageTimer.c **** *******************************************************************************/
 687:.\Generated_Source\PSoC4/MessageTimer.c **** void MessageTimer_WritePeriod(uint32 period)
 688:.\Generated_Source\PSoC4/MessageTimer.c **** {
 867              		.loc 1 688 0
 868              		.cfi_startproc
 869 0000 80B5     		push	{r7, lr}
 870              		.cfi_def_cfa_offset 8
 871              		.cfi_offset 7, -8
 872              		.cfi_offset 14, -4
 873 0002 82B0     		sub	sp, sp, #8
 874              		.cfi_def_cfa_offset 16
 875 0004 00AF     		add	r7, sp, #0
 876              		.cfi_def_cfa_register 7
 877 0006 7860     		str	r0, [r7, #4]
 689:.\Generated_Source\PSoC4/MessageTimer.c ****     MessageTimer_PERIOD_REG = (period & MessageTimer_16BIT_MASK);
 878              		.loc 1 689 0
 879 0008 034B     		ldr	r3, .L52
 880 000a 7A68     		ldr	r2, [r7, #4]
 881 000c 1204     		lsl	r2, r2, #16
 882 000e 120C     		lsr	r2, r2, #16
 883 0010 1A60     		str	r2, [r3]
 690:.\Generated_Source\PSoC4/MessageTimer.c **** }
 884              		.loc 1 690 0
 885 0012 BD46     		mov	sp, r7
 886 0014 02B0     		add	sp, sp, #8
 887              		@ sp needed
 888 0016 80BD     		pop	{r7, pc}
 889              	.L53:
 890              		.align	2
 891              	.L52:
 892 0018 14010540 		.word	1074069780
 893              		.cfi_endproc
 894              	.LFE16:
 895              		.size	MessageTimer_WritePeriod, .-MessageTimer_WritePeriod
 896              		.section	.text.MessageTimer_ReadPeriod,"ax",%progbits
 897              		.align	2
 898              		.global	MessageTimer_ReadPeriod
 899              		.code	16
 900              		.thumb_func
 901              		.type	MessageTimer_ReadPeriod, %function
 902              	MessageTimer_ReadPeriod:
 903              	.LFB17:
 691:.\Generated_Source\PSoC4/MessageTimer.c **** 
 692:.\Generated_Source\PSoC4/MessageTimer.c **** 
 693:.\Generated_Source\PSoC4/MessageTimer.c **** /*******************************************************************************
ARM GAS  C:\Users\Sam\AppData\Local\Temp\ccTX1UXg.s 			page 29


 694:.\Generated_Source\PSoC4/MessageTimer.c **** * Function Name: MessageTimer_ReadPeriod
 695:.\Generated_Source\PSoC4/MessageTimer.c **** ********************************************************************************
 696:.\Generated_Source\PSoC4/MessageTimer.c **** *
 697:.\Generated_Source\PSoC4/MessageTimer.c **** * Summary:
 698:.\Generated_Source\PSoC4/MessageTimer.c **** *  Reads the 16 bit period register.
 699:.\Generated_Source\PSoC4/MessageTimer.c **** *
 700:.\Generated_Source\PSoC4/MessageTimer.c **** * Parameters:
 701:.\Generated_Source\PSoC4/MessageTimer.c **** *  None
 702:.\Generated_Source\PSoC4/MessageTimer.c **** *
 703:.\Generated_Source\PSoC4/MessageTimer.c **** * Return:
 704:.\Generated_Source\PSoC4/MessageTimer.c **** *  Period value
 705:.\Generated_Source\PSoC4/MessageTimer.c **** *
 706:.\Generated_Source\PSoC4/MessageTimer.c **** *******************************************************************************/
 707:.\Generated_Source\PSoC4/MessageTimer.c **** uint32 MessageTimer_ReadPeriod(void)
 708:.\Generated_Source\PSoC4/MessageTimer.c **** {
 904              		.loc 1 708 0
 905              		.cfi_startproc
 906 0000 80B5     		push	{r7, lr}
 907              		.cfi_def_cfa_offset 8
 908              		.cfi_offset 7, -8
 909              		.cfi_offset 14, -4
 910 0002 00AF     		add	r7, sp, #0
 911              		.cfi_def_cfa_register 7
 709:.\Generated_Source\PSoC4/MessageTimer.c ****     return (MessageTimer_PERIOD_REG & MessageTimer_16BIT_MASK);
 912              		.loc 1 709 0
 913 0004 034B     		ldr	r3, .L56
 914 0006 1B68     		ldr	r3, [r3]
 915 0008 1B04     		lsl	r3, r3, #16
 916 000a 1B0C     		lsr	r3, r3, #16
 710:.\Generated_Source\PSoC4/MessageTimer.c **** }
 917              		.loc 1 710 0
 918 000c 181C     		mov	r0, r3
 919 000e BD46     		mov	sp, r7
 920              		@ sp needed
 921 0010 80BD     		pop	{r7, pc}
 922              	.L57:
 923 0012 C046     		.align	2
 924              	.L56:
 925 0014 14010540 		.word	1074069780
 926              		.cfi_endproc
 927              	.LFE17:
 928              		.size	MessageTimer_ReadPeriod, .-MessageTimer_ReadPeriod
 929              		.section	.text.MessageTimer_SetCompareSwap,"ax",%progbits
 930              		.align	2
 931              		.global	MessageTimer_SetCompareSwap
 932              		.code	16
 933              		.thumb_func
 934              		.type	MessageTimer_SetCompareSwap, %function
 935              	MessageTimer_SetCompareSwap:
 936              	.LFB18:
 711:.\Generated_Source\PSoC4/MessageTimer.c **** 
 712:.\Generated_Source\PSoC4/MessageTimer.c **** 
 713:.\Generated_Source\PSoC4/MessageTimer.c **** /*******************************************************************************
 714:.\Generated_Source\PSoC4/MessageTimer.c **** * Function Name: MessageTimer_SetCompareSwap
 715:.\Generated_Source\PSoC4/MessageTimer.c **** ********************************************************************************
 716:.\Generated_Source\PSoC4/MessageTimer.c **** *
 717:.\Generated_Source\PSoC4/MessageTimer.c **** * Summary:
ARM GAS  C:\Users\Sam\AppData\Local\Temp\ccTX1UXg.s 			page 30


 718:.\Generated_Source\PSoC4/MessageTimer.c **** *  Writes the register that controls whether the compare registers are
 719:.\Generated_Source\PSoC4/MessageTimer.c **** *  swapped. When enabled in the Timer/Counter mode(without capture) the swap
 720:.\Generated_Source\PSoC4/MessageTimer.c **** *  occurs at a TC event. In the PWM mode the swap occurs at the next TC event
 721:.\Generated_Source\PSoC4/MessageTimer.c **** *  following a hardware switch event.
 722:.\Generated_Source\PSoC4/MessageTimer.c **** *
 723:.\Generated_Source\PSoC4/MessageTimer.c **** * Parameters:
 724:.\Generated_Source\PSoC4/MessageTimer.c **** *  swapEnable
 725:.\Generated_Source\PSoC4/MessageTimer.c **** *   Values:
 726:.\Generated_Source\PSoC4/MessageTimer.c **** *     - 0 - Disable swap
 727:.\Generated_Source\PSoC4/MessageTimer.c **** *     - 1 - Enable swap
 728:.\Generated_Source\PSoC4/MessageTimer.c **** *
 729:.\Generated_Source\PSoC4/MessageTimer.c **** * Return:
 730:.\Generated_Source\PSoC4/MessageTimer.c **** *  None
 731:.\Generated_Source\PSoC4/MessageTimer.c **** *
 732:.\Generated_Source\PSoC4/MessageTimer.c **** *******************************************************************************/
 733:.\Generated_Source\PSoC4/MessageTimer.c **** void MessageTimer_SetCompareSwap(uint32 swapEnable)
 734:.\Generated_Source\PSoC4/MessageTimer.c **** {
 937              		.loc 1 734 0
 938              		.cfi_startproc
 939 0000 90B5     		push	{r4, r7, lr}
 940              		.cfi_def_cfa_offset 12
 941              		.cfi_offset 4, -12
 942              		.cfi_offset 7, -8
 943              		.cfi_offset 14, -4
 944 0002 85B0     		sub	sp, sp, #20
 945              		.cfi_def_cfa_offset 32
 946 0004 00AF     		add	r7, sp, #0
 947              		.cfi_def_cfa_register 7
 948 0006 7860     		str	r0, [r7, #4]
 735:.\Generated_Source\PSoC4/MessageTimer.c ****     uint8 enableInterrupts;
 736:.\Generated_Source\PSoC4/MessageTimer.c **** 
 737:.\Generated_Source\PSoC4/MessageTimer.c ****     enableInterrupts = CyEnterCriticalSection();
 949              		.loc 1 737 0
 950 0008 3C1C     		mov	r4, r7
 951 000a 0F34     		add	r4, r4, #15
 952 000c FFF7FEFF 		bl	CyEnterCriticalSection
 953 0010 031C     		mov	r3, r0
 954 0012 2370     		strb	r3, [r4]
 738:.\Generated_Source\PSoC4/MessageTimer.c **** 
 739:.\Generated_Source\PSoC4/MessageTimer.c ****     MessageTimer_CONTROL_REG &= (uint32)~MessageTimer_RELOAD_CC_MASK;
 955              		.loc 1 739 0
 956 0014 0B4B     		ldr	r3, .L59
 957 0016 0B4A     		ldr	r2, .L59
 958 0018 1268     		ldr	r2, [r2]
 959 001a 0121     		mov	r1, #1
 960 001c 8A43     		bic	r2, r1
 961 001e 1A60     		str	r2, [r3]
 740:.\Generated_Source\PSoC4/MessageTimer.c ****     MessageTimer_CONTROL_REG |= (swapEnable & MessageTimer_1BIT_MASK);
 962              		.loc 1 740 0
 963 0020 084B     		ldr	r3, .L59
 964 0022 084A     		ldr	r2, .L59
 965 0024 1168     		ldr	r1, [r2]
 966 0026 7868     		ldr	r0, [r7, #4]
 967 0028 0122     		mov	r2, #1
 968 002a 0240     		and	r2, r0
 969 002c 0A43     		orr	r2, r1
 970 002e 1A60     		str	r2, [r3]
ARM GAS  C:\Users\Sam\AppData\Local\Temp\ccTX1UXg.s 			page 31


 741:.\Generated_Source\PSoC4/MessageTimer.c **** 
 742:.\Generated_Source\PSoC4/MessageTimer.c ****     CyExitCriticalSection(enableInterrupts);
 971              		.loc 1 742 0
 972 0030 3B1C     		mov	r3, r7
 973 0032 0F33     		add	r3, r3, #15
 974 0034 1B78     		ldrb	r3, [r3]
 975 0036 181C     		mov	r0, r3
 976 0038 FFF7FEFF 		bl	CyExitCriticalSection
 743:.\Generated_Source\PSoC4/MessageTimer.c **** }
 977              		.loc 1 743 0
 978 003c BD46     		mov	sp, r7
 979 003e 05B0     		add	sp, sp, #20
 980              		@ sp needed
 981 0040 90BD     		pop	{r4, r7, pc}
 982              	.L60:
 983 0042 C046     		.align	2
 984              	.L59:
 985 0044 00010540 		.word	1074069760
 986              		.cfi_endproc
 987              	.LFE18:
 988              		.size	MessageTimer_SetCompareSwap, .-MessageTimer_SetCompareSwap
 989              		.section	.text.MessageTimer_WritePeriodBuf,"ax",%progbits
 990              		.align	2
 991              		.global	MessageTimer_WritePeriodBuf
 992              		.code	16
 993              		.thumb_func
 994              		.type	MessageTimer_WritePeriodBuf, %function
 995              	MessageTimer_WritePeriodBuf:
 996              	.LFB19:
 744:.\Generated_Source\PSoC4/MessageTimer.c **** 
 745:.\Generated_Source\PSoC4/MessageTimer.c **** 
 746:.\Generated_Source\PSoC4/MessageTimer.c **** /*******************************************************************************
 747:.\Generated_Source\PSoC4/MessageTimer.c **** * Function Name: MessageTimer_WritePeriodBuf
 748:.\Generated_Source\PSoC4/MessageTimer.c **** ********************************************************************************
 749:.\Generated_Source\PSoC4/MessageTimer.c **** *
 750:.\Generated_Source\PSoC4/MessageTimer.c **** * Summary:
 751:.\Generated_Source\PSoC4/MessageTimer.c **** *  Writes the 16 bit period buf register with the new period value.
 752:.\Generated_Source\PSoC4/MessageTimer.c **** *
 753:.\Generated_Source\PSoC4/MessageTimer.c **** * Parameters:
 754:.\Generated_Source\PSoC4/MessageTimer.c **** *  periodBuf: Period value
 755:.\Generated_Source\PSoC4/MessageTimer.c **** *
 756:.\Generated_Source\PSoC4/MessageTimer.c **** * Return:
 757:.\Generated_Source\PSoC4/MessageTimer.c **** *  None
 758:.\Generated_Source\PSoC4/MessageTimer.c **** *
 759:.\Generated_Source\PSoC4/MessageTimer.c **** *******************************************************************************/
 760:.\Generated_Source\PSoC4/MessageTimer.c **** void MessageTimer_WritePeriodBuf(uint32 periodBuf)
 761:.\Generated_Source\PSoC4/MessageTimer.c **** {
 997              		.loc 1 761 0
 998              		.cfi_startproc
 999 0000 80B5     		push	{r7, lr}
 1000              		.cfi_def_cfa_offset 8
 1001              		.cfi_offset 7, -8
 1002              		.cfi_offset 14, -4
 1003 0002 82B0     		sub	sp, sp, #8
 1004              		.cfi_def_cfa_offset 16
 1005 0004 00AF     		add	r7, sp, #0
 1006              		.cfi_def_cfa_register 7
ARM GAS  C:\Users\Sam\AppData\Local\Temp\ccTX1UXg.s 			page 32


 1007 0006 7860     		str	r0, [r7, #4]
 762:.\Generated_Source\PSoC4/MessageTimer.c ****     MessageTimer_PERIOD_BUF_REG = (periodBuf & MessageTimer_16BIT_MASK);
 1008              		.loc 1 762 0
 1009 0008 034B     		ldr	r3, .L62
 1010 000a 7A68     		ldr	r2, [r7, #4]
 1011 000c 1204     		lsl	r2, r2, #16
 1012 000e 120C     		lsr	r2, r2, #16
 1013 0010 1A60     		str	r2, [r3]
 763:.\Generated_Source\PSoC4/MessageTimer.c **** }
 1014              		.loc 1 763 0
 1015 0012 BD46     		mov	sp, r7
 1016 0014 02B0     		add	sp, sp, #8
 1017              		@ sp needed
 1018 0016 80BD     		pop	{r7, pc}
 1019              	.L63:
 1020              		.align	2
 1021              	.L62:
 1022 0018 18010540 		.word	1074069784
 1023              		.cfi_endproc
 1024              	.LFE19:
 1025              		.size	MessageTimer_WritePeriodBuf, .-MessageTimer_WritePeriodBuf
 1026              		.section	.text.MessageTimer_ReadPeriodBuf,"ax",%progbits
 1027              		.align	2
 1028              		.global	MessageTimer_ReadPeriodBuf
 1029              		.code	16
 1030              		.thumb_func
 1031              		.type	MessageTimer_ReadPeriodBuf, %function
 1032              	MessageTimer_ReadPeriodBuf:
 1033              	.LFB20:
 764:.\Generated_Source\PSoC4/MessageTimer.c **** 
 765:.\Generated_Source\PSoC4/MessageTimer.c **** 
 766:.\Generated_Source\PSoC4/MessageTimer.c **** /*******************************************************************************
 767:.\Generated_Source\PSoC4/MessageTimer.c **** * Function Name: MessageTimer_ReadPeriodBuf
 768:.\Generated_Source\PSoC4/MessageTimer.c **** ********************************************************************************
 769:.\Generated_Source\PSoC4/MessageTimer.c **** *
 770:.\Generated_Source\PSoC4/MessageTimer.c **** * Summary:
 771:.\Generated_Source\PSoC4/MessageTimer.c **** *  Reads the 16 bit period buf register.
 772:.\Generated_Source\PSoC4/MessageTimer.c **** *
 773:.\Generated_Source\PSoC4/MessageTimer.c **** * Parameters:
 774:.\Generated_Source\PSoC4/MessageTimer.c **** *  None
 775:.\Generated_Source\PSoC4/MessageTimer.c **** *
 776:.\Generated_Source\PSoC4/MessageTimer.c **** * Return:
 777:.\Generated_Source\PSoC4/MessageTimer.c **** *  Period value
 778:.\Generated_Source\PSoC4/MessageTimer.c **** *
 779:.\Generated_Source\PSoC4/MessageTimer.c **** *******************************************************************************/
 780:.\Generated_Source\PSoC4/MessageTimer.c **** uint32 MessageTimer_ReadPeriodBuf(void)
 781:.\Generated_Source\PSoC4/MessageTimer.c **** {
 1034              		.loc 1 781 0
 1035              		.cfi_startproc
 1036 0000 80B5     		push	{r7, lr}
 1037              		.cfi_def_cfa_offset 8
 1038              		.cfi_offset 7, -8
 1039              		.cfi_offset 14, -4
 1040 0002 00AF     		add	r7, sp, #0
 1041              		.cfi_def_cfa_register 7
 782:.\Generated_Source\PSoC4/MessageTimer.c ****     return (MessageTimer_PERIOD_BUF_REG & MessageTimer_16BIT_MASK);
 1042              		.loc 1 782 0
ARM GAS  C:\Users\Sam\AppData\Local\Temp\ccTX1UXg.s 			page 33


 1043 0004 034B     		ldr	r3, .L66
 1044 0006 1B68     		ldr	r3, [r3]
 1045 0008 1B04     		lsl	r3, r3, #16
 1046 000a 1B0C     		lsr	r3, r3, #16
 783:.\Generated_Source\PSoC4/MessageTimer.c **** }
 1047              		.loc 1 783 0
 1048 000c 181C     		mov	r0, r3
 1049 000e BD46     		mov	sp, r7
 1050              		@ sp needed
 1051 0010 80BD     		pop	{r7, pc}
 1052              	.L67:
 1053 0012 C046     		.align	2
 1054              	.L66:
 1055 0014 18010540 		.word	1074069784
 1056              		.cfi_endproc
 1057              	.LFE20:
 1058              		.size	MessageTimer_ReadPeriodBuf, .-MessageTimer_ReadPeriodBuf
 1059              		.section	.text.MessageTimer_SetPeriodSwap,"ax",%progbits
 1060              		.align	2
 1061              		.global	MessageTimer_SetPeriodSwap
 1062              		.code	16
 1063              		.thumb_func
 1064              		.type	MessageTimer_SetPeriodSwap, %function
 1065              	MessageTimer_SetPeriodSwap:
 1066              	.LFB21:
 784:.\Generated_Source\PSoC4/MessageTimer.c **** 
 785:.\Generated_Source\PSoC4/MessageTimer.c **** 
 786:.\Generated_Source\PSoC4/MessageTimer.c **** /*******************************************************************************
 787:.\Generated_Source\PSoC4/MessageTimer.c **** * Function Name: MessageTimer_SetPeriodSwap
 788:.\Generated_Source\PSoC4/MessageTimer.c **** ********************************************************************************
 789:.\Generated_Source\PSoC4/MessageTimer.c **** *
 790:.\Generated_Source\PSoC4/MessageTimer.c **** * Summary:
 791:.\Generated_Source\PSoC4/MessageTimer.c **** *  Writes the register that controls whether the period registers are
 792:.\Generated_Source\PSoC4/MessageTimer.c **** *  swapped. When enabled in Timer/Counter mode the swap occurs at a TC event.
 793:.\Generated_Source\PSoC4/MessageTimer.c **** *  In the PWM mode the swap occurs at the next TC event following a hardware
 794:.\Generated_Source\PSoC4/MessageTimer.c **** *  switch event.
 795:.\Generated_Source\PSoC4/MessageTimer.c **** *
 796:.\Generated_Source\PSoC4/MessageTimer.c **** * Parameters:
 797:.\Generated_Source\PSoC4/MessageTimer.c **** *  swapEnable
 798:.\Generated_Source\PSoC4/MessageTimer.c **** *   Values:
 799:.\Generated_Source\PSoC4/MessageTimer.c **** *     - 0 - Disable swap
 800:.\Generated_Source\PSoC4/MessageTimer.c **** *     - 1 - Enable swap
 801:.\Generated_Source\PSoC4/MessageTimer.c **** *
 802:.\Generated_Source\PSoC4/MessageTimer.c **** * Return:
 803:.\Generated_Source\PSoC4/MessageTimer.c **** *  None
 804:.\Generated_Source\PSoC4/MessageTimer.c **** *
 805:.\Generated_Source\PSoC4/MessageTimer.c **** *******************************************************************************/
 806:.\Generated_Source\PSoC4/MessageTimer.c **** void MessageTimer_SetPeriodSwap(uint32 swapEnable)
 807:.\Generated_Source\PSoC4/MessageTimer.c **** {
 1067              		.loc 1 807 0
 1068              		.cfi_startproc
 1069 0000 90B5     		push	{r4, r7, lr}
 1070              		.cfi_def_cfa_offset 12
 1071              		.cfi_offset 4, -12
 1072              		.cfi_offset 7, -8
 1073              		.cfi_offset 14, -4
 1074 0002 85B0     		sub	sp, sp, #20
ARM GAS  C:\Users\Sam\AppData\Local\Temp\ccTX1UXg.s 			page 34


 1075              		.cfi_def_cfa_offset 32
 1076 0004 00AF     		add	r7, sp, #0
 1077              		.cfi_def_cfa_register 7
 1078 0006 7860     		str	r0, [r7, #4]
 808:.\Generated_Source\PSoC4/MessageTimer.c ****     uint8 enableInterrupts;
 809:.\Generated_Source\PSoC4/MessageTimer.c **** 
 810:.\Generated_Source\PSoC4/MessageTimer.c ****     enableInterrupts = CyEnterCriticalSection();
 1079              		.loc 1 810 0
 1080 0008 3C1C     		mov	r4, r7
 1081 000a 0F34     		add	r4, r4, #15
 1082 000c FFF7FEFF 		bl	CyEnterCriticalSection
 1083 0010 031C     		mov	r3, r0
 1084 0012 2370     		strb	r3, [r4]
 811:.\Generated_Source\PSoC4/MessageTimer.c **** 
 812:.\Generated_Source\PSoC4/MessageTimer.c ****     MessageTimer_CONTROL_REG &= (uint32)~MessageTimer_RELOAD_PERIOD_MASK;
 1085              		.loc 1 812 0
 1086 0014 0B4B     		ldr	r3, .L69
 1087 0016 0B4A     		ldr	r2, .L69
 1088 0018 1268     		ldr	r2, [r2]
 1089 001a 0221     		mov	r1, #2
 1090 001c 8A43     		bic	r2, r1
 1091 001e 1A60     		str	r2, [r3]
 813:.\Generated_Source\PSoC4/MessageTimer.c ****     MessageTimer_CONTROL_REG |= ((uint32)((swapEnable & MessageTimer_1BIT_MASK) <<
 1092              		.loc 1 813 0
 1093 0020 084B     		ldr	r3, .L69
 1094 0022 084A     		ldr	r2, .L69
 1095 0024 1168     		ldr	r1, [r2]
 1096 0026 7868     		ldr	r0, [r7, #4]
 1097 0028 0122     		mov	r2, #1
 1098 002a 0240     		and	r2, r0
 1099 002c 5200     		lsl	r2, r2, #1
 1100 002e 0A43     		orr	r2, r1
 1101 0030 1A60     		str	r2, [r3]
 814:.\Generated_Source\PSoC4/MessageTimer.c ****                                                             MessageTimer_RELOAD_PERIOD_SHIFT));
 815:.\Generated_Source\PSoC4/MessageTimer.c **** 
 816:.\Generated_Source\PSoC4/MessageTimer.c ****     CyExitCriticalSection(enableInterrupts);
 1102              		.loc 1 816 0
 1103 0032 3B1C     		mov	r3, r7
 1104 0034 0F33     		add	r3, r3, #15
 1105 0036 1B78     		ldrb	r3, [r3]
 1106 0038 181C     		mov	r0, r3
 1107 003a FFF7FEFF 		bl	CyExitCriticalSection
 817:.\Generated_Source\PSoC4/MessageTimer.c **** }
 1108              		.loc 1 817 0
 1109 003e BD46     		mov	sp, r7
 1110 0040 05B0     		add	sp, sp, #20
 1111              		@ sp needed
 1112 0042 90BD     		pop	{r4, r7, pc}
 1113              	.L70:
 1114              		.align	2
 1115              	.L69:
 1116 0044 00010540 		.word	1074069760
 1117              		.cfi_endproc
 1118              	.LFE21:
 1119              		.size	MessageTimer_SetPeriodSwap, .-MessageTimer_SetPeriodSwap
 1120              		.section	.text.MessageTimer_WriteCompare,"ax",%progbits
 1121              		.align	2
ARM GAS  C:\Users\Sam\AppData\Local\Temp\ccTX1UXg.s 			page 35


 1122              		.global	MessageTimer_WriteCompare
 1123              		.code	16
 1124              		.thumb_func
 1125              		.type	MessageTimer_WriteCompare, %function
 1126              	MessageTimer_WriteCompare:
 1127              	.LFB22:
 818:.\Generated_Source\PSoC4/MessageTimer.c **** 
 819:.\Generated_Source\PSoC4/MessageTimer.c **** 
 820:.\Generated_Source\PSoC4/MessageTimer.c **** /*******************************************************************************
 821:.\Generated_Source\PSoC4/MessageTimer.c **** * Function Name: MessageTimer_WriteCompare
 822:.\Generated_Source\PSoC4/MessageTimer.c **** ********************************************************************************
 823:.\Generated_Source\PSoC4/MessageTimer.c **** *
 824:.\Generated_Source\PSoC4/MessageTimer.c **** * Summary:
 825:.\Generated_Source\PSoC4/MessageTimer.c **** *  Writes the 16 bit compare register with the new compare value. Not
 826:.\Generated_Source\PSoC4/MessageTimer.c **** *  applicable for Timer/Counter with Capture or in Quadrature Decoder modes.
 827:.\Generated_Source\PSoC4/MessageTimer.c **** *
 828:.\Generated_Source\PSoC4/MessageTimer.c **** * Parameters:
 829:.\Generated_Source\PSoC4/MessageTimer.c **** *  compare: Compare value
 830:.\Generated_Source\PSoC4/MessageTimer.c **** *
 831:.\Generated_Source\PSoC4/MessageTimer.c **** * Return:
 832:.\Generated_Source\PSoC4/MessageTimer.c **** *  None
 833:.\Generated_Source\PSoC4/MessageTimer.c **** *
 834:.\Generated_Source\PSoC4/MessageTimer.c **** *******************************************************************************/
 835:.\Generated_Source\PSoC4/MessageTimer.c **** void MessageTimer_WriteCompare(uint32 compare)
 836:.\Generated_Source\PSoC4/MessageTimer.c **** {
 1128              		.loc 1 836 0
 1129              		.cfi_startproc
 1130 0000 80B5     		push	{r7, lr}
 1131              		.cfi_def_cfa_offset 8
 1132              		.cfi_offset 7, -8
 1133              		.cfi_offset 14, -4
 1134 0002 82B0     		sub	sp, sp, #8
 1135              		.cfi_def_cfa_offset 16
 1136 0004 00AF     		add	r7, sp, #0
 1137              		.cfi_def_cfa_register 7
 1138 0006 7860     		str	r0, [r7, #4]
 837:.\Generated_Source\PSoC4/MessageTimer.c ****     #if (MessageTimer_CY_TCPWM_4000)
 838:.\Generated_Source\PSoC4/MessageTimer.c ****         uint32 currentMode;
 839:.\Generated_Source\PSoC4/MessageTimer.c ****     #endif /* (MessageTimer_CY_TCPWM_4000) */
 840:.\Generated_Source\PSoC4/MessageTimer.c **** 
 841:.\Generated_Source\PSoC4/MessageTimer.c ****     #if (MessageTimer_CY_TCPWM_4000)
 842:.\Generated_Source\PSoC4/MessageTimer.c ****         currentMode = ((MessageTimer_CONTROL_REG & MessageTimer_UPDOWN_MASK) >> MessageTimer_UPDOWN
 843:.\Generated_Source\PSoC4/MessageTimer.c **** 
 844:.\Generated_Source\PSoC4/MessageTimer.c ****         if (((uint32)MessageTimer__COUNT_DOWN == currentMode) && (0xFFFFu != compare))
 845:.\Generated_Source\PSoC4/MessageTimer.c ****         {
 846:.\Generated_Source\PSoC4/MessageTimer.c ****             compare++;
 847:.\Generated_Source\PSoC4/MessageTimer.c ****         }
 848:.\Generated_Source\PSoC4/MessageTimer.c ****         else if (((uint32)MessageTimer__COUNT_UP == currentMode) && (0u != compare))
 849:.\Generated_Source\PSoC4/MessageTimer.c ****         {
 850:.\Generated_Source\PSoC4/MessageTimer.c ****             compare--;
 851:.\Generated_Source\PSoC4/MessageTimer.c ****         }
 852:.\Generated_Source\PSoC4/MessageTimer.c ****         else
 853:.\Generated_Source\PSoC4/MessageTimer.c ****         {
 854:.\Generated_Source\PSoC4/MessageTimer.c ****         }
 855:.\Generated_Source\PSoC4/MessageTimer.c ****         
 856:.\Generated_Source\PSoC4/MessageTimer.c ****     
 857:.\Generated_Source\PSoC4/MessageTimer.c ****     #endif /* (MessageTimer_CY_TCPWM_4000) */
ARM GAS  C:\Users\Sam\AppData\Local\Temp\ccTX1UXg.s 			page 36


 858:.\Generated_Source\PSoC4/MessageTimer.c ****     
 859:.\Generated_Source\PSoC4/MessageTimer.c ****     MessageTimer_COMP_CAP_REG = (compare & MessageTimer_16BIT_MASK);
 1139              		.loc 1 859 0
 1140 0008 034B     		ldr	r3, .L72
 1141 000a 7A68     		ldr	r2, [r7, #4]
 1142 000c 1204     		lsl	r2, r2, #16
 1143 000e 120C     		lsr	r2, r2, #16
 1144 0010 1A60     		str	r2, [r3]
 860:.\Generated_Source\PSoC4/MessageTimer.c **** }
 1145              		.loc 1 860 0
 1146 0012 BD46     		mov	sp, r7
 1147 0014 02B0     		add	sp, sp, #8
 1148              		@ sp needed
 1149 0016 80BD     		pop	{r7, pc}
 1150              	.L73:
 1151              		.align	2
 1152              	.L72:
 1153 0018 0C010540 		.word	1074069772
 1154              		.cfi_endproc
 1155              	.LFE22:
 1156              		.size	MessageTimer_WriteCompare, .-MessageTimer_WriteCompare
 1157              		.section	.text.MessageTimer_ReadCompare,"ax",%progbits
 1158              		.align	2
 1159              		.global	MessageTimer_ReadCompare
 1160              		.code	16
 1161              		.thumb_func
 1162              		.type	MessageTimer_ReadCompare, %function
 1163              	MessageTimer_ReadCompare:
 1164              	.LFB23:
 861:.\Generated_Source\PSoC4/MessageTimer.c **** 
 862:.\Generated_Source\PSoC4/MessageTimer.c **** 
 863:.\Generated_Source\PSoC4/MessageTimer.c **** /*******************************************************************************
 864:.\Generated_Source\PSoC4/MessageTimer.c **** * Function Name: MessageTimer_ReadCompare
 865:.\Generated_Source\PSoC4/MessageTimer.c **** ********************************************************************************
 866:.\Generated_Source\PSoC4/MessageTimer.c **** *
 867:.\Generated_Source\PSoC4/MessageTimer.c **** * Summary:
 868:.\Generated_Source\PSoC4/MessageTimer.c **** *  Reads the compare register. Not applicable for Timer/Counter with Capture
 869:.\Generated_Source\PSoC4/MessageTimer.c **** *  or in Quadrature Decoder modes.
 870:.\Generated_Source\PSoC4/MessageTimer.c **** *
 871:.\Generated_Source\PSoC4/MessageTimer.c **** * Parameters:
 872:.\Generated_Source\PSoC4/MessageTimer.c **** *  None
 873:.\Generated_Source\PSoC4/MessageTimer.c **** *
 874:.\Generated_Source\PSoC4/MessageTimer.c **** * Return:
 875:.\Generated_Source\PSoC4/MessageTimer.c **** *  Compare value
 876:.\Generated_Source\PSoC4/MessageTimer.c **** *
 877:.\Generated_Source\PSoC4/MessageTimer.c **** *******************************************************************************/
 878:.\Generated_Source\PSoC4/MessageTimer.c **** uint32 MessageTimer_ReadCompare(void)
 879:.\Generated_Source\PSoC4/MessageTimer.c **** {
 1165              		.loc 1 879 0
 1166              		.cfi_startproc
 1167 0000 80B5     		push	{r7, lr}
 1168              		.cfi_def_cfa_offset 8
 1169              		.cfi_offset 7, -8
 1170              		.cfi_offset 14, -4
 1171 0002 00AF     		add	r7, sp, #0
 1172              		.cfi_def_cfa_register 7
 880:.\Generated_Source\PSoC4/MessageTimer.c ****     #if (MessageTimer_CY_TCPWM_4000)
ARM GAS  C:\Users\Sam\AppData\Local\Temp\ccTX1UXg.s 			page 37


 881:.\Generated_Source\PSoC4/MessageTimer.c ****         uint32 currentMode;
 882:.\Generated_Source\PSoC4/MessageTimer.c ****         uint32 regVal;
 883:.\Generated_Source\PSoC4/MessageTimer.c ****     #endif /* (MessageTimer_CY_TCPWM_4000) */
 884:.\Generated_Source\PSoC4/MessageTimer.c **** 
 885:.\Generated_Source\PSoC4/MessageTimer.c ****     #if (MessageTimer_CY_TCPWM_4000)
 886:.\Generated_Source\PSoC4/MessageTimer.c ****         currentMode = ((MessageTimer_CONTROL_REG & MessageTimer_UPDOWN_MASK) >> MessageTimer_UPDOWN
 887:.\Generated_Source\PSoC4/MessageTimer.c ****         
 888:.\Generated_Source\PSoC4/MessageTimer.c ****         regVal = MessageTimer_COMP_CAP_REG;
 889:.\Generated_Source\PSoC4/MessageTimer.c ****         
 890:.\Generated_Source\PSoC4/MessageTimer.c ****         if (((uint32)MessageTimer__COUNT_DOWN == currentMode) && (0u != regVal))
 891:.\Generated_Source\PSoC4/MessageTimer.c ****         {
 892:.\Generated_Source\PSoC4/MessageTimer.c ****             regVal--;
 893:.\Generated_Source\PSoC4/MessageTimer.c ****         }
 894:.\Generated_Source\PSoC4/MessageTimer.c ****         else if (((uint32)MessageTimer__COUNT_UP == currentMode) && (0xFFFFu != regVal))
 895:.\Generated_Source\PSoC4/MessageTimer.c ****         {
 896:.\Generated_Source\PSoC4/MessageTimer.c ****             regVal++;
 897:.\Generated_Source\PSoC4/MessageTimer.c ****         }
 898:.\Generated_Source\PSoC4/MessageTimer.c ****         else
 899:.\Generated_Source\PSoC4/MessageTimer.c ****         {
 900:.\Generated_Source\PSoC4/MessageTimer.c ****         }
 901:.\Generated_Source\PSoC4/MessageTimer.c **** 
 902:.\Generated_Source\PSoC4/MessageTimer.c ****         return (regVal & MessageTimer_16BIT_MASK);
 903:.\Generated_Source\PSoC4/MessageTimer.c ****     #else
 904:.\Generated_Source\PSoC4/MessageTimer.c ****         return (MessageTimer_COMP_CAP_REG & MessageTimer_16BIT_MASK);
 1173              		.loc 1 904 0
 1174 0004 034B     		ldr	r3, .L76
 1175 0006 1B68     		ldr	r3, [r3]
 1176 0008 1B04     		lsl	r3, r3, #16
 1177 000a 1B0C     		lsr	r3, r3, #16
 905:.\Generated_Source\PSoC4/MessageTimer.c ****     #endif /* (MessageTimer_CY_TCPWM_4000) */
 906:.\Generated_Source\PSoC4/MessageTimer.c **** }
 1178              		.loc 1 906 0
 1179 000c 181C     		mov	r0, r3
 1180 000e BD46     		mov	sp, r7
 1181              		@ sp needed
 1182 0010 80BD     		pop	{r7, pc}
 1183              	.L77:
 1184 0012 C046     		.align	2
 1185              	.L76:
 1186 0014 0C010540 		.word	1074069772
 1187              		.cfi_endproc
 1188              	.LFE23:
 1189              		.size	MessageTimer_ReadCompare, .-MessageTimer_ReadCompare
 1190              		.section	.text.MessageTimer_WriteCompareBuf,"ax",%progbits
 1191              		.align	2
 1192              		.global	MessageTimer_WriteCompareBuf
 1193              		.code	16
 1194              		.thumb_func
 1195              		.type	MessageTimer_WriteCompareBuf, %function
 1196              	MessageTimer_WriteCompareBuf:
 1197              	.LFB24:
 907:.\Generated_Source\PSoC4/MessageTimer.c **** 
 908:.\Generated_Source\PSoC4/MessageTimer.c **** 
 909:.\Generated_Source\PSoC4/MessageTimer.c **** /*******************************************************************************
 910:.\Generated_Source\PSoC4/MessageTimer.c **** * Function Name: MessageTimer_WriteCompareBuf
 911:.\Generated_Source\PSoC4/MessageTimer.c **** ********************************************************************************
 912:.\Generated_Source\PSoC4/MessageTimer.c **** *
ARM GAS  C:\Users\Sam\AppData\Local\Temp\ccTX1UXg.s 			page 38


 913:.\Generated_Source\PSoC4/MessageTimer.c **** * Summary:
 914:.\Generated_Source\PSoC4/MessageTimer.c **** *  Writes the 16 bit compare buffer register with the new compare value. Not
 915:.\Generated_Source\PSoC4/MessageTimer.c **** *  applicable for Timer/Counter with Capture or in Quadrature Decoder modes.
 916:.\Generated_Source\PSoC4/MessageTimer.c **** *
 917:.\Generated_Source\PSoC4/MessageTimer.c **** * Parameters:
 918:.\Generated_Source\PSoC4/MessageTimer.c **** *  compareBuf: Compare value
 919:.\Generated_Source\PSoC4/MessageTimer.c **** *
 920:.\Generated_Source\PSoC4/MessageTimer.c **** * Return:
 921:.\Generated_Source\PSoC4/MessageTimer.c **** *  None
 922:.\Generated_Source\PSoC4/MessageTimer.c **** *
 923:.\Generated_Source\PSoC4/MessageTimer.c **** *******************************************************************************/
 924:.\Generated_Source\PSoC4/MessageTimer.c **** void MessageTimer_WriteCompareBuf(uint32 compareBuf)
 925:.\Generated_Source\PSoC4/MessageTimer.c **** {
 1198              		.loc 1 925 0
 1199              		.cfi_startproc
 1200 0000 80B5     		push	{r7, lr}
 1201              		.cfi_def_cfa_offset 8
 1202              		.cfi_offset 7, -8
 1203              		.cfi_offset 14, -4
 1204 0002 82B0     		sub	sp, sp, #8
 1205              		.cfi_def_cfa_offset 16
 1206 0004 00AF     		add	r7, sp, #0
 1207              		.cfi_def_cfa_register 7
 1208 0006 7860     		str	r0, [r7, #4]
 926:.\Generated_Source\PSoC4/MessageTimer.c ****     #if (MessageTimer_CY_TCPWM_4000)
 927:.\Generated_Source\PSoC4/MessageTimer.c ****         uint32 currentMode;
 928:.\Generated_Source\PSoC4/MessageTimer.c ****     #endif /* (MessageTimer_CY_TCPWM_4000) */
 929:.\Generated_Source\PSoC4/MessageTimer.c **** 
 930:.\Generated_Source\PSoC4/MessageTimer.c ****     #if (MessageTimer_CY_TCPWM_4000)
 931:.\Generated_Source\PSoC4/MessageTimer.c ****         currentMode = ((MessageTimer_CONTROL_REG & MessageTimer_UPDOWN_MASK) >> MessageTimer_UPDOWN
 932:.\Generated_Source\PSoC4/MessageTimer.c **** 
 933:.\Generated_Source\PSoC4/MessageTimer.c ****         if (((uint32)MessageTimer__COUNT_DOWN == currentMode) && (0xFFFFu != compareBuf))
 934:.\Generated_Source\PSoC4/MessageTimer.c ****         {
 935:.\Generated_Source\PSoC4/MessageTimer.c ****             compareBuf++;
 936:.\Generated_Source\PSoC4/MessageTimer.c ****         }
 937:.\Generated_Source\PSoC4/MessageTimer.c ****         else if (((uint32)MessageTimer__COUNT_UP == currentMode) && (0u != compareBuf))
 938:.\Generated_Source\PSoC4/MessageTimer.c ****         {
 939:.\Generated_Source\PSoC4/MessageTimer.c ****             compareBuf --;
 940:.\Generated_Source\PSoC4/MessageTimer.c ****         }
 941:.\Generated_Source\PSoC4/MessageTimer.c ****         else
 942:.\Generated_Source\PSoC4/MessageTimer.c ****         {
 943:.\Generated_Source\PSoC4/MessageTimer.c ****         }
 944:.\Generated_Source\PSoC4/MessageTimer.c ****     #endif /* (MessageTimer_CY_TCPWM_4000) */
 945:.\Generated_Source\PSoC4/MessageTimer.c ****     
 946:.\Generated_Source\PSoC4/MessageTimer.c ****     MessageTimer_COMP_CAP_BUF_REG = (compareBuf & MessageTimer_16BIT_MASK);
 1209              		.loc 1 946 0
 1210 0008 034B     		ldr	r3, .L79
 1211 000a 7A68     		ldr	r2, [r7, #4]
 1212 000c 1204     		lsl	r2, r2, #16
 1213 000e 120C     		lsr	r2, r2, #16
 1214 0010 1A60     		str	r2, [r3]
 947:.\Generated_Source\PSoC4/MessageTimer.c **** }
 1215              		.loc 1 947 0
 1216 0012 BD46     		mov	sp, r7
 1217 0014 02B0     		add	sp, sp, #8
 1218              		@ sp needed
 1219 0016 80BD     		pop	{r7, pc}
ARM GAS  C:\Users\Sam\AppData\Local\Temp\ccTX1UXg.s 			page 39


 1220              	.L80:
 1221              		.align	2
 1222              	.L79:
 1223 0018 10010540 		.word	1074069776
 1224              		.cfi_endproc
 1225              	.LFE24:
 1226              		.size	MessageTimer_WriteCompareBuf, .-MessageTimer_WriteCompareBuf
 1227              		.section	.text.MessageTimer_ReadCompareBuf,"ax",%progbits
 1228              		.align	2
 1229              		.global	MessageTimer_ReadCompareBuf
 1230              		.code	16
 1231              		.thumb_func
 1232              		.type	MessageTimer_ReadCompareBuf, %function
 1233              	MessageTimer_ReadCompareBuf:
 1234              	.LFB25:
 948:.\Generated_Source\PSoC4/MessageTimer.c **** 
 949:.\Generated_Source\PSoC4/MessageTimer.c **** 
 950:.\Generated_Source\PSoC4/MessageTimer.c **** /*******************************************************************************
 951:.\Generated_Source\PSoC4/MessageTimer.c **** * Function Name: MessageTimer_ReadCompareBuf
 952:.\Generated_Source\PSoC4/MessageTimer.c **** ********************************************************************************
 953:.\Generated_Source\PSoC4/MessageTimer.c **** *
 954:.\Generated_Source\PSoC4/MessageTimer.c **** * Summary:
 955:.\Generated_Source\PSoC4/MessageTimer.c **** *  Reads the compare buffer register. Not applicable for Timer/Counter with
 956:.\Generated_Source\PSoC4/MessageTimer.c **** *  Capture or in Quadrature Decoder modes.
 957:.\Generated_Source\PSoC4/MessageTimer.c **** *
 958:.\Generated_Source\PSoC4/MessageTimer.c **** * Parameters:
 959:.\Generated_Source\PSoC4/MessageTimer.c **** *  None
 960:.\Generated_Source\PSoC4/MessageTimer.c **** *
 961:.\Generated_Source\PSoC4/MessageTimer.c **** * Return:
 962:.\Generated_Source\PSoC4/MessageTimer.c **** *  Compare buffer value
 963:.\Generated_Source\PSoC4/MessageTimer.c **** *
 964:.\Generated_Source\PSoC4/MessageTimer.c **** *******************************************************************************/
 965:.\Generated_Source\PSoC4/MessageTimer.c **** uint32 MessageTimer_ReadCompareBuf(void)
 966:.\Generated_Source\PSoC4/MessageTimer.c **** {
 1235              		.loc 1 966 0
 1236              		.cfi_startproc
 1237 0000 80B5     		push	{r7, lr}
 1238              		.cfi_def_cfa_offset 8
 1239              		.cfi_offset 7, -8
 1240              		.cfi_offset 14, -4
 1241 0002 00AF     		add	r7, sp, #0
 1242              		.cfi_def_cfa_register 7
 967:.\Generated_Source\PSoC4/MessageTimer.c ****     #if (MessageTimer_CY_TCPWM_4000)
 968:.\Generated_Source\PSoC4/MessageTimer.c ****         uint32 currentMode;
 969:.\Generated_Source\PSoC4/MessageTimer.c ****         uint32 regVal;
 970:.\Generated_Source\PSoC4/MessageTimer.c ****     #endif /* (MessageTimer_CY_TCPWM_4000) */
 971:.\Generated_Source\PSoC4/MessageTimer.c **** 
 972:.\Generated_Source\PSoC4/MessageTimer.c ****     #if (MessageTimer_CY_TCPWM_4000)
 973:.\Generated_Source\PSoC4/MessageTimer.c ****         currentMode = ((MessageTimer_CONTROL_REG & MessageTimer_UPDOWN_MASK) >> MessageTimer_UPDOWN
 974:.\Generated_Source\PSoC4/MessageTimer.c **** 
 975:.\Generated_Source\PSoC4/MessageTimer.c ****         regVal = MessageTimer_COMP_CAP_BUF_REG;
 976:.\Generated_Source\PSoC4/MessageTimer.c ****         
 977:.\Generated_Source\PSoC4/MessageTimer.c ****         if (((uint32)MessageTimer__COUNT_DOWN == currentMode) && (0u != regVal))
 978:.\Generated_Source\PSoC4/MessageTimer.c ****         {
 979:.\Generated_Source\PSoC4/MessageTimer.c ****             regVal--;
 980:.\Generated_Source\PSoC4/MessageTimer.c ****         }
 981:.\Generated_Source\PSoC4/MessageTimer.c ****         else if (((uint32)MessageTimer__COUNT_UP == currentMode) && (0xFFFFu != regVal))
ARM GAS  C:\Users\Sam\AppData\Local\Temp\ccTX1UXg.s 			page 40


 982:.\Generated_Source\PSoC4/MessageTimer.c ****         {
 983:.\Generated_Source\PSoC4/MessageTimer.c ****             regVal++;
 984:.\Generated_Source\PSoC4/MessageTimer.c ****         }
 985:.\Generated_Source\PSoC4/MessageTimer.c ****         else
 986:.\Generated_Source\PSoC4/MessageTimer.c ****         {
 987:.\Generated_Source\PSoC4/MessageTimer.c ****         }
 988:.\Generated_Source\PSoC4/MessageTimer.c **** 
 989:.\Generated_Source\PSoC4/MessageTimer.c ****         return (regVal & MessageTimer_16BIT_MASK);
 990:.\Generated_Source\PSoC4/MessageTimer.c ****     #else
 991:.\Generated_Source\PSoC4/MessageTimer.c ****         return (MessageTimer_COMP_CAP_BUF_REG & MessageTimer_16BIT_MASK);
 1243              		.loc 1 991 0
 1244 0004 034B     		ldr	r3, .L83
 1245 0006 1B68     		ldr	r3, [r3]
 1246 0008 1B04     		lsl	r3, r3, #16
 1247 000a 1B0C     		lsr	r3, r3, #16
 992:.\Generated_Source\PSoC4/MessageTimer.c ****     #endif /* (MessageTimer_CY_TCPWM_4000) */
 993:.\Generated_Source\PSoC4/MessageTimer.c **** }
 1248              		.loc 1 993 0
 1249 000c 181C     		mov	r0, r3
 1250 000e BD46     		mov	sp, r7
 1251              		@ sp needed
 1252 0010 80BD     		pop	{r7, pc}
 1253              	.L84:
 1254 0012 C046     		.align	2
 1255              	.L83:
 1256 0014 10010540 		.word	1074069776
 1257              		.cfi_endproc
 1258              	.LFE25:
 1259              		.size	MessageTimer_ReadCompareBuf, .-MessageTimer_ReadCompareBuf
 1260              		.section	.text.MessageTimer_ReadCapture,"ax",%progbits
 1261              		.align	2
 1262              		.global	MessageTimer_ReadCapture
 1263              		.code	16
 1264              		.thumb_func
 1265              		.type	MessageTimer_ReadCapture, %function
 1266              	MessageTimer_ReadCapture:
 1267              	.LFB26:
 994:.\Generated_Source\PSoC4/MessageTimer.c **** 
 995:.\Generated_Source\PSoC4/MessageTimer.c **** 
 996:.\Generated_Source\PSoC4/MessageTimer.c **** /*******************************************************************************
 997:.\Generated_Source\PSoC4/MessageTimer.c **** * Function Name: MessageTimer_ReadCapture
 998:.\Generated_Source\PSoC4/MessageTimer.c **** ********************************************************************************
 999:.\Generated_Source\PSoC4/MessageTimer.c **** *
1000:.\Generated_Source\PSoC4/MessageTimer.c **** * Summary:
1001:.\Generated_Source\PSoC4/MessageTimer.c **** *  Reads the captured counter value. This API is applicable only for
1002:.\Generated_Source\PSoC4/MessageTimer.c **** *  Timer/Counter with the capture mode and Quadrature Decoder modes.
1003:.\Generated_Source\PSoC4/MessageTimer.c **** *
1004:.\Generated_Source\PSoC4/MessageTimer.c **** * Parameters:
1005:.\Generated_Source\PSoC4/MessageTimer.c **** *  None
1006:.\Generated_Source\PSoC4/MessageTimer.c **** *
1007:.\Generated_Source\PSoC4/MessageTimer.c **** * Return:
1008:.\Generated_Source\PSoC4/MessageTimer.c **** *  Capture value
1009:.\Generated_Source\PSoC4/MessageTimer.c **** *
1010:.\Generated_Source\PSoC4/MessageTimer.c **** *******************************************************************************/
1011:.\Generated_Source\PSoC4/MessageTimer.c **** uint32 MessageTimer_ReadCapture(void)
1012:.\Generated_Source\PSoC4/MessageTimer.c **** {
 1268              		.loc 1 1012 0
ARM GAS  C:\Users\Sam\AppData\Local\Temp\ccTX1UXg.s 			page 41


 1269              		.cfi_startproc
 1270 0000 80B5     		push	{r7, lr}
 1271              		.cfi_def_cfa_offset 8
 1272              		.cfi_offset 7, -8
 1273              		.cfi_offset 14, -4
 1274 0002 00AF     		add	r7, sp, #0
 1275              		.cfi_def_cfa_register 7
1013:.\Generated_Source\PSoC4/MessageTimer.c ****     return (MessageTimer_COMP_CAP_REG & MessageTimer_16BIT_MASK);
 1276              		.loc 1 1013 0
 1277 0004 034B     		ldr	r3, .L87
 1278 0006 1B68     		ldr	r3, [r3]
 1279 0008 1B04     		lsl	r3, r3, #16
 1280 000a 1B0C     		lsr	r3, r3, #16
1014:.\Generated_Source\PSoC4/MessageTimer.c **** }
 1281              		.loc 1 1014 0
 1282 000c 181C     		mov	r0, r3
 1283 000e BD46     		mov	sp, r7
 1284              		@ sp needed
 1285 0010 80BD     		pop	{r7, pc}
 1286              	.L88:
 1287 0012 C046     		.align	2
 1288              	.L87:
 1289 0014 0C010540 		.word	1074069772
 1290              		.cfi_endproc
 1291              	.LFE26:
 1292              		.size	MessageTimer_ReadCapture, .-MessageTimer_ReadCapture
 1293              		.section	.text.MessageTimer_ReadCaptureBuf,"ax",%progbits
 1294              		.align	2
 1295              		.global	MessageTimer_ReadCaptureBuf
 1296              		.code	16
 1297              		.thumb_func
 1298              		.type	MessageTimer_ReadCaptureBuf, %function
 1299              	MessageTimer_ReadCaptureBuf:
 1300              	.LFB27:
1015:.\Generated_Source\PSoC4/MessageTimer.c **** 
1016:.\Generated_Source\PSoC4/MessageTimer.c **** 
1017:.\Generated_Source\PSoC4/MessageTimer.c **** /*******************************************************************************
1018:.\Generated_Source\PSoC4/MessageTimer.c **** * Function Name: MessageTimer_ReadCaptureBuf
1019:.\Generated_Source\PSoC4/MessageTimer.c **** ********************************************************************************
1020:.\Generated_Source\PSoC4/MessageTimer.c **** *
1021:.\Generated_Source\PSoC4/MessageTimer.c **** * Summary:
1022:.\Generated_Source\PSoC4/MessageTimer.c **** *  Reads the capture buffer register. This API is applicable only for
1023:.\Generated_Source\PSoC4/MessageTimer.c **** *  Timer/Counter with the capture mode and Quadrature Decoder modes.
1024:.\Generated_Source\PSoC4/MessageTimer.c **** *
1025:.\Generated_Source\PSoC4/MessageTimer.c **** * Parameters:
1026:.\Generated_Source\PSoC4/MessageTimer.c **** *  None
1027:.\Generated_Source\PSoC4/MessageTimer.c **** *
1028:.\Generated_Source\PSoC4/MessageTimer.c **** * Return:
1029:.\Generated_Source\PSoC4/MessageTimer.c **** *  Capture buffer value
1030:.\Generated_Source\PSoC4/MessageTimer.c **** *
1031:.\Generated_Source\PSoC4/MessageTimer.c **** *******************************************************************************/
1032:.\Generated_Source\PSoC4/MessageTimer.c **** uint32 MessageTimer_ReadCaptureBuf(void)
1033:.\Generated_Source\PSoC4/MessageTimer.c **** {
 1301              		.loc 1 1033 0
 1302              		.cfi_startproc
 1303 0000 80B5     		push	{r7, lr}
 1304              		.cfi_def_cfa_offset 8
ARM GAS  C:\Users\Sam\AppData\Local\Temp\ccTX1UXg.s 			page 42


 1305              		.cfi_offset 7, -8
 1306              		.cfi_offset 14, -4
 1307 0002 00AF     		add	r7, sp, #0
 1308              		.cfi_def_cfa_register 7
1034:.\Generated_Source\PSoC4/MessageTimer.c ****     return (MessageTimer_COMP_CAP_BUF_REG & MessageTimer_16BIT_MASK);
 1309              		.loc 1 1034 0
 1310 0004 034B     		ldr	r3, .L91
 1311 0006 1B68     		ldr	r3, [r3]
 1312 0008 1B04     		lsl	r3, r3, #16
 1313 000a 1B0C     		lsr	r3, r3, #16
1035:.\Generated_Source\PSoC4/MessageTimer.c **** }
 1314              		.loc 1 1035 0
 1315 000c 181C     		mov	r0, r3
 1316 000e BD46     		mov	sp, r7
 1317              		@ sp needed
 1318 0010 80BD     		pop	{r7, pc}
 1319              	.L92:
 1320 0012 C046     		.align	2
 1321              	.L91:
 1322 0014 10010540 		.word	1074069776
 1323              		.cfi_endproc
 1324              	.LFE27:
 1325              		.size	MessageTimer_ReadCaptureBuf, .-MessageTimer_ReadCaptureBuf
 1326              		.section	.text.MessageTimer_SetCaptureMode,"ax",%progbits
 1327              		.align	2
 1328              		.global	MessageTimer_SetCaptureMode
 1329              		.code	16
 1330              		.thumb_func
 1331              		.type	MessageTimer_SetCaptureMode, %function
 1332              	MessageTimer_SetCaptureMode:
 1333              	.LFB28:
1036:.\Generated_Source\PSoC4/MessageTimer.c **** 
1037:.\Generated_Source\PSoC4/MessageTimer.c **** 
1038:.\Generated_Source\PSoC4/MessageTimer.c **** /*******************************************************************************
1039:.\Generated_Source\PSoC4/MessageTimer.c **** * Function Name: MessageTimer_SetCaptureMode
1040:.\Generated_Source\PSoC4/MessageTimer.c **** ********************************************************************************
1041:.\Generated_Source\PSoC4/MessageTimer.c **** *
1042:.\Generated_Source\PSoC4/MessageTimer.c **** * Summary:
1043:.\Generated_Source\PSoC4/MessageTimer.c **** *  Sets the capture trigger mode. For PWM mode this is the switch input.
1044:.\Generated_Source\PSoC4/MessageTimer.c **** *  This input is not applicable to the Timer/Counter without Capture and
1045:.\Generated_Source\PSoC4/MessageTimer.c **** *  Quadrature Decoder modes.
1046:.\Generated_Source\PSoC4/MessageTimer.c **** *
1047:.\Generated_Source\PSoC4/MessageTimer.c **** * Parameters:
1048:.\Generated_Source\PSoC4/MessageTimer.c **** *  triggerMode: Enumerated trigger mode value
1049:.\Generated_Source\PSoC4/MessageTimer.c **** *   Values:
1050:.\Generated_Source\PSoC4/MessageTimer.c **** *     - MessageTimer_TRIG_LEVEL     - Level
1051:.\Generated_Source\PSoC4/MessageTimer.c **** *     - MessageTimer_TRIG_RISING    - Rising edge
1052:.\Generated_Source\PSoC4/MessageTimer.c **** *     - MessageTimer_TRIG_FALLING   - Falling edge
1053:.\Generated_Source\PSoC4/MessageTimer.c **** *     - MessageTimer_TRIG_BOTH      - Both rising and falling edge
1054:.\Generated_Source\PSoC4/MessageTimer.c **** *
1055:.\Generated_Source\PSoC4/MessageTimer.c **** * Return:
1056:.\Generated_Source\PSoC4/MessageTimer.c **** *  None
1057:.\Generated_Source\PSoC4/MessageTimer.c **** *
1058:.\Generated_Source\PSoC4/MessageTimer.c **** *******************************************************************************/
1059:.\Generated_Source\PSoC4/MessageTimer.c **** void MessageTimer_SetCaptureMode(uint32 triggerMode)
1060:.\Generated_Source\PSoC4/MessageTimer.c **** {
 1334              		.loc 1 1060 0
ARM GAS  C:\Users\Sam\AppData\Local\Temp\ccTX1UXg.s 			page 43


 1335              		.cfi_startproc
 1336 0000 90B5     		push	{r4, r7, lr}
 1337              		.cfi_def_cfa_offset 12
 1338              		.cfi_offset 4, -12
 1339              		.cfi_offset 7, -8
 1340              		.cfi_offset 14, -4
 1341 0002 85B0     		sub	sp, sp, #20
 1342              		.cfi_def_cfa_offset 32
 1343 0004 00AF     		add	r7, sp, #0
 1344              		.cfi_def_cfa_register 7
 1345 0006 7860     		str	r0, [r7, #4]
1061:.\Generated_Source\PSoC4/MessageTimer.c ****     uint8 enableInterrupts;
1062:.\Generated_Source\PSoC4/MessageTimer.c **** 
1063:.\Generated_Source\PSoC4/MessageTimer.c ****     enableInterrupts = CyEnterCriticalSection();
 1346              		.loc 1 1063 0
 1347 0008 3C1C     		mov	r4, r7
 1348 000a 0F34     		add	r4, r4, #15
 1349 000c FFF7FEFF 		bl	CyEnterCriticalSection
 1350 0010 031C     		mov	r3, r0
 1351 0012 2370     		strb	r3, [r4]
1064:.\Generated_Source\PSoC4/MessageTimer.c **** 
1065:.\Generated_Source\PSoC4/MessageTimer.c ****     MessageTimer_TRIG_CONTROL1_REG &= (uint32)~MessageTimer_CAPTURE_MASK;
 1352              		.loc 1 1065 0
 1353 0014 0A4B     		ldr	r3, .L94
 1354 0016 0A4A     		ldr	r2, .L94
 1355 0018 1268     		ldr	r2, [r2]
 1356 001a 0321     		mov	r1, #3
 1357 001c 8A43     		bic	r2, r1
 1358 001e 1A60     		str	r2, [r3]
1066:.\Generated_Source\PSoC4/MessageTimer.c ****     MessageTimer_TRIG_CONTROL1_REG |= triggerMode;
 1359              		.loc 1 1066 0
 1360 0020 074B     		ldr	r3, .L94
 1361 0022 074A     		ldr	r2, .L94
 1362 0024 1168     		ldr	r1, [r2]
 1363 0026 7A68     		ldr	r2, [r7, #4]
 1364 0028 0A43     		orr	r2, r1
 1365 002a 1A60     		str	r2, [r3]
1067:.\Generated_Source\PSoC4/MessageTimer.c **** 
1068:.\Generated_Source\PSoC4/MessageTimer.c ****     CyExitCriticalSection(enableInterrupts);
 1366              		.loc 1 1068 0
 1367 002c 3B1C     		mov	r3, r7
 1368 002e 0F33     		add	r3, r3, #15
 1369 0030 1B78     		ldrb	r3, [r3]
 1370 0032 181C     		mov	r0, r3
 1371 0034 FFF7FEFF 		bl	CyExitCriticalSection
1069:.\Generated_Source\PSoC4/MessageTimer.c **** }
 1372              		.loc 1 1069 0
 1373 0038 BD46     		mov	sp, r7
 1374 003a 05B0     		add	sp, sp, #20
 1375              		@ sp needed
 1376 003c 90BD     		pop	{r4, r7, pc}
 1377              	.L95:
 1378 003e C046     		.align	2
 1379              	.L94:
 1380 0040 24010540 		.word	1074069796
 1381              		.cfi_endproc
 1382              	.LFE28:
ARM GAS  C:\Users\Sam\AppData\Local\Temp\ccTX1UXg.s 			page 44


 1383              		.size	MessageTimer_SetCaptureMode, .-MessageTimer_SetCaptureMode
 1384              		.section	.text.MessageTimer_SetReloadMode,"ax",%progbits
 1385              		.align	2
 1386              		.global	MessageTimer_SetReloadMode
 1387              		.code	16
 1388              		.thumb_func
 1389              		.type	MessageTimer_SetReloadMode, %function
 1390              	MessageTimer_SetReloadMode:
 1391              	.LFB29:
1070:.\Generated_Source\PSoC4/MessageTimer.c **** 
1071:.\Generated_Source\PSoC4/MessageTimer.c **** 
1072:.\Generated_Source\PSoC4/MessageTimer.c **** /*******************************************************************************
1073:.\Generated_Source\PSoC4/MessageTimer.c **** * Function Name: MessageTimer_SetReloadMode
1074:.\Generated_Source\PSoC4/MessageTimer.c **** ********************************************************************************
1075:.\Generated_Source\PSoC4/MessageTimer.c **** *
1076:.\Generated_Source\PSoC4/MessageTimer.c **** * Summary:
1077:.\Generated_Source\PSoC4/MessageTimer.c **** *  Sets the reload trigger mode. For Quadrature Decoder mode this is the index
1078:.\Generated_Source\PSoC4/MessageTimer.c **** *  input.
1079:.\Generated_Source\PSoC4/MessageTimer.c **** *
1080:.\Generated_Source\PSoC4/MessageTimer.c **** * Parameters:
1081:.\Generated_Source\PSoC4/MessageTimer.c **** *  triggerMode: Enumerated trigger mode value
1082:.\Generated_Source\PSoC4/MessageTimer.c **** *   Values:
1083:.\Generated_Source\PSoC4/MessageTimer.c **** *     - MessageTimer_TRIG_LEVEL     - Level
1084:.\Generated_Source\PSoC4/MessageTimer.c **** *     - MessageTimer_TRIG_RISING    - Rising edge
1085:.\Generated_Source\PSoC4/MessageTimer.c **** *     - MessageTimer_TRIG_FALLING   - Falling edge
1086:.\Generated_Source\PSoC4/MessageTimer.c **** *     - MessageTimer_TRIG_BOTH      - Both rising and falling edge
1087:.\Generated_Source\PSoC4/MessageTimer.c **** *
1088:.\Generated_Source\PSoC4/MessageTimer.c **** * Return:
1089:.\Generated_Source\PSoC4/MessageTimer.c **** *  None
1090:.\Generated_Source\PSoC4/MessageTimer.c **** *
1091:.\Generated_Source\PSoC4/MessageTimer.c **** *******************************************************************************/
1092:.\Generated_Source\PSoC4/MessageTimer.c **** void MessageTimer_SetReloadMode(uint32 triggerMode)
1093:.\Generated_Source\PSoC4/MessageTimer.c **** {
 1392              		.loc 1 1093 0
 1393              		.cfi_startproc
 1394 0000 90B5     		push	{r4, r7, lr}
 1395              		.cfi_def_cfa_offset 12
 1396              		.cfi_offset 4, -12
 1397              		.cfi_offset 7, -8
 1398              		.cfi_offset 14, -4
 1399 0002 85B0     		sub	sp, sp, #20
 1400              		.cfi_def_cfa_offset 32
 1401 0004 00AF     		add	r7, sp, #0
 1402              		.cfi_def_cfa_register 7
 1403 0006 7860     		str	r0, [r7, #4]
1094:.\Generated_Source\PSoC4/MessageTimer.c ****     uint8 enableInterrupts;
1095:.\Generated_Source\PSoC4/MessageTimer.c **** 
1096:.\Generated_Source\PSoC4/MessageTimer.c ****     enableInterrupts = CyEnterCriticalSection();
 1404              		.loc 1 1096 0
 1405 0008 3C1C     		mov	r4, r7
 1406 000a 0F34     		add	r4, r4, #15
 1407 000c FFF7FEFF 		bl	CyEnterCriticalSection
 1408 0010 031C     		mov	r3, r0
 1409 0012 2370     		strb	r3, [r4]
1097:.\Generated_Source\PSoC4/MessageTimer.c **** 
1098:.\Generated_Source\PSoC4/MessageTimer.c ****     MessageTimer_TRIG_CONTROL1_REG &= (uint32)~MessageTimer_RELOAD_MASK;
 1410              		.loc 1 1098 0
ARM GAS  C:\Users\Sam\AppData\Local\Temp\ccTX1UXg.s 			page 45


 1411 0014 0A4B     		ldr	r3, .L97
 1412 0016 0A4A     		ldr	r2, .L97
 1413 0018 1268     		ldr	r2, [r2]
 1414 001a 3021     		mov	r1, #48
 1415 001c 8A43     		bic	r2, r1
 1416 001e 1A60     		str	r2, [r3]
1099:.\Generated_Source\PSoC4/MessageTimer.c ****     MessageTimer_TRIG_CONTROL1_REG |= ((uint32)(triggerMode << MessageTimer_RELOAD_SHIFT));
 1417              		.loc 1 1099 0
 1418 0020 074B     		ldr	r3, .L97
 1419 0022 074A     		ldr	r2, .L97
 1420 0024 1168     		ldr	r1, [r2]
 1421 0026 7A68     		ldr	r2, [r7, #4]
 1422 0028 1201     		lsl	r2, r2, #4
 1423 002a 0A43     		orr	r2, r1
 1424 002c 1A60     		str	r2, [r3]
1100:.\Generated_Source\PSoC4/MessageTimer.c **** 
1101:.\Generated_Source\PSoC4/MessageTimer.c ****     CyExitCriticalSection(enableInterrupts);
 1425              		.loc 1 1101 0
 1426 002e 3B1C     		mov	r3, r7
 1427 0030 0F33     		add	r3, r3, #15
 1428 0032 1B78     		ldrb	r3, [r3]
 1429 0034 181C     		mov	r0, r3
 1430 0036 FFF7FEFF 		bl	CyExitCriticalSection
1102:.\Generated_Source\PSoC4/MessageTimer.c **** }
 1431              		.loc 1 1102 0
 1432 003a BD46     		mov	sp, r7
 1433 003c 05B0     		add	sp, sp, #20
 1434              		@ sp needed
 1435 003e 90BD     		pop	{r4, r7, pc}
 1436              	.L98:
 1437              		.align	2
 1438              	.L97:
 1439 0040 24010540 		.word	1074069796
 1440              		.cfi_endproc
 1441              	.LFE29:
 1442              		.size	MessageTimer_SetReloadMode, .-MessageTimer_SetReloadMode
 1443              		.section	.text.MessageTimer_SetStartMode,"ax",%progbits
 1444              		.align	2
 1445              		.global	MessageTimer_SetStartMode
 1446              		.code	16
 1447              		.thumb_func
 1448              		.type	MessageTimer_SetStartMode, %function
 1449              	MessageTimer_SetStartMode:
 1450              	.LFB30:
1103:.\Generated_Source\PSoC4/MessageTimer.c **** 
1104:.\Generated_Source\PSoC4/MessageTimer.c **** 
1105:.\Generated_Source\PSoC4/MessageTimer.c **** /*******************************************************************************
1106:.\Generated_Source\PSoC4/MessageTimer.c **** * Function Name: MessageTimer_SetStartMode
1107:.\Generated_Source\PSoC4/MessageTimer.c **** ********************************************************************************
1108:.\Generated_Source\PSoC4/MessageTimer.c **** *
1109:.\Generated_Source\PSoC4/MessageTimer.c **** * Summary:
1110:.\Generated_Source\PSoC4/MessageTimer.c **** *  Sets the start trigger mode. For Quadrature Decoder mode this is the
1111:.\Generated_Source\PSoC4/MessageTimer.c **** *  phiB input.
1112:.\Generated_Source\PSoC4/MessageTimer.c **** *
1113:.\Generated_Source\PSoC4/MessageTimer.c **** * Parameters:
1114:.\Generated_Source\PSoC4/MessageTimer.c **** *  triggerMode: Enumerated trigger mode value
1115:.\Generated_Source\PSoC4/MessageTimer.c **** *   Values:
ARM GAS  C:\Users\Sam\AppData\Local\Temp\ccTX1UXg.s 			page 46


1116:.\Generated_Source\PSoC4/MessageTimer.c **** *     - MessageTimer_TRIG_LEVEL     - Level
1117:.\Generated_Source\PSoC4/MessageTimer.c **** *     - MessageTimer_TRIG_RISING    - Rising edge
1118:.\Generated_Source\PSoC4/MessageTimer.c **** *     - MessageTimer_TRIG_FALLING   - Falling edge
1119:.\Generated_Source\PSoC4/MessageTimer.c **** *     - MessageTimer_TRIG_BOTH      - Both rising and falling edge
1120:.\Generated_Source\PSoC4/MessageTimer.c **** *
1121:.\Generated_Source\PSoC4/MessageTimer.c **** * Return:
1122:.\Generated_Source\PSoC4/MessageTimer.c **** *  None
1123:.\Generated_Source\PSoC4/MessageTimer.c **** *
1124:.\Generated_Source\PSoC4/MessageTimer.c **** *******************************************************************************/
1125:.\Generated_Source\PSoC4/MessageTimer.c **** void MessageTimer_SetStartMode(uint32 triggerMode)
1126:.\Generated_Source\PSoC4/MessageTimer.c **** {
 1451              		.loc 1 1126 0
 1452              		.cfi_startproc
 1453 0000 90B5     		push	{r4, r7, lr}
 1454              		.cfi_def_cfa_offset 12
 1455              		.cfi_offset 4, -12
 1456              		.cfi_offset 7, -8
 1457              		.cfi_offset 14, -4
 1458 0002 85B0     		sub	sp, sp, #20
 1459              		.cfi_def_cfa_offset 32
 1460 0004 00AF     		add	r7, sp, #0
 1461              		.cfi_def_cfa_register 7
 1462 0006 7860     		str	r0, [r7, #4]
1127:.\Generated_Source\PSoC4/MessageTimer.c ****     uint8 enableInterrupts;
1128:.\Generated_Source\PSoC4/MessageTimer.c **** 
1129:.\Generated_Source\PSoC4/MessageTimer.c ****     enableInterrupts = CyEnterCriticalSection();
 1463              		.loc 1 1129 0
 1464 0008 3C1C     		mov	r4, r7
 1465 000a 0F34     		add	r4, r4, #15
 1466 000c FFF7FEFF 		bl	CyEnterCriticalSection
 1467 0010 031C     		mov	r3, r0
 1468 0012 2370     		strb	r3, [r4]
1130:.\Generated_Source\PSoC4/MessageTimer.c **** 
1131:.\Generated_Source\PSoC4/MessageTimer.c ****     MessageTimer_TRIG_CONTROL1_REG &= (uint32)~MessageTimer_START_MASK;
 1469              		.loc 1 1131 0
 1470 0014 0A4B     		ldr	r3, .L100
 1471 0016 0A4A     		ldr	r2, .L100
 1472 0018 1168     		ldr	r1, [r2]
 1473 001a 0A4A     		ldr	r2, .L100+4
 1474 001c 0A40     		and	r2, r1
 1475 001e 1A60     		str	r2, [r3]
1132:.\Generated_Source\PSoC4/MessageTimer.c ****     MessageTimer_TRIG_CONTROL1_REG |= ((uint32)(triggerMode << MessageTimer_START_SHIFT));
 1476              		.loc 1 1132 0
 1477 0020 074B     		ldr	r3, .L100
 1478 0022 074A     		ldr	r2, .L100
 1479 0024 1168     		ldr	r1, [r2]
 1480 0026 7A68     		ldr	r2, [r7, #4]
 1481 0028 1202     		lsl	r2, r2, #8
 1482 002a 0A43     		orr	r2, r1
 1483 002c 1A60     		str	r2, [r3]
1133:.\Generated_Source\PSoC4/MessageTimer.c **** 
1134:.\Generated_Source\PSoC4/MessageTimer.c ****     CyExitCriticalSection(enableInterrupts);
 1484              		.loc 1 1134 0
 1485 002e 3B1C     		mov	r3, r7
 1486 0030 0F33     		add	r3, r3, #15
 1487 0032 1B78     		ldrb	r3, [r3]
 1488 0034 181C     		mov	r0, r3
ARM GAS  C:\Users\Sam\AppData\Local\Temp\ccTX1UXg.s 			page 47


 1489 0036 FFF7FEFF 		bl	CyExitCriticalSection
1135:.\Generated_Source\PSoC4/MessageTimer.c **** }
 1490              		.loc 1 1135 0
 1491 003a BD46     		mov	sp, r7
 1492 003c 05B0     		add	sp, sp, #20
 1493              		@ sp needed
 1494 003e 90BD     		pop	{r4, r7, pc}
 1495              	.L101:
 1496              		.align	2
 1497              	.L100:
 1498 0040 24010540 		.word	1074069796
 1499 0044 FFFCFFFF 		.word	-769
 1500              		.cfi_endproc
 1501              	.LFE30:
 1502              		.size	MessageTimer_SetStartMode, .-MessageTimer_SetStartMode
 1503              		.section	.text.MessageTimer_SetStopMode,"ax",%progbits
 1504              		.align	2
 1505              		.global	MessageTimer_SetStopMode
 1506              		.code	16
 1507              		.thumb_func
 1508              		.type	MessageTimer_SetStopMode, %function
 1509              	MessageTimer_SetStopMode:
 1510              	.LFB31:
1136:.\Generated_Source\PSoC4/MessageTimer.c **** 
1137:.\Generated_Source\PSoC4/MessageTimer.c **** 
1138:.\Generated_Source\PSoC4/MessageTimer.c **** /*******************************************************************************
1139:.\Generated_Source\PSoC4/MessageTimer.c **** * Function Name: MessageTimer_SetStopMode
1140:.\Generated_Source\PSoC4/MessageTimer.c **** ********************************************************************************
1141:.\Generated_Source\PSoC4/MessageTimer.c **** *
1142:.\Generated_Source\PSoC4/MessageTimer.c **** * Summary:
1143:.\Generated_Source\PSoC4/MessageTimer.c **** *  Sets the stop trigger mode. For PWM mode this is the kill input.
1144:.\Generated_Source\PSoC4/MessageTimer.c **** *
1145:.\Generated_Source\PSoC4/MessageTimer.c **** * Parameters:
1146:.\Generated_Source\PSoC4/MessageTimer.c **** *  triggerMode: Enumerated trigger mode value
1147:.\Generated_Source\PSoC4/MessageTimer.c **** *   Values:
1148:.\Generated_Source\PSoC4/MessageTimer.c **** *     - MessageTimer_TRIG_LEVEL     - Level
1149:.\Generated_Source\PSoC4/MessageTimer.c **** *     - MessageTimer_TRIG_RISING    - Rising edge
1150:.\Generated_Source\PSoC4/MessageTimer.c **** *     - MessageTimer_TRIG_FALLING   - Falling edge
1151:.\Generated_Source\PSoC4/MessageTimer.c **** *     - MessageTimer_TRIG_BOTH      - Both rising and falling edge
1152:.\Generated_Source\PSoC4/MessageTimer.c **** *
1153:.\Generated_Source\PSoC4/MessageTimer.c **** * Return:
1154:.\Generated_Source\PSoC4/MessageTimer.c **** *  None
1155:.\Generated_Source\PSoC4/MessageTimer.c **** *
1156:.\Generated_Source\PSoC4/MessageTimer.c **** *******************************************************************************/
1157:.\Generated_Source\PSoC4/MessageTimer.c **** void MessageTimer_SetStopMode(uint32 triggerMode)
1158:.\Generated_Source\PSoC4/MessageTimer.c **** {
 1511              		.loc 1 1158 0
 1512              		.cfi_startproc
 1513 0000 90B5     		push	{r4, r7, lr}
 1514              		.cfi_def_cfa_offset 12
 1515              		.cfi_offset 4, -12
 1516              		.cfi_offset 7, -8
 1517              		.cfi_offset 14, -4
 1518 0002 85B0     		sub	sp, sp, #20
 1519              		.cfi_def_cfa_offset 32
 1520 0004 00AF     		add	r7, sp, #0
 1521              		.cfi_def_cfa_register 7
ARM GAS  C:\Users\Sam\AppData\Local\Temp\ccTX1UXg.s 			page 48


 1522 0006 7860     		str	r0, [r7, #4]
1159:.\Generated_Source\PSoC4/MessageTimer.c ****     uint8 enableInterrupts;
1160:.\Generated_Source\PSoC4/MessageTimer.c **** 
1161:.\Generated_Source\PSoC4/MessageTimer.c ****     enableInterrupts = CyEnterCriticalSection();
 1523              		.loc 1 1161 0
 1524 0008 3C1C     		mov	r4, r7
 1525 000a 0F34     		add	r4, r4, #15
 1526 000c FFF7FEFF 		bl	CyEnterCriticalSection
 1527 0010 031C     		mov	r3, r0
 1528 0012 2370     		strb	r3, [r4]
1162:.\Generated_Source\PSoC4/MessageTimer.c **** 
1163:.\Generated_Source\PSoC4/MessageTimer.c ****     MessageTimer_TRIG_CONTROL1_REG &= (uint32)~MessageTimer_STOP_MASK;
 1529              		.loc 1 1163 0
 1530 0014 0A4B     		ldr	r3, .L103
 1531 0016 0A4A     		ldr	r2, .L103
 1532 0018 1268     		ldr	r2, [r2]
 1533 001a C021     		mov	r1, #192
 1534 001c 8A43     		bic	r2, r1
 1535 001e 1A60     		str	r2, [r3]
1164:.\Generated_Source\PSoC4/MessageTimer.c ****     MessageTimer_TRIG_CONTROL1_REG |= ((uint32)(triggerMode << MessageTimer_STOP_SHIFT));
 1536              		.loc 1 1164 0
 1537 0020 074B     		ldr	r3, .L103
 1538 0022 074A     		ldr	r2, .L103
 1539 0024 1168     		ldr	r1, [r2]
 1540 0026 7A68     		ldr	r2, [r7, #4]
 1541 0028 9201     		lsl	r2, r2, #6
 1542 002a 0A43     		orr	r2, r1
 1543 002c 1A60     		str	r2, [r3]
1165:.\Generated_Source\PSoC4/MessageTimer.c **** 
1166:.\Generated_Source\PSoC4/MessageTimer.c ****     CyExitCriticalSection(enableInterrupts);
 1544              		.loc 1 1166 0
 1545 002e 3B1C     		mov	r3, r7
 1546 0030 0F33     		add	r3, r3, #15
 1547 0032 1B78     		ldrb	r3, [r3]
 1548 0034 181C     		mov	r0, r3
 1549 0036 FFF7FEFF 		bl	CyExitCriticalSection
1167:.\Generated_Source\PSoC4/MessageTimer.c **** }
 1550              		.loc 1 1167 0
 1551 003a BD46     		mov	sp, r7
 1552 003c 05B0     		add	sp, sp, #20
 1553              		@ sp needed
 1554 003e 90BD     		pop	{r4, r7, pc}
 1555              	.L104:
 1556              		.align	2
 1557              	.L103:
 1558 0040 24010540 		.word	1074069796
 1559              		.cfi_endproc
 1560              	.LFE31:
 1561              		.size	MessageTimer_SetStopMode, .-MessageTimer_SetStopMode
 1562              		.section	.text.MessageTimer_SetCountMode,"ax",%progbits
 1563              		.align	2
 1564              		.global	MessageTimer_SetCountMode
 1565              		.code	16
 1566              		.thumb_func
 1567              		.type	MessageTimer_SetCountMode, %function
 1568              	MessageTimer_SetCountMode:
 1569              	.LFB32:
ARM GAS  C:\Users\Sam\AppData\Local\Temp\ccTX1UXg.s 			page 49


1168:.\Generated_Source\PSoC4/MessageTimer.c **** 
1169:.\Generated_Source\PSoC4/MessageTimer.c **** 
1170:.\Generated_Source\PSoC4/MessageTimer.c **** /*******************************************************************************
1171:.\Generated_Source\PSoC4/MessageTimer.c **** * Function Name: MessageTimer_SetCountMode
1172:.\Generated_Source\PSoC4/MessageTimer.c **** ********************************************************************************
1173:.\Generated_Source\PSoC4/MessageTimer.c **** *
1174:.\Generated_Source\PSoC4/MessageTimer.c **** * Summary:
1175:.\Generated_Source\PSoC4/MessageTimer.c **** *  Sets the count trigger mode. For Quadrature Decoder mode this is the phiA
1176:.\Generated_Source\PSoC4/MessageTimer.c **** *  input.
1177:.\Generated_Source\PSoC4/MessageTimer.c **** *
1178:.\Generated_Source\PSoC4/MessageTimer.c **** * Parameters:
1179:.\Generated_Source\PSoC4/MessageTimer.c **** *  triggerMode: Enumerated trigger mode value
1180:.\Generated_Source\PSoC4/MessageTimer.c **** *   Values:
1181:.\Generated_Source\PSoC4/MessageTimer.c **** *     - MessageTimer_TRIG_LEVEL     - Level
1182:.\Generated_Source\PSoC4/MessageTimer.c **** *     - MessageTimer_TRIG_RISING    - Rising edge
1183:.\Generated_Source\PSoC4/MessageTimer.c **** *     - MessageTimer_TRIG_FALLING   - Falling edge
1184:.\Generated_Source\PSoC4/MessageTimer.c **** *     - MessageTimer_TRIG_BOTH      - Both rising and falling edge
1185:.\Generated_Source\PSoC4/MessageTimer.c **** *
1186:.\Generated_Source\PSoC4/MessageTimer.c **** * Return:
1187:.\Generated_Source\PSoC4/MessageTimer.c **** *  None
1188:.\Generated_Source\PSoC4/MessageTimer.c **** *
1189:.\Generated_Source\PSoC4/MessageTimer.c **** *******************************************************************************/
1190:.\Generated_Source\PSoC4/MessageTimer.c **** void MessageTimer_SetCountMode(uint32 triggerMode)
1191:.\Generated_Source\PSoC4/MessageTimer.c **** {
 1570              		.loc 1 1191 0
 1571              		.cfi_startproc
 1572 0000 90B5     		push	{r4, r7, lr}
 1573              		.cfi_def_cfa_offset 12
 1574              		.cfi_offset 4, -12
 1575              		.cfi_offset 7, -8
 1576              		.cfi_offset 14, -4
 1577 0002 85B0     		sub	sp, sp, #20
 1578              		.cfi_def_cfa_offset 32
 1579 0004 00AF     		add	r7, sp, #0
 1580              		.cfi_def_cfa_register 7
 1581 0006 7860     		str	r0, [r7, #4]
1192:.\Generated_Source\PSoC4/MessageTimer.c ****     uint8 enableInterrupts;
1193:.\Generated_Source\PSoC4/MessageTimer.c **** 
1194:.\Generated_Source\PSoC4/MessageTimer.c ****     enableInterrupts = CyEnterCriticalSection();
 1582              		.loc 1 1194 0
 1583 0008 3C1C     		mov	r4, r7
 1584 000a 0F34     		add	r4, r4, #15
 1585 000c FFF7FEFF 		bl	CyEnterCriticalSection
 1586 0010 031C     		mov	r3, r0
 1587 0012 2370     		strb	r3, [r4]
1195:.\Generated_Source\PSoC4/MessageTimer.c **** 
1196:.\Generated_Source\PSoC4/MessageTimer.c ****     MessageTimer_TRIG_CONTROL1_REG &= (uint32)~MessageTimer_COUNT_MASK;
 1588              		.loc 1 1196 0
 1589 0014 0A4B     		ldr	r3, .L106
 1590 0016 0A4A     		ldr	r2, .L106
 1591 0018 1268     		ldr	r2, [r2]
 1592 001a 0C21     		mov	r1, #12
 1593 001c 8A43     		bic	r2, r1
 1594 001e 1A60     		str	r2, [r3]
1197:.\Generated_Source\PSoC4/MessageTimer.c ****     MessageTimer_TRIG_CONTROL1_REG |= ((uint32)(triggerMode << MessageTimer_COUNT_SHIFT));
 1595              		.loc 1 1197 0
 1596 0020 074B     		ldr	r3, .L106
ARM GAS  C:\Users\Sam\AppData\Local\Temp\ccTX1UXg.s 			page 50


 1597 0022 074A     		ldr	r2, .L106
 1598 0024 1168     		ldr	r1, [r2]
 1599 0026 7A68     		ldr	r2, [r7, #4]
 1600 0028 9200     		lsl	r2, r2, #2
 1601 002a 0A43     		orr	r2, r1
 1602 002c 1A60     		str	r2, [r3]
1198:.\Generated_Source\PSoC4/MessageTimer.c **** 
1199:.\Generated_Source\PSoC4/MessageTimer.c ****     CyExitCriticalSection(enableInterrupts);
 1603              		.loc 1 1199 0
 1604 002e 3B1C     		mov	r3, r7
 1605 0030 0F33     		add	r3, r3, #15
 1606 0032 1B78     		ldrb	r3, [r3]
 1607 0034 181C     		mov	r0, r3
 1608 0036 FFF7FEFF 		bl	CyExitCriticalSection
1200:.\Generated_Source\PSoC4/MessageTimer.c **** }
 1609              		.loc 1 1200 0
 1610 003a BD46     		mov	sp, r7
 1611 003c 05B0     		add	sp, sp, #20
 1612              		@ sp needed
 1613 003e 90BD     		pop	{r4, r7, pc}
 1614              	.L107:
 1615              		.align	2
 1616              	.L106:
 1617 0040 24010540 		.word	1074069796
 1618              		.cfi_endproc
 1619              	.LFE32:
 1620              		.size	MessageTimer_SetCountMode, .-MessageTimer_SetCountMode
 1621              		.section	.text.MessageTimer_TriggerCommand,"ax",%progbits
 1622              		.align	2
 1623              		.global	MessageTimer_TriggerCommand
 1624              		.code	16
 1625              		.thumb_func
 1626              		.type	MessageTimer_TriggerCommand, %function
 1627              	MessageTimer_TriggerCommand:
 1628              	.LFB33:
1201:.\Generated_Source\PSoC4/MessageTimer.c **** 
1202:.\Generated_Source\PSoC4/MessageTimer.c **** 
1203:.\Generated_Source\PSoC4/MessageTimer.c **** /*******************************************************************************
1204:.\Generated_Source\PSoC4/MessageTimer.c **** * Function Name: MessageTimer_TriggerCommand
1205:.\Generated_Source\PSoC4/MessageTimer.c **** ********************************************************************************
1206:.\Generated_Source\PSoC4/MessageTimer.c **** *
1207:.\Generated_Source\PSoC4/MessageTimer.c **** * Summary:
1208:.\Generated_Source\PSoC4/MessageTimer.c **** *  Triggers the designated command to occur on the designated TCPWM instances.
1209:.\Generated_Source\PSoC4/MessageTimer.c **** *  The mask can be used to apply this command simultaneously to more than one
1210:.\Generated_Source\PSoC4/MessageTimer.c **** *  instance.  This allows multiple TCPWM instances to be synchronized.
1211:.\Generated_Source\PSoC4/MessageTimer.c **** *
1212:.\Generated_Source\PSoC4/MessageTimer.c **** * Parameters:
1213:.\Generated_Source\PSoC4/MessageTimer.c **** *  mask: A combination of mask bits for each instance of the TCPWM that the
1214:.\Generated_Source\PSoC4/MessageTimer.c **** *        command should apply to.  This function from one instance can be used
1215:.\Generated_Source\PSoC4/MessageTimer.c **** *        to apply the command to any of the instances in the design.
1216:.\Generated_Source\PSoC4/MessageTimer.c **** *        The mask value for a specific instance is available with the MASK
1217:.\Generated_Source\PSoC4/MessageTimer.c **** *        define.
1218:.\Generated_Source\PSoC4/MessageTimer.c **** *  command: Enumerated command values. Capture command only applicable for
1219:.\Generated_Source\PSoC4/MessageTimer.c **** *           Timer/Counter with Capture and PWM modes.
1220:.\Generated_Source\PSoC4/MessageTimer.c **** *   Values:
1221:.\Generated_Source\PSoC4/MessageTimer.c **** *     - MessageTimer_CMD_CAPTURE    - Trigger Capture command
1222:.\Generated_Source\PSoC4/MessageTimer.c **** *     - MessageTimer_CMD_RELOAD     - Trigger Reload command
ARM GAS  C:\Users\Sam\AppData\Local\Temp\ccTX1UXg.s 			page 51


1223:.\Generated_Source\PSoC4/MessageTimer.c **** *     - MessageTimer_CMD_STOP       - Trigger Stop command
1224:.\Generated_Source\PSoC4/MessageTimer.c **** *     - MessageTimer_CMD_START      - Trigger Start command
1225:.\Generated_Source\PSoC4/MessageTimer.c **** *
1226:.\Generated_Source\PSoC4/MessageTimer.c **** * Return:
1227:.\Generated_Source\PSoC4/MessageTimer.c **** *  None
1228:.\Generated_Source\PSoC4/MessageTimer.c **** *
1229:.\Generated_Source\PSoC4/MessageTimer.c **** *******************************************************************************/
1230:.\Generated_Source\PSoC4/MessageTimer.c **** void MessageTimer_TriggerCommand(uint32 mask, uint32 command)
1231:.\Generated_Source\PSoC4/MessageTimer.c **** {
 1629              		.loc 1 1231 0
 1630              		.cfi_startproc
 1631 0000 90B5     		push	{r4, r7, lr}
 1632              		.cfi_def_cfa_offset 12
 1633              		.cfi_offset 4, -12
 1634              		.cfi_offset 7, -8
 1635              		.cfi_offset 14, -4
 1636 0002 85B0     		sub	sp, sp, #20
 1637              		.cfi_def_cfa_offset 32
 1638 0004 00AF     		add	r7, sp, #0
 1639              		.cfi_def_cfa_register 7
 1640 0006 7860     		str	r0, [r7, #4]
 1641 0008 3960     		str	r1, [r7]
1232:.\Generated_Source\PSoC4/MessageTimer.c ****     uint8 enableInterrupts;
1233:.\Generated_Source\PSoC4/MessageTimer.c **** 
1234:.\Generated_Source\PSoC4/MessageTimer.c ****     enableInterrupts = CyEnterCriticalSection();
 1642              		.loc 1 1234 0
 1643 000a 3C1C     		mov	r4, r7
 1644 000c 0F34     		add	r4, r4, #15
 1645 000e FFF7FEFF 		bl	CyEnterCriticalSection
 1646 0012 031C     		mov	r3, r0
 1647 0014 2370     		strb	r3, [r4]
1235:.\Generated_Source\PSoC4/MessageTimer.c **** 
1236:.\Generated_Source\PSoC4/MessageTimer.c ****     MessageTimer_COMMAND_REG = ((uint32)(mask << command));
 1648              		.loc 1 1236 0
 1649 0016 084B     		ldr	r3, .L109
 1650 0018 3A68     		ldr	r2, [r7]
 1651 001a 7968     		ldr	r1, [r7, #4]
 1652 001c 081C     		mov	r0, r1
 1653 001e 9040     		lsl	r0, r0, r2
 1654 0020 021C     		mov	r2, r0
 1655 0022 1A60     		str	r2, [r3]
1237:.\Generated_Source\PSoC4/MessageTimer.c **** 
1238:.\Generated_Source\PSoC4/MessageTimer.c ****     CyExitCriticalSection(enableInterrupts);
 1656              		.loc 1 1238 0
 1657 0024 3B1C     		mov	r3, r7
 1658 0026 0F33     		add	r3, r3, #15
 1659 0028 1B78     		ldrb	r3, [r3]
 1660 002a 181C     		mov	r0, r3
 1661 002c FFF7FEFF 		bl	CyExitCriticalSection
1239:.\Generated_Source\PSoC4/MessageTimer.c **** }
 1662              		.loc 1 1239 0
 1663 0030 BD46     		mov	sp, r7
 1664 0032 05B0     		add	sp, sp, #20
 1665              		@ sp needed
 1666 0034 90BD     		pop	{r4, r7, pc}
 1667              	.L110:
 1668 0036 C046     		.align	2
ARM GAS  C:\Users\Sam\AppData\Local\Temp\ccTX1UXg.s 			page 52


 1669              	.L109:
 1670 0038 08000540 		.word	1074069512
 1671              		.cfi_endproc
 1672              	.LFE33:
 1673              		.size	MessageTimer_TriggerCommand, .-MessageTimer_TriggerCommand
 1674              		.section	.text.MessageTimer_ReadStatus,"ax",%progbits
 1675              		.align	2
 1676              		.global	MessageTimer_ReadStatus
 1677              		.code	16
 1678              		.thumb_func
 1679              		.type	MessageTimer_ReadStatus, %function
 1680              	MessageTimer_ReadStatus:
 1681              	.LFB34:
1240:.\Generated_Source\PSoC4/MessageTimer.c **** 
1241:.\Generated_Source\PSoC4/MessageTimer.c **** 
1242:.\Generated_Source\PSoC4/MessageTimer.c **** /*******************************************************************************
1243:.\Generated_Source\PSoC4/MessageTimer.c **** * Function Name: MessageTimer_ReadStatus
1244:.\Generated_Source\PSoC4/MessageTimer.c **** ********************************************************************************
1245:.\Generated_Source\PSoC4/MessageTimer.c **** *
1246:.\Generated_Source\PSoC4/MessageTimer.c **** * Summary:
1247:.\Generated_Source\PSoC4/MessageTimer.c **** *  Reads the status of the MessageTimer.
1248:.\Generated_Source\PSoC4/MessageTimer.c **** *
1249:.\Generated_Source\PSoC4/MessageTimer.c **** * Parameters:
1250:.\Generated_Source\PSoC4/MessageTimer.c **** *  None
1251:.\Generated_Source\PSoC4/MessageTimer.c **** *
1252:.\Generated_Source\PSoC4/MessageTimer.c **** * Return:
1253:.\Generated_Source\PSoC4/MessageTimer.c **** *  Status
1254:.\Generated_Source\PSoC4/MessageTimer.c **** *   Values:
1255:.\Generated_Source\PSoC4/MessageTimer.c **** *     - MessageTimer_STATUS_DOWN    - Set if counting down
1256:.\Generated_Source\PSoC4/MessageTimer.c **** *     - MessageTimer_STATUS_RUNNING - Set if counter is running
1257:.\Generated_Source\PSoC4/MessageTimer.c **** *
1258:.\Generated_Source\PSoC4/MessageTimer.c **** *******************************************************************************/
1259:.\Generated_Source\PSoC4/MessageTimer.c **** uint32 MessageTimer_ReadStatus(void)
1260:.\Generated_Source\PSoC4/MessageTimer.c **** {
 1682              		.loc 1 1260 0
 1683              		.cfi_startproc
 1684 0000 80B5     		push	{r7, lr}
 1685              		.cfi_def_cfa_offset 8
 1686              		.cfi_offset 7, -8
 1687              		.cfi_offset 14, -4
 1688 0002 00AF     		add	r7, sp, #0
 1689              		.cfi_def_cfa_register 7
1261:.\Generated_Source\PSoC4/MessageTimer.c ****     return ((MessageTimer_STATUS_REG >> MessageTimer_RUNNING_STATUS_SHIFT) |
 1690              		.loc 1 1261 0
 1691 0004 054B     		ldr	r3, .L113
 1692 0006 1B68     		ldr	r3, [r3]
 1693 0008 9A0F     		lsr	r2, r3, #30
1262:.\Generated_Source\PSoC4/MessageTimer.c ****             (MessageTimer_STATUS_REG & MessageTimer_STATUS_DOWN));
 1694              		.loc 1 1262 0
 1695 000a 044B     		ldr	r3, .L113
 1696 000c 1968     		ldr	r1, [r3]
 1697 000e 0123     		mov	r3, #1
 1698 0010 0B40     		and	r3, r1
1261:.\Generated_Source\PSoC4/MessageTimer.c ****     return ((MessageTimer_STATUS_REG >> MessageTimer_RUNNING_STATUS_SHIFT) |
 1699              		.loc 1 1261 0
 1700 0012 1343     		orr	r3, r2
1263:.\Generated_Source\PSoC4/MessageTimer.c **** }
ARM GAS  C:\Users\Sam\AppData\Local\Temp\ccTX1UXg.s 			page 53


 1701              		.loc 1 1263 0
 1702 0014 181C     		mov	r0, r3
 1703 0016 BD46     		mov	sp, r7
 1704              		@ sp needed
 1705 0018 80BD     		pop	{r7, pc}
 1706              	.L114:
 1707 001a C046     		.align	2
 1708              	.L113:
 1709 001c 04010540 		.word	1074069764
 1710              		.cfi_endproc
 1711              	.LFE34:
 1712              		.size	MessageTimer_ReadStatus, .-MessageTimer_ReadStatus
 1713              		.section	.text.MessageTimer_SetInterruptMode,"ax",%progbits
 1714              		.align	2
 1715              		.global	MessageTimer_SetInterruptMode
 1716              		.code	16
 1717              		.thumb_func
 1718              		.type	MessageTimer_SetInterruptMode, %function
 1719              	MessageTimer_SetInterruptMode:
 1720              	.LFB35:
1264:.\Generated_Source\PSoC4/MessageTimer.c **** 
1265:.\Generated_Source\PSoC4/MessageTimer.c **** 
1266:.\Generated_Source\PSoC4/MessageTimer.c **** /*******************************************************************************
1267:.\Generated_Source\PSoC4/MessageTimer.c **** * Function Name: MessageTimer_SetInterruptMode
1268:.\Generated_Source\PSoC4/MessageTimer.c **** ********************************************************************************
1269:.\Generated_Source\PSoC4/MessageTimer.c **** *
1270:.\Generated_Source\PSoC4/MessageTimer.c **** * Summary:
1271:.\Generated_Source\PSoC4/MessageTimer.c **** *  Sets the interrupt mask to control which interrupt
1272:.\Generated_Source\PSoC4/MessageTimer.c **** *  requests generate the interrupt signal.
1273:.\Generated_Source\PSoC4/MessageTimer.c **** *
1274:.\Generated_Source\PSoC4/MessageTimer.c **** * Parameters:
1275:.\Generated_Source\PSoC4/MessageTimer.c **** *   interruptMask: Mask of bits to be enabled
1276:.\Generated_Source\PSoC4/MessageTimer.c **** *   Values:
1277:.\Generated_Source\PSoC4/MessageTimer.c **** *     - MessageTimer_INTR_MASK_TC       - Terminal count mask
1278:.\Generated_Source\PSoC4/MessageTimer.c **** *     - MessageTimer_INTR_MASK_CC_MATCH - Compare count / capture mask
1279:.\Generated_Source\PSoC4/MessageTimer.c **** *
1280:.\Generated_Source\PSoC4/MessageTimer.c **** * Return:
1281:.\Generated_Source\PSoC4/MessageTimer.c **** *  None
1282:.\Generated_Source\PSoC4/MessageTimer.c **** *
1283:.\Generated_Source\PSoC4/MessageTimer.c **** *******************************************************************************/
1284:.\Generated_Source\PSoC4/MessageTimer.c **** void MessageTimer_SetInterruptMode(uint32 interruptMask)
1285:.\Generated_Source\PSoC4/MessageTimer.c **** {
 1721              		.loc 1 1285 0
 1722              		.cfi_startproc
 1723 0000 80B5     		push	{r7, lr}
 1724              		.cfi_def_cfa_offset 8
 1725              		.cfi_offset 7, -8
 1726              		.cfi_offset 14, -4
 1727 0002 82B0     		sub	sp, sp, #8
 1728              		.cfi_def_cfa_offset 16
 1729 0004 00AF     		add	r7, sp, #0
 1730              		.cfi_def_cfa_register 7
 1731 0006 7860     		str	r0, [r7, #4]
1286:.\Generated_Source\PSoC4/MessageTimer.c ****     MessageTimer_INTERRUPT_MASK_REG =  interruptMask;
 1732              		.loc 1 1286 0
 1733 0008 024B     		ldr	r3, .L116
 1734 000a 7A68     		ldr	r2, [r7, #4]
ARM GAS  C:\Users\Sam\AppData\Local\Temp\ccTX1UXg.s 			page 54


 1735 000c 1A60     		str	r2, [r3]
1287:.\Generated_Source\PSoC4/MessageTimer.c **** }
 1736              		.loc 1 1287 0
 1737 000e BD46     		mov	sp, r7
 1738 0010 02B0     		add	sp, sp, #8
 1739              		@ sp needed
 1740 0012 80BD     		pop	{r7, pc}
 1741              	.L117:
 1742              		.align	2
 1743              	.L116:
 1744 0014 38010540 		.word	1074069816
 1745              		.cfi_endproc
 1746              	.LFE35:
 1747              		.size	MessageTimer_SetInterruptMode, .-MessageTimer_SetInterruptMode
 1748              		.section	.text.MessageTimer_GetInterruptSourceMasked,"ax",%progbits
 1749              		.align	2
 1750              		.global	MessageTimer_GetInterruptSourceMasked
 1751              		.code	16
 1752              		.thumb_func
 1753              		.type	MessageTimer_GetInterruptSourceMasked, %function
 1754              	MessageTimer_GetInterruptSourceMasked:
 1755              	.LFB36:
1288:.\Generated_Source\PSoC4/MessageTimer.c **** 
1289:.\Generated_Source\PSoC4/MessageTimer.c **** 
1290:.\Generated_Source\PSoC4/MessageTimer.c **** /*******************************************************************************
1291:.\Generated_Source\PSoC4/MessageTimer.c **** * Function Name: MessageTimer_GetInterruptSourceMasked
1292:.\Generated_Source\PSoC4/MessageTimer.c **** ********************************************************************************
1293:.\Generated_Source\PSoC4/MessageTimer.c **** *
1294:.\Generated_Source\PSoC4/MessageTimer.c **** * Summary:
1295:.\Generated_Source\PSoC4/MessageTimer.c **** *  Gets the interrupt requests masked by the interrupt mask.
1296:.\Generated_Source\PSoC4/MessageTimer.c **** *
1297:.\Generated_Source\PSoC4/MessageTimer.c **** * Parameters:
1298:.\Generated_Source\PSoC4/MessageTimer.c **** *   None
1299:.\Generated_Source\PSoC4/MessageTimer.c **** *
1300:.\Generated_Source\PSoC4/MessageTimer.c **** * Return:
1301:.\Generated_Source\PSoC4/MessageTimer.c **** *  Masked interrupt source
1302:.\Generated_Source\PSoC4/MessageTimer.c **** *   Values:
1303:.\Generated_Source\PSoC4/MessageTimer.c **** *     - MessageTimer_INTR_MASK_TC       - Terminal count mask
1304:.\Generated_Source\PSoC4/MessageTimer.c **** *     - MessageTimer_INTR_MASK_CC_MATCH - Compare count / capture mask
1305:.\Generated_Source\PSoC4/MessageTimer.c **** *
1306:.\Generated_Source\PSoC4/MessageTimer.c **** *******************************************************************************/
1307:.\Generated_Source\PSoC4/MessageTimer.c **** uint32 MessageTimer_GetInterruptSourceMasked(void)
1308:.\Generated_Source\PSoC4/MessageTimer.c **** {
 1756              		.loc 1 1308 0
 1757              		.cfi_startproc
 1758 0000 80B5     		push	{r7, lr}
 1759              		.cfi_def_cfa_offset 8
 1760              		.cfi_offset 7, -8
 1761              		.cfi_offset 14, -4
 1762 0002 00AF     		add	r7, sp, #0
 1763              		.cfi_def_cfa_register 7
1309:.\Generated_Source\PSoC4/MessageTimer.c ****     return (MessageTimer_INTERRUPT_MASKED_REG);
 1764              		.loc 1 1309 0
 1765 0004 024B     		ldr	r3, .L120
 1766 0006 1B68     		ldr	r3, [r3]
1310:.\Generated_Source\PSoC4/MessageTimer.c **** }
 1767              		.loc 1 1310 0
ARM GAS  C:\Users\Sam\AppData\Local\Temp\ccTX1UXg.s 			page 55


 1768 0008 181C     		mov	r0, r3
 1769 000a BD46     		mov	sp, r7
 1770              		@ sp needed
 1771 000c 80BD     		pop	{r7, pc}
 1772              	.L121:
 1773 000e C046     		.align	2
 1774              	.L120:
 1775 0010 3C010540 		.word	1074069820
 1776              		.cfi_endproc
 1777              	.LFE36:
 1778              		.size	MessageTimer_GetInterruptSourceMasked, .-MessageTimer_GetInterruptSourceMasked
 1779              		.section	.text.MessageTimer_GetInterruptSource,"ax",%progbits
 1780              		.align	2
 1781              		.global	MessageTimer_GetInterruptSource
 1782              		.code	16
 1783              		.thumb_func
 1784              		.type	MessageTimer_GetInterruptSource, %function
 1785              	MessageTimer_GetInterruptSource:
 1786              	.LFB37:
1311:.\Generated_Source\PSoC4/MessageTimer.c **** 
1312:.\Generated_Source\PSoC4/MessageTimer.c **** 
1313:.\Generated_Source\PSoC4/MessageTimer.c **** /*******************************************************************************
1314:.\Generated_Source\PSoC4/MessageTimer.c **** * Function Name: MessageTimer_GetInterruptSource
1315:.\Generated_Source\PSoC4/MessageTimer.c **** ********************************************************************************
1316:.\Generated_Source\PSoC4/MessageTimer.c **** *
1317:.\Generated_Source\PSoC4/MessageTimer.c **** * Summary:
1318:.\Generated_Source\PSoC4/MessageTimer.c **** *  Gets the interrupt requests (without masking).
1319:.\Generated_Source\PSoC4/MessageTimer.c **** *
1320:.\Generated_Source\PSoC4/MessageTimer.c **** * Parameters:
1321:.\Generated_Source\PSoC4/MessageTimer.c **** *  None
1322:.\Generated_Source\PSoC4/MessageTimer.c **** *
1323:.\Generated_Source\PSoC4/MessageTimer.c **** * Return:
1324:.\Generated_Source\PSoC4/MessageTimer.c **** *  Interrupt request value
1325:.\Generated_Source\PSoC4/MessageTimer.c **** *   Values:
1326:.\Generated_Source\PSoC4/MessageTimer.c **** *     - MessageTimer_INTR_MASK_TC       - Terminal count mask
1327:.\Generated_Source\PSoC4/MessageTimer.c **** *     - MessageTimer_INTR_MASK_CC_MATCH - Compare count / capture mask
1328:.\Generated_Source\PSoC4/MessageTimer.c **** *
1329:.\Generated_Source\PSoC4/MessageTimer.c **** *******************************************************************************/
1330:.\Generated_Source\PSoC4/MessageTimer.c **** uint32 MessageTimer_GetInterruptSource(void)
1331:.\Generated_Source\PSoC4/MessageTimer.c **** {
 1787              		.loc 1 1331 0
 1788              		.cfi_startproc
 1789 0000 80B5     		push	{r7, lr}
 1790              		.cfi_def_cfa_offset 8
 1791              		.cfi_offset 7, -8
 1792              		.cfi_offset 14, -4
 1793 0002 00AF     		add	r7, sp, #0
 1794              		.cfi_def_cfa_register 7
1332:.\Generated_Source\PSoC4/MessageTimer.c ****     return (MessageTimer_INTERRUPT_REQ_REG);
 1795              		.loc 1 1332 0
 1796 0004 024B     		ldr	r3, .L124
 1797 0006 1B68     		ldr	r3, [r3]
1333:.\Generated_Source\PSoC4/MessageTimer.c **** }
 1798              		.loc 1 1333 0
 1799 0008 181C     		mov	r0, r3
 1800 000a BD46     		mov	sp, r7
 1801              		@ sp needed
ARM GAS  C:\Users\Sam\AppData\Local\Temp\ccTX1UXg.s 			page 56


 1802 000c 80BD     		pop	{r7, pc}
 1803              	.L125:
 1804 000e C046     		.align	2
 1805              	.L124:
 1806 0010 30010540 		.word	1074069808
 1807              		.cfi_endproc
 1808              	.LFE37:
 1809              		.size	MessageTimer_GetInterruptSource, .-MessageTimer_GetInterruptSource
 1810              		.section	.text.MessageTimer_ClearInterrupt,"ax",%progbits
 1811              		.align	2
 1812              		.global	MessageTimer_ClearInterrupt
 1813              		.code	16
 1814              		.thumb_func
 1815              		.type	MessageTimer_ClearInterrupt, %function
 1816              	MessageTimer_ClearInterrupt:
 1817              	.LFB38:
1334:.\Generated_Source\PSoC4/MessageTimer.c **** 
1335:.\Generated_Source\PSoC4/MessageTimer.c **** 
1336:.\Generated_Source\PSoC4/MessageTimer.c **** /*******************************************************************************
1337:.\Generated_Source\PSoC4/MessageTimer.c **** * Function Name: MessageTimer_ClearInterrupt
1338:.\Generated_Source\PSoC4/MessageTimer.c **** ********************************************************************************
1339:.\Generated_Source\PSoC4/MessageTimer.c **** *
1340:.\Generated_Source\PSoC4/MessageTimer.c **** * Summary:
1341:.\Generated_Source\PSoC4/MessageTimer.c **** *  Clears the interrupt request.
1342:.\Generated_Source\PSoC4/MessageTimer.c **** *
1343:.\Generated_Source\PSoC4/MessageTimer.c **** * Parameters:
1344:.\Generated_Source\PSoC4/MessageTimer.c **** *   interruptMask: Mask of interrupts to clear
1345:.\Generated_Source\PSoC4/MessageTimer.c **** *   Values:
1346:.\Generated_Source\PSoC4/MessageTimer.c **** *     - MessageTimer_INTR_MASK_TC       - Terminal count mask
1347:.\Generated_Source\PSoC4/MessageTimer.c **** *     - MessageTimer_INTR_MASK_CC_MATCH - Compare count / capture mask
1348:.\Generated_Source\PSoC4/MessageTimer.c **** *
1349:.\Generated_Source\PSoC4/MessageTimer.c **** * Return:
1350:.\Generated_Source\PSoC4/MessageTimer.c **** *  None
1351:.\Generated_Source\PSoC4/MessageTimer.c **** *
1352:.\Generated_Source\PSoC4/MessageTimer.c **** *******************************************************************************/
1353:.\Generated_Source\PSoC4/MessageTimer.c **** void MessageTimer_ClearInterrupt(uint32 interruptMask)
1354:.\Generated_Source\PSoC4/MessageTimer.c **** {
 1818              		.loc 1 1354 0
 1819              		.cfi_startproc
 1820 0000 80B5     		push	{r7, lr}
 1821              		.cfi_def_cfa_offset 8
 1822              		.cfi_offset 7, -8
 1823              		.cfi_offset 14, -4
 1824 0002 82B0     		sub	sp, sp, #8
 1825              		.cfi_def_cfa_offset 16
 1826 0004 00AF     		add	r7, sp, #0
 1827              		.cfi_def_cfa_register 7
 1828 0006 7860     		str	r0, [r7, #4]
1355:.\Generated_Source\PSoC4/MessageTimer.c ****     MessageTimer_INTERRUPT_REQ_REG = interruptMask;
 1829              		.loc 1 1355 0
 1830 0008 024B     		ldr	r3, .L127
 1831 000a 7A68     		ldr	r2, [r7, #4]
 1832 000c 1A60     		str	r2, [r3]
1356:.\Generated_Source\PSoC4/MessageTimer.c **** }
 1833              		.loc 1 1356 0
 1834 000e BD46     		mov	sp, r7
 1835 0010 02B0     		add	sp, sp, #8
ARM GAS  C:\Users\Sam\AppData\Local\Temp\ccTX1UXg.s 			page 57


 1836              		@ sp needed
 1837 0012 80BD     		pop	{r7, pc}
 1838              	.L128:
 1839              		.align	2
 1840              	.L127:
 1841 0014 30010540 		.word	1074069808
 1842              		.cfi_endproc
 1843              	.LFE38:
 1844              		.size	MessageTimer_ClearInterrupt, .-MessageTimer_ClearInterrupt
 1845              		.section	.text.MessageTimer_SetInterrupt,"ax",%progbits
 1846              		.align	2
 1847              		.global	MessageTimer_SetInterrupt
 1848              		.code	16
 1849              		.thumb_func
 1850              		.type	MessageTimer_SetInterrupt, %function
 1851              	MessageTimer_SetInterrupt:
 1852              	.LFB39:
1357:.\Generated_Source\PSoC4/MessageTimer.c **** 
1358:.\Generated_Source\PSoC4/MessageTimer.c **** 
1359:.\Generated_Source\PSoC4/MessageTimer.c **** /*******************************************************************************
1360:.\Generated_Source\PSoC4/MessageTimer.c **** * Function Name: MessageTimer_SetInterrupt
1361:.\Generated_Source\PSoC4/MessageTimer.c **** ********************************************************************************
1362:.\Generated_Source\PSoC4/MessageTimer.c **** *
1363:.\Generated_Source\PSoC4/MessageTimer.c **** * Summary:
1364:.\Generated_Source\PSoC4/MessageTimer.c **** *  Sets a software interrupt request.
1365:.\Generated_Source\PSoC4/MessageTimer.c **** *
1366:.\Generated_Source\PSoC4/MessageTimer.c **** * Parameters:
1367:.\Generated_Source\PSoC4/MessageTimer.c **** *   interruptMask: Mask of interrupts to set
1368:.\Generated_Source\PSoC4/MessageTimer.c **** *   Values:
1369:.\Generated_Source\PSoC4/MessageTimer.c **** *     - MessageTimer_INTR_MASK_TC       - Terminal count mask
1370:.\Generated_Source\PSoC4/MessageTimer.c **** *     - MessageTimer_INTR_MASK_CC_MATCH - Compare count / capture mask
1371:.\Generated_Source\PSoC4/MessageTimer.c **** *
1372:.\Generated_Source\PSoC4/MessageTimer.c **** * Return:
1373:.\Generated_Source\PSoC4/MessageTimer.c **** *  None
1374:.\Generated_Source\PSoC4/MessageTimer.c **** *
1375:.\Generated_Source\PSoC4/MessageTimer.c **** *******************************************************************************/
1376:.\Generated_Source\PSoC4/MessageTimer.c **** void MessageTimer_SetInterrupt(uint32 interruptMask)
1377:.\Generated_Source\PSoC4/MessageTimer.c **** {
 1853              		.loc 1 1377 0
 1854              		.cfi_startproc
 1855 0000 80B5     		push	{r7, lr}
 1856              		.cfi_def_cfa_offset 8
 1857              		.cfi_offset 7, -8
 1858              		.cfi_offset 14, -4
 1859 0002 82B0     		sub	sp, sp, #8
 1860              		.cfi_def_cfa_offset 16
 1861 0004 00AF     		add	r7, sp, #0
 1862              		.cfi_def_cfa_register 7
 1863 0006 7860     		str	r0, [r7, #4]
1378:.\Generated_Source\PSoC4/MessageTimer.c ****     MessageTimer_INTERRUPT_SET_REG = interruptMask;
 1864              		.loc 1 1378 0
 1865 0008 024B     		ldr	r3, .L130
 1866 000a 7A68     		ldr	r2, [r7, #4]
 1867 000c 1A60     		str	r2, [r3]
1379:.\Generated_Source\PSoC4/MessageTimer.c **** }
 1868              		.loc 1 1379 0
 1869 000e BD46     		mov	sp, r7
ARM GAS  C:\Users\Sam\AppData\Local\Temp\ccTX1UXg.s 			page 58


 1870 0010 02B0     		add	sp, sp, #8
 1871              		@ sp needed
 1872 0012 80BD     		pop	{r7, pc}
 1873              	.L131:
 1874              		.align	2
 1875              	.L130:
 1876 0014 34010540 		.word	1074069812
 1877              		.cfi_endproc
 1878              	.LFE39:
 1879              		.size	MessageTimer_SetInterrupt, .-MessageTimer_SetInterrupt
 1880              		.text
 1881              	.Letext0:
 1882              		.file 2 ".\\Generated_Source\\PSoC4\\cytypes.h"
 1883              		.section	.debug_info,"",%progbits
 1884              	.Ldebug_info0:
 1885 0000 EC060000 		.4byte	0x6ec
 1886 0004 0400     		.2byte	0x4
 1887 0006 00000000 		.4byte	.Ldebug_abbrev0
 1888 000a 04       		.byte	0x4
 1889 000b 01       		.uleb128 0x1
 1890 000c 44030000 		.4byte	.LASF76
 1891 0010 01       		.byte	0x1
 1892 0011 E4040000 		.4byte	.LASF77
 1893 0015 2E040000 		.4byte	.LASF78
 1894 0019 00000000 		.4byte	.Ldebug_ranges0+0
 1895 001d 00000000 		.4byte	0
 1896 0021 00000000 		.4byte	.Ldebug_line0
 1897 0025 02       		.uleb128 0x2
 1898 0026 01       		.byte	0x1
 1899 0027 06       		.byte	0x6
 1900 0028 D1000000 		.4byte	.LASF0
 1901 002c 02       		.uleb128 0x2
 1902 002d 01       		.byte	0x1
 1903 002e 08       		.byte	0x8
 1904 002f 85040000 		.4byte	.LASF1
 1905 0033 02       		.uleb128 0x2
 1906 0034 02       		.byte	0x2
 1907 0035 05       		.byte	0x5
 1908 0036 BE040000 		.4byte	.LASF2
 1909 003a 02       		.uleb128 0x2
 1910 003b 02       		.byte	0x2
 1911 003c 07       		.byte	0x7
 1912 003d EF010000 		.4byte	.LASF3
 1913 0041 02       		.uleb128 0x2
 1914 0042 04       		.byte	0x4
 1915 0043 05       		.byte	0x5
 1916 0044 F5000000 		.4byte	.LASF4
 1917 0048 02       		.uleb128 0x2
 1918 0049 04       		.byte	0x4
 1919 004a 07       		.byte	0x7
 1920 004b B6010000 		.4byte	.LASF5
 1921 004f 02       		.uleb128 0x2
 1922 0050 08       		.byte	0x8
 1923 0051 05       		.byte	0x5
 1924 0052 C3000000 		.4byte	.LASF6
 1925 0056 02       		.uleb128 0x2
 1926 0057 08       		.byte	0x8
ARM GAS  C:\Users\Sam\AppData\Local\Temp\ccTX1UXg.s 			page 59


 1927 0058 07       		.byte	0x7
 1928 0059 5E000000 		.4byte	.LASF7
 1929 005d 03       		.uleb128 0x3
 1930 005e 04       		.byte	0x4
 1931 005f 05       		.byte	0x5
 1932 0060 696E7400 		.ascii	"int\000"
 1933 0064 02       		.uleb128 0x2
 1934 0065 04       		.byte	0x4
 1935 0066 07       		.byte	0x7
 1936 0067 A1010000 		.4byte	.LASF8
 1937 006b 04       		.uleb128 0x4
 1938 006c 09010000 		.4byte	.LASF9
 1939 0070 02       		.byte	0x2
 1940 0071 A1       		.byte	0xa1
 1941 0072 2C000000 		.4byte	0x2c
 1942 0076 04       		.uleb128 0x4
 1943 0077 2A010000 		.4byte	.LASF10
 1944 007b 02       		.byte	0x2
 1945 007c A3       		.byte	0xa3
 1946 007d 48000000 		.4byte	0x48
 1947 0081 02       		.uleb128 0x2
 1948 0082 04       		.byte	0x4
 1949 0083 04       		.byte	0x4
 1950 0084 34030000 		.4byte	.LASF11
 1951 0088 02       		.uleb128 0x2
 1952 0089 08       		.byte	0x8
 1953 008a 04       		.byte	0x4
 1954 008b 0F010000 		.4byte	.LASF12
 1955 008f 02       		.uleb128 0x2
 1956 0090 01       		.byte	0x1
 1957 0091 08       		.byte	0x8
 1958 0092 61050000 		.4byte	.LASF13
 1959 0096 05       		.uleb128 0x5
 1960 0097 87020000 		.4byte	.LASF14
 1961 009b 02       		.byte	0x2
 1962 009c 4D01     		.2byte	0x14d
 1963 009e A2000000 		.4byte	0xa2
 1964 00a2 06       		.uleb128 0x6
 1965 00a3 76000000 		.4byte	0x76
 1966 00a7 02       		.uleb128 0x2
 1967 00a8 04       		.byte	0x4
 1968 00a9 07       		.byte	0x7
 1969 00aa A7020000 		.4byte	.LASF15
 1970 00ae 07       		.uleb128 0x7
 1971 00af 95000000 		.4byte	.LASF16
 1972 00b3 01       		.byte	0x1
 1973 00b4 26       		.byte	0x26
 1974 00b5 00000000 		.4byte	.LFB0
 1975 00b9 30000000 		.4byte	.LFE0-.LFB0
 1976 00bd 01       		.uleb128 0x1
 1977 00be 9C       		.byte	0x9c
 1978 00bf 08       		.uleb128 0x8
 1979 00c0 16010000 		.4byte	.LASF18
 1980 00c4 01       		.byte	0x1
 1981 00c5 B1       		.byte	0xb1
 1982 00c6 00000000 		.4byte	.LFB1
 1983 00ca 38000000 		.4byte	.LFE1-.LFB1
ARM GAS  C:\Users\Sam\AppData\Local\Temp\ccTX1UXg.s 			page 60


 1984 00ce 01       		.uleb128 0x1
 1985 00cf 9C       		.byte	0x9c
 1986 00d0 E3000000 		.4byte	0xe3
 1987 00d4 09       		.uleb128 0x9
 1988 00d5 FF050000 		.4byte	.LASF20
 1989 00d9 01       		.byte	0x1
 1990 00da B3       		.byte	0xb3
 1991 00db 6B000000 		.4byte	0x6b
 1992 00df 02       		.uleb128 0x2
 1993 00e0 91       		.byte	0x91
 1994 00e1 6F       		.sleb128 -17
 1995 00e2 00       		.byte	0
 1996 00e3 07       		.uleb128 0x7
 1997 00e4 74020000 		.4byte	.LASF17
 1998 00e8 01       		.byte	0x1
 1999 00e9 E0       		.byte	0xe0
 2000 00ea 00000000 		.4byte	.LFB2
 2001 00ee 24000000 		.4byte	.LFE2-.LFB2
 2002 00f2 01       		.uleb128 0x1
 2003 00f3 9C       		.byte	0x9c
 2004 00f4 08       		.uleb128 0x8
 2005 00f5 1A050000 		.4byte	.LASF19
 2006 00f9 01       		.byte	0x1
 2007 00fa FA       		.byte	0xfa
 2008 00fb 00000000 		.4byte	.LFB3
 2009 00ff 30000000 		.4byte	.LFE3-.LFB3
 2010 0103 01       		.uleb128 0x1
 2011 0104 9C       		.byte	0x9c
 2012 0105 18010000 		.4byte	0x118
 2013 0109 09       		.uleb128 0x9
 2014 010a FF050000 		.4byte	.LASF20
 2015 010e 01       		.byte	0x1
 2016 010f FC       		.byte	0xfc
 2017 0110 6B000000 		.4byte	0x6b
 2018 0114 02       		.uleb128 0x2
 2019 0115 91       		.byte	0x91
 2020 0116 6F       		.sleb128 -17
 2021 0117 00       		.byte	0
 2022 0118 0A       		.uleb128 0xa
 2023 0119 EA050000 		.4byte	.LASF21
 2024 011d 01       		.byte	0x1
 2025 011e 1F01     		.2byte	0x11f
 2026 0120 00000000 		.4byte	.LFB4
 2027 0124 48000000 		.4byte	.LFE4-.LFB4
 2028 0128 01       		.uleb128 0x1
 2029 0129 9C       		.byte	0x9c
 2030 012a 4D010000 		.4byte	0x14d
 2031 012e 0B       		.uleb128 0xb
 2032 012f 66050000 		.4byte	.LASF23
 2033 0133 01       		.byte	0x1
 2034 0134 1F01     		.2byte	0x11f
 2035 0136 76000000 		.4byte	0x76
 2036 013a 02       		.uleb128 0x2
 2037 013b 91       		.byte	0x91
 2038 013c 64       		.sleb128 -28
 2039 013d 0C       		.uleb128 0xc
 2040 013e FF050000 		.4byte	.LASF20
ARM GAS  C:\Users\Sam\AppData\Local\Temp\ccTX1UXg.s 			page 61


 2041 0142 01       		.byte	0x1
 2042 0143 2101     		.2byte	0x121
 2043 0145 6B000000 		.4byte	0x6b
 2044 0149 02       		.uleb128 0x2
 2045 014a 91       		.byte	0x91
 2046 014b 6F       		.sleb128 -17
 2047 014c 00       		.byte	0
 2048 014d 0A       		.uleb128 0xa
 2049 014e 50060000 		.4byte	.LASF22
 2050 0152 01       		.byte	0x1
 2051 0153 4001     		.2byte	0x140
 2052 0155 00000000 		.4byte	.LFB5
 2053 0159 48000000 		.4byte	.LFE5-.LFB5
 2054 015d 01       		.uleb128 0x1
 2055 015e 9C       		.byte	0x9c
 2056 015f 82010000 		.4byte	0x182
 2057 0163 0B       		.uleb128 0xb
 2058 0164 75000000 		.4byte	.LASF24
 2059 0168 01       		.byte	0x1
 2060 0169 4001     		.2byte	0x140
 2061 016b 76000000 		.4byte	0x76
 2062 016f 02       		.uleb128 0x2
 2063 0170 91       		.byte	0x91
 2064 0171 64       		.sleb128 -28
 2065 0172 0C       		.uleb128 0xc
 2066 0173 FF050000 		.4byte	.LASF20
 2067 0177 01       		.byte	0x1
 2068 0178 4201     		.2byte	0x142
 2069 017a 6B000000 		.4byte	0x6b
 2070 017e 02       		.uleb128 0x2
 2071 017f 91       		.byte	0x91
 2072 0180 6F       		.sleb128 -17
 2073 0181 00       		.byte	0
 2074 0182 0A       		.uleb128 0xa
 2075 0183 67060000 		.4byte	.LASF25
 2076 0187 01       		.byte	0x1
 2077 0188 6501     		.2byte	0x165
 2078 018a 00000000 		.4byte	.LFB6
 2079 018e 48000000 		.4byte	.LFE6-.LFB6
 2080 0192 01       		.uleb128 0x1
 2081 0193 9C       		.byte	0x9c
 2082 0194 B7010000 		.4byte	0x1b7
 2083 0198 0B       		.uleb128 0xb
 2084 0199 3A030000 		.4byte	.LASF26
 2085 019d 01       		.byte	0x1
 2086 019e 6501     		.2byte	0x165
 2087 01a0 76000000 		.4byte	0x76
 2088 01a4 02       		.uleb128 0x2
 2089 01a5 91       		.byte	0x91
 2090 01a6 64       		.sleb128 -28
 2091 01a7 0C       		.uleb128 0xc
 2092 01a8 FF050000 		.4byte	.LASF20
 2093 01ac 01       		.byte	0x1
 2094 01ad 6701     		.2byte	0x167
 2095 01af 6B000000 		.4byte	0x6b
 2096 01b3 02       		.uleb128 0x2
 2097 01b4 91       		.byte	0x91
ARM GAS  C:\Users\Sam\AppData\Local\Temp\ccTX1UXg.s 			page 62


 2098 01b5 6F       		.sleb128 -17
 2099 01b6 00       		.byte	0
 2100 01b7 0A       		.uleb128 0xa
 2101 01b8 3F000000 		.4byte	.LASF27
 2102 01bc 01       		.byte	0x1
 2103 01bd 8501     		.2byte	0x185
 2104 01bf 00000000 		.4byte	.LFB7
 2105 01c3 4C000000 		.4byte	.LFE7-.LFB7
 2106 01c7 01       		.uleb128 0x1
 2107 01c8 9C       		.byte	0x9c
 2108 01c9 EC010000 		.4byte	0x1ec
 2109 01cd 0B       		.uleb128 0xb
 2110 01ce 4C020000 		.4byte	.LASF28
 2111 01d2 01       		.byte	0x1
 2112 01d3 8501     		.2byte	0x185
 2113 01d5 76000000 		.4byte	0x76
 2114 01d9 02       		.uleb128 0x2
 2115 01da 91       		.byte	0x91
 2116 01db 64       		.sleb128 -28
 2117 01dc 0C       		.uleb128 0xc
 2118 01dd FF050000 		.4byte	.LASF20
 2119 01e1 01       		.byte	0x1
 2120 01e2 8701     		.2byte	0x187
 2121 01e4 6B000000 		.4byte	0x6b
 2122 01e8 02       		.uleb128 0x2
 2123 01e9 91       		.byte	0x91
 2124 01ea 6F       		.sleb128 -17
 2125 01eb 00       		.byte	0
 2126 01ec 0D       		.uleb128 0xd
 2127 01ed DD000000 		.4byte	.LASF29
 2128 01f1 01       		.byte	0x1
 2129 01f2 BB01     		.2byte	0x1bb
 2130 01f4 00000000 		.4byte	.LFB8
 2131 01f8 1C000000 		.4byte	.LFE8-.LFB8
 2132 01fc 01       		.uleb128 0x1
 2133 01fd 9C       		.byte	0x9c
 2134 01fe 12020000 		.4byte	0x212
 2135 0202 0B       		.uleb128 0xb
 2136 0203 C8010000 		.4byte	.LASF30
 2137 0207 01       		.byte	0x1
 2138 0208 BB01     		.2byte	0x1bb
 2139 020a 76000000 		.4byte	0x76
 2140 020e 02       		.uleb128 0x2
 2141 020f 91       		.byte	0x91
 2142 0210 74       		.sleb128 -12
 2143 0211 00       		.byte	0
 2144 0212 0A       		.uleb128 0xa
 2145 0213 12040000 		.4byte	.LASF31
 2146 0217 01       		.byte	0x1
 2147 0218 DF01     		.2byte	0x1df
 2148 021a 00000000 		.4byte	.LFB9
 2149 021e 48000000 		.4byte	.LFE9-.LFB9
 2150 0222 01       		.uleb128 0x1
 2151 0223 9C       		.byte	0x9c
 2152 0224 47020000 		.4byte	0x247
 2153 0228 0B       		.uleb128 0xb
 2154 0229 B0020000 		.4byte	.LASF32
ARM GAS  C:\Users\Sam\AppData\Local\Temp\ccTX1UXg.s 			page 63


 2155 022d 01       		.byte	0x1
 2156 022e DF01     		.2byte	0x1df
 2157 0230 76000000 		.4byte	0x76
 2158 0234 02       		.uleb128 0x2
 2159 0235 91       		.byte	0x91
 2160 0236 64       		.sleb128 -28
 2161 0237 0C       		.uleb128 0xc
 2162 0238 FF050000 		.4byte	.LASF20
 2163 023c 01       		.byte	0x1
 2164 023d E101     		.2byte	0x1e1
 2165 023f 6B000000 		.4byte	0x6b
 2166 0243 02       		.uleb128 0x2
 2167 0244 91       		.byte	0x91
 2168 0245 6F       		.sleb128 -17
 2169 0246 00       		.byte	0
 2170 0247 0A       		.uleb128 0xa
 2171 0248 D1010000 		.4byte	.LASF33
 2172 024c 01       		.byte	0x1
 2173 024d 0102     		.2byte	0x201
 2174 024f 00000000 		.4byte	.LFB10
 2175 0253 48000000 		.4byte	.LFE10-.LFB10
 2176 0257 01       		.uleb128 0x1
 2177 0258 9C       		.byte	0x9c
 2178 0259 7C020000 		.4byte	0x27c
 2179 025d 0B       		.uleb128 0xb
 2180 025e AD040000 		.4byte	.LASF34
 2181 0262 01       		.byte	0x1
 2182 0263 0102     		.2byte	0x201
 2183 0265 76000000 		.4byte	0x76
 2184 0269 02       		.uleb128 0x2
 2185 026a 91       		.byte	0x91
 2186 026b 64       		.sleb128 -28
 2187 026c 0C       		.uleb128 0xc
 2188 026d FF050000 		.4byte	.LASF20
 2189 0271 01       		.byte	0x1
 2190 0272 0302     		.2byte	0x203
 2191 0274 6B000000 		.4byte	0x6b
 2192 0278 02       		.uleb128 0x2
 2193 0279 91       		.byte	0x91
 2194 027a 6F       		.sleb128 -17
 2195 027b 00       		.byte	0
 2196 027c 0A       		.uleb128 0xa
 2197 027d 29060000 		.4byte	.LASF35
 2198 0281 01       		.byte	0x1
 2199 0282 2202     		.2byte	0x222
 2200 0284 00000000 		.4byte	.LFB11
 2201 0288 4C000000 		.4byte	.LFE11-.LFB11
 2202 028c 01       		.uleb128 0x1
 2203 028d 9C       		.byte	0x9c
 2204 028e B1020000 		.4byte	0x2b1
 2205 0292 0B       		.uleb128 0xb
 2206 0293 7E010000 		.4byte	.LASF36
 2207 0297 01       		.byte	0x1
 2208 0298 2202     		.2byte	0x222
 2209 029a 76000000 		.4byte	0x76
 2210 029e 02       		.uleb128 0x2
 2211 029f 91       		.byte	0x91
ARM GAS  C:\Users\Sam\AppData\Local\Temp\ccTX1UXg.s 			page 64


 2212 02a0 64       		.sleb128 -28
 2213 02a1 0C       		.uleb128 0xc
 2214 02a2 FF050000 		.4byte	.LASF20
 2215 02a6 01       		.byte	0x1
 2216 02a7 2402     		.2byte	0x224
 2217 02a9 6B000000 		.4byte	0x6b
 2218 02ad 02       		.uleb128 0x2
 2219 02ae 91       		.byte	0x91
 2220 02af 6F       		.sleb128 -17
 2221 02b0 00       		.byte	0
 2222 02b1 0A       		.uleb128 0xa
 2223 02b2 AC050000 		.4byte	.LASF37
 2224 02b6 01       		.byte	0x1
 2225 02b7 4302     		.2byte	0x243
 2226 02b9 00000000 		.4byte	.LFB12
 2227 02bd 48000000 		.4byte	.LFE12-.LFB12
 2228 02c1 01       		.uleb128 0x1
 2229 02c2 9C       		.byte	0x9c
 2230 02c3 E6020000 		.4byte	0x2e6
 2231 02c7 0B       		.uleb128 0xb
 2232 02c8 59010000 		.4byte	.LASF38
 2233 02cc 01       		.byte	0x1
 2234 02cd 4302     		.2byte	0x243
 2235 02cf 76000000 		.4byte	0x76
 2236 02d3 02       		.uleb128 0x2
 2237 02d4 91       		.byte	0x91
 2238 02d5 64       		.sleb128 -28
 2239 02d6 0C       		.uleb128 0xc
 2240 02d7 FF050000 		.4byte	.LASF20
 2241 02db 01       		.byte	0x1
 2242 02dc 4502     		.2byte	0x245
 2243 02de 6B000000 		.4byte	0x6b
 2244 02e2 02       		.uleb128 0x2
 2245 02e3 91       		.byte	0x91
 2246 02e4 6F       		.sleb128 -17
 2247 02e5 00       		.byte	0
 2248 02e6 0D       		.uleb128 0xd
 2249 02e7 93040000 		.4byte	.LASF39
 2250 02eb 01       		.byte	0x1
 2251 02ec 6102     		.2byte	0x261
 2252 02ee 00000000 		.4byte	.LFB13
 2253 02f2 1C000000 		.4byte	.LFE13-.LFB13
 2254 02f6 01       		.uleb128 0x1
 2255 02f7 9C       		.byte	0x9c
 2256 02f8 0C030000 		.4byte	0x30c
 2257 02fc 0B       		.uleb128 0xb
 2258 02fd 00000000 		.4byte	.LASF40
 2259 0301 01       		.byte	0x1
 2260 0302 6102     		.2byte	0x261
 2261 0304 76000000 		.4byte	0x76
 2262 0308 02       		.uleb128 0x2
 2263 0309 91       		.byte	0x91
 2264 030a 74       		.sleb128 -12
 2265 030b 00       		.byte	0
 2266 030c 0E       		.uleb128 0xe
 2267 030d 7C000000 		.4byte	.LASF45
 2268 0311 01       		.byte	0x1
ARM GAS  C:\Users\Sam\AppData\Local\Temp\ccTX1UXg.s 			page 65


 2269 0312 7502     		.2byte	0x275
 2270 0314 76000000 		.4byte	0x76
 2271 0318 00000000 		.4byte	.LFB14
 2272 031c 18000000 		.4byte	.LFE14-.LFB14
 2273 0320 01       		.uleb128 0x1
 2274 0321 9C       		.byte	0x9c
 2275 0322 0A       		.uleb128 0xa
 2276 0323 31010000 		.4byte	.LASF41
 2277 0327 01       		.byte	0x1
 2278 0328 9202     		.2byte	0x292
 2279 032a 00000000 		.4byte	.LFB15
 2280 032e 48000000 		.4byte	.LFE15-.LFB15
 2281 0332 01       		.uleb128 0x1
 2282 0333 9C       		.byte	0x9c
 2283 0334 57030000 		.4byte	0x357
 2284 0338 0B       		.uleb128 0xb
 2285 0339 DE050000 		.4byte	.LASF42
 2286 033d 01       		.byte	0x1
 2287 033e 9202     		.2byte	0x292
 2288 0340 76000000 		.4byte	0x76
 2289 0344 02       		.uleb128 0x2
 2290 0345 91       		.byte	0x91
 2291 0346 64       		.sleb128 -28
 2292 0347 0C       		.uleb128 0xc
 2293 0348 FF050000 		.4byte	.LASF20
 2294 034c 01       		.byte	0x1
 2295 034d 9402     		.2byte	0x294
 2296 034f 6B000000 		.4byte	0x6b
 2297 0353 02       		.uleb128 0x2
 2298 0354 91       		.byte	0x91
 2299 0355 6F       		.sleb128 -17
 2300 0356 00       		.byte	0
 2301 0357 0D       		.uleb128 0xd
 2302 0358 48050000 		.4byte	.LASF43
 2303 035c 01       		.byte	0x1
 2304 035d AF02     		.2byte	0x2af
 2305 035f 00000000 		.4byte	.LFB16
 2306 0363 1C000000 		.4byte	.LFE16-.LFB16
 2307 0367 01       		.uleb128 0x1
 2308 0368 9C       		.byte	0x9c
 2309 0369 7D030000 		.4byte	0x37d
 2310 036d 0B       		.uleb128 0xb
 2311 036e 57000000 		.4byte	.LASF44
 2312 0372 01       		.byte	0x1
 2313 0373 AF02     		.2byte	0x2af
 2314 0375 76000000 		.4byte	0x76
 2315 0379 02       		.uleb128 0x2
 2316 037a 91       		.byte	0x91
 2317 037b 74       		.sleb128 -12
 2318 037c 00       		.byte	0
 2319 037d 0E       		.uleb128 0xe
 2320 037e 8B060000 		.4byte	.LASF46
 2321 0382 01       		.byte	0x1
 2322 0383 C302     		.2byte	0x2c3
 2323 0385 76000000 		.4byte	0x76
 2324 0389 00000000 		.4byte	.LFB17
 2325 038d 18000000 		.4byte	.LFE17-.LFB17
ARM GAS  C:\Users\Sam\AppData\Local\Temp\ccTX1UXg.s 			page 66


 2326 0391 01       		.uleb128 0x1
 2327 0392 9C       		.byte	0x9c
 2328 0393 0A       		.uleb128 0xa
 2329 0394 F5020000 		.4byte	.LASF47
 2330 0398 01       		.byte	0x1
 2331 0399 DD02     		.2byte	0x2dd
 2332 039b 00000000 		.4byte	.LFB18
 2333 039f 48000000 		.4byte	.LFE18-.LFB18
 2334 03a3 01       		.uleb128 0x1
 2335 03a4 9C       		.byte	0x9c
 2336 03a5 C8030000 		.4byte	0x3c8
 2337 03a9 0B       		.uleb128 0xb
 2338 03aa 45060000 		.4byte	.LASF48
 2339 03ae 01       		.byte	0x1
 2340 03af DD02     		.2byte	0x2dd
 2341 03b1 76000000 		.4byte	0x76
 2342 03b5 02       		.uleb128 0x2
 2343 03b6 91       		.byte	0x91
 2344 03b7 64       		.sleb128 -28
 2345 03b8 0C       		.uleb128 0xc
 2346 03b9 FF050000 		.4byte	.LASF20
 2347 03bd 01       		.byte	0x1
 2348 03be DF02     		.2byte	0x2df
 2349 03c0 6B000000 		.4byte	0x6b
 2350 03c4 02       		.uleb128 0x2
 2351 03c5 91       		.byte	0x91
 2352 03c6 6F       		.sleb128 -17
 2353 03c7 00       		.byte	0
 2354 03c8 0D       		.uleb128 0xd
 2355 03c9 23000000 		.4byte	.LASF49
 2356 03cd 01       		.byte	0x1
 2357 03ce F802     		.2byte	0x2f8
 2358 03d0 00000000 		.4byte	.LFB19
 2359 03d4 1C000000 		.4byte	.LFE19-.LFB19
 2360 03d8 01       		.uleb128 0x1
 2361 03d9 9C       		.byte	0x9c
 2362 03da EE030000 		.4byte	0x3ee
 2363 03de 0B       		.uleb128 0xb
 2364 03df 81060000 		.4byte	.LASF50
 2365 03e3 01       		.byte	0x1
 2366 03e4 F802     		.2byte	0x2f8
 2367 03e6 76000000 		.4byte	0x76
 2368 03ea 02       		.uleb128 0x2
 2369 03eb 91       		.byte	0x91
 2370 03ec 74       		.sleb128 -12
 2371 03ed 00       		.byte	0
 2372 03ee 0E       		.uleb128 0xe
 2373 03ef 11030000 		.4byte	.LASF51
 2374 03f3 01       		.byte	0x1
 2375 03f4 0C03     		.2byte	0x30c
 2376 03f6 76000000 		.4byte	0x76
 2377 03fa 00000000 		.4byte	.LFB20
 2378 03fe 18000000 		.4byte	.LFE20-.LFB20
 2379 0402 01       		.uleb128 0x1
 2380 0403 9C       		.byte	0x9c
 2381 0404 0A       		.uleb128 0xa
 2382 0405 D9030000 		.4byte	.LASF52
ARM GAS  C:\Users\Sam\AppData\Local\Temp\ccTX1UXg.s 			page 67


 2383 0409 01       		.byte	0x1
 2384 040a 2603     		.2byte	0x326
 2385 040c 00000000 		.4byte	.LFB21
 2386 0410 48000000 		.4byte	.LFE21-.LFB21
 2387 0414 01       		.uleb128 0x1
 2388 0415 9C       		.byte	0x9c
 2389 0416 39040000 		.4byte	0x439
 2390 041a 0B       		.uleb128 0xb
 2391 041b 45060000 		.4byte	.LASF48
 2392 041f 01       		.byte	0x1
 2393 0420 2603     		.2byte	0x326
 2394 0422 76000000 		.4byte	0x76
 2395 0426 02       		.uleb128 0x2
 2396 0427 91       		.byte	0x91
 2397 0428 64       		.sleb128 -28
 2398 0429 0C       		.uleb128 0xc
 2399 042a FF050000 		.4byte	.LASF20
 2400 042e 01       		.byte	0x1
 2401 042f 2803     		.2byte	0x328
 2402 0431 6B000000 		.4byte	0x6b
 2403 0435 02       		.uleb128 0x2
 2404 0436 91       		.byte	0x91
 2405 0437 6F       		.sleb128 -17
 2406 0438 00       		.byte	0
 2407 0439 0D       		.uleb128 0xd
 2408 043a BF020000 		.4byte	.LASF53
 2409 043e 01       		.byte	0x1
 2410 043f 4303     		.2byte	0x343
 2411 0441 00000000 		.4byte	.LFB22
 2412 0445 1C000000 		.4byte	.LFE22-.LFB22
 2413 0449 01       		.uleb128 0x1
 2414 044a 9C       		.byte	0x9c
 2415 044b 5F040000 		.4byte	0x45f
 2416 044f 0B       		.uleb128 0xb
 2417 0450 2C030000 		.4byte	.LASF54
 2418 0454 01       		.byte	0x1
 2419 0455 4303     		.2byte	0x343
 2420 0457 76000000 		.4byte	0x76
 2421 045b 02       		.uleb128 0x2
 2422 045c 91       		.byte	0x91
 2423 045d 74       		.sleb128 -12
 2424 045e 00       		.byte	0
 2425 045f 0E       		.uleb128 0xe
 2426 0460 33020000 		.4byte	.LASF55
 2427 0464 01       		.byte	0x1
 2428 0465 6E03     		.2byte	0x36e
 2429 0467 76000000 		.4byte	0x76
 2430 046b 00000000 		.4byte	.LFB23
 2431 046f 18000000 		.4byte	.LFE23-.LFB23
 2432 0473 01       		.uleb128 0x1
 2433 0474 9C       		.byte	0x9c
 2434 0475 0D       		.uleb128 0xd
 2435 0476 06000000 		.4byte	.LASF56
 2436 047a 01       		.byte	0x1
 2437 047b 9C03     		.2byte	0x39c
 2438 047d 00000000 		.4byte	.LFB24
 2439 0481 1C000000 		.4byte	.LFE24-.LFB24
ARM GAS  C:\Users\Sam\AppData\Local\Temp\ccTX1UXg.s 			page 68


 2440 0485 01       		.uleb128 0x1
 2441 0486 9C       		.byte	0x9c
 2442 0487 9B040000 		.4byte	0x49b
 2443 048b 0B       		.uleb128 0xb
 2444 048c FE000000 		.4byte	.LASF57
 2445 0490 01       		.byte	0x1
 2446 0491 9C03     		.2byte	0x39c
 2447 0493 76000000 		.4byte	0x76
 2448 0497 02       		.uleb128 0x2
 2449 0498 91       		.byte	0x91
 2450 0499 74       		.sleb128 -12
 2451 049a 00       		.byte	0
 2452 049b 0E       		.uleb128 0xe
 2453 049c D9020000 		.4byte	.LASF58
 2454 04a0 01       		.byte	0x1
 2455 04a1 C503     		.2byte	0x3c5
 2456 04a3 76000000 		.4byte	0x76
 2457 04a7 00000000 		.4byte	.LFB25
 2458 04ab 18000000 		.4byte	.LFE25-.LFB25
 2459 04af 01       		.uleb128 0x1
 2460 04b0 9C       		.byte	0x9c
 2461 04b1 0E       		.uleb128 0xe
 2462 04b2 10060000 		.4byte	.LASF59
 2463 04b6 01       		.byte	0x1
 2464 04b7 F303     		.2byte	0x3f3
 2465 04b9 76000000 		.4byte	0x76
 2466 04bd 00000000 		.4byte	.LFB26
 2467 04c1 18000000 		.4byte	.LFE26-.LFB26
 2468 04c5 01       		.uleb128 0x1
 2469 04c6 9C       		.byte	0x9c
 2470 04c7 0E       		.uleb128 0xe
 2471 04c8 A7000000 		.4byte	.LASF60
 2472 04cc 01       		.byte	0x1
 2473 04cd 0804     		.2byte	0x408
 2474 04cf 76000000 		.4byte	0x76
 2475 04d3 00000000 		.4byte	.LFB27
 2476 04d7 18000000 		.4byte	.LFE27-.LFB27
 2477 04db 01       		.uleb128 0x1
 2478 04dc 9C       		.byte	0x9c
 2479 04dd 0A       		.uleb128 0xa
 2480 04de 02020000 		.4byte	.LASF61
 2481 04e2 01       		.byte	0x1
 2482 04e3 2304     		.2byte	0x423
 2483 04e5 00000000 		.4byte	.LFB28
 2484 04e9 44000000 		.4byte	.LFE28-.LFB28
 2485 04ed 01       		.uleb128 0x1
 2486 04ee 9C       		.byte	0x9c
 2487 04ef 12050000 		.4byte	0x512
 2488 04f3 0B       		.uleb128 0xb
 2489 04f4 4D010000 		.4byte	.LASF62
 2490 04f8 01       		.byte	0x1
 2491 04f9 2304     		.2byte	0x423
 2492 04fb 76000000 		.4byte	0x76
 2493 04ff 02       		.uleb128 0x2
 2494 0500 91       		.byte	0x91
 2495 0501 64       		.sleb128 -28
 2496 0502 0C       		.uleb128 0xc
ARM GAS  C:\Users\Sam\AppData\Local\Temp\ccTX1UXg.s 			page 69


 2497 0503 FF050000 		.4byte	.LASF20
 2498 0507 01       		.byte	0x1
 2499 0508 2504     		.2byte	0x425
 2500 050a 6B000000 		.4byte	0x6b
 2501 050e 02       		.uleb128 0x2
 2502 050f 91       		.byte	0x91
 2503 0510 6F       		.sleb128 -17
 2504 0511 00       		.byte	0
 2505 0512 0A       		.uleb128 0xa
 2506 0513 91050000 		.4byte	.LASF63
 2507 0517 01       		.byte	0x1
 2508 0518 4404     		.2byte	0x444
 2509 051a 00000000 		.4byte	.LFB29
 2510 051e 44000000 		.4byte	.LFE29-.LFB29
 2511 0522 01       		.uleb128 0x1
 2512 0523 9C       		.byte	0x9c
 2513 0524 47050000 		.4byte	0x547
 2514 0528 0B       		.uleb128 0xb
 2515 0529 4D010000 		.4byte	.LASF62
 2516 052d 01       		.byte	0x1
 2517 052e 4404     		.2byte	0x444
 2518 0530 76000000 		.4byte	0x76
 2519 0534 02       		.uleb128 0x2
 2520 0535 91       		.byte	0x91
 2521 0536 64       		.sleb128 -28
 2522 0537 0C       		.uleb128 0xc
 2523 0538 FF050000 		.4byte	.LASF20
 2524 053c 01       		.byte	0x1
 2525 053d 4604     		.2byte	0x446
 2526 053f 6B000000 		.4byte	0x6b
 2527 0543 02       		.uleb128 0x2
 2528 0544 91       		.byte	0x91
 2529 0545 6F       		.sleb128 -17
 2530 0546 00       		.byte	0
 2531 0547 0A       		.uleb128 0xa
 2532 0548 8D020000 		.4byte	.LASF64
 2533 054c 01       		.byte	0x1
 2534 054d 6504     		.2byte	0x465
 2535 054f 00000000 		.4byte	.LFB30
 2536 0553 48000000 		.4byte	.LFE30-.LFB30
 2537 0557 01       		.uleb128 0x1
 2538 0558 9C       		.byte	0x9c
 2539 0559 7C050000 		.4byte	0x57c
 2540 055d 0B       		.uleb128 0xb
 2541 055e 4D010000 		.4byte	.LASF62
 2542 0562 01       		.byte	0x1
 2543 0563 6504     		.2byte	0x465
 2544 0565 76000000 		.4byte	0x76
 2545 0569 02       		.uleb128 0x2
 2546 056a 91       		.byte	0x91
 2547 056b 64       		.sleb128 -28
 2548 056c 0C       		.uleb128 0xc
 2549 056d FF050000 		.4byte	.LASF20
 2550 0571 01       		.byte	0x1
 2551 0572 6704     		.2byte	0x467
 2552 0574 6B000000 		.4byte	0x6b
 2553 0578 02       		.uleb128 0x2
ARM GAS  C:\Users\Sam\AppData\Local\Temp\ccTX1UXg.s 			page 70


 2554 0579 91       		.byte	0x91
 2555 057a 6F       		.sleb128 -17
 2556 057b 00       		.byte	0
 2557 057c 0A       		.uleb128 0xa
 2558 057d C0030000 		.4byte	.LASF65
 2559 0581 01       		.byte	0x1
 2560 0582 8504     		.2byte	0x485
 2561 0584 00000000 		.4byte	.LFB31
 2562 0588 44000000 		.4byte	.LFE31-.LFB31
 2563 058c 01       		.uleb128 0x1
 2564 058d 9C       		.byte	0x9c
 2565 058e B1050000 		.4byte	0x5b1
 2566 0592 0B       		.uleb128 0xb
 2567 0593 4D010000 		.4byte	.LASF62
 2568 0597 01       		.byte	0x1
 2569 0598 8504     		.2byte	0x485
 2570 059a 76000000 		.4byte	0x76
 2571 059e 02       		.uleb128 0x2
 2572 059f 91       		.byte	0x91
 2573 05a0 64       		.sleb128 -28
 2574 05a1 0C       		.uleb128 0xc
 2575 05a2 FF050000 		.4byte	.LASF20
 2576 05a6 01       		.byte	0x1
 2577 05a7 8704     		.2byte	0x487
 2578 05a9 6B000000 		.4byte	0x6b
 2579 05ad 02       		.uleb128 0x2
 2580 05ae 91       		.byte	0x91
 2581 05af 6F       		.sleb128 -17
 2582 05b0 00       		.byte	0
 2583 05b1 0A       		.uleb128 0xa
 2584 05b2 5A020000 		.4byte	.LASF66
 2585 05b6 01       		.byte	0x1
 2586 05b7 A604     		.2byte	0x4a6
 2587 05b9 00000000 		.4byte	.LFB32
 2588 05bd 44000000 		.4byte	.LFE32-.LFB32
 2589 05c1 01       		.uleb128 0x1
 2590 05c2 9C       		.byte	0x9c
 2591 05c3 E6050000 		.4byte	0x5e6
 2592 05c7 0B       		.uleb128 0xb
 2593 05c8 4D010000 		.4byte	.LASF62
 2594 05cc 01       		.byte	0x1
 2595 05cd A604     		.2byte	0x4a6
 2596 05cf 76000000 		.4byte	0x76
 2597 05d3 02       		.uleb128 0x2
 2598 05d4 91       		.byte	0x91
 2599 05d5 64       		.sleb128 -28
 2600 05d6 0C       		.uleb128 0xc
 2601 05d7 FF050000 		.4byte	.LASF20
 2602 05db 01       		.byte	0x1
 2603 05dc A804     		.2byte	0x4a8
 2604 05de 6B000000 		.4byte	0x6b
 2605 05e2 02       		.uleb128 0x2
 2606 05e3 91       		.byte	0x91
 2607 05e4 6F       		.sleb128 -17
 2608 05e5 00       		.byte	0
 2609 05e6 0A       		.uleb128 0xa
 2610 05e7 2C050000 		.4byte	.LASF67
ARM GAS  C:\Users\Sam\AppData\Local\Temp\ccTX1UXg.s 			page 71


 2611 05eb 01       		.byte	0x1
 2612 05ec CE04     		.2byte	0x4ce
 2613 05ee 00000000 		.4byte	.LFB33
 2614 05f2 3C000000 		.4byte	.LFE33-.LFB33
 2615 05f6 01       		.uleb128 0x1
 2616 05f7 9C       		.byte	0x9c
 2617 05f8 2A060000 		.4byte	0x62a
 2618 05fc 0B       		.uleb128 0xb
 2619 05fd 59010000 		.4byte	.LASF38
 2620 0601 01       		.byte	0x1
 2621 0602 CE04     		.2byte	0x4ce
 2622 0604 76000000 		.4byte	0x76
 2623 0608 02       		.uleb128 0x2
 2624 0609 91       		.byte	0x91
 2625 060a 64       		.sleb128 -28
 2626 060b 0B       		.uleb128 0xb
 2627 060c AE010000 		.4byte	.LASF68
 2628 0610 01       		.byte	0x1
 2629 0611 CE04     		.2byte	0x4ce
 2630 0613 76000000 		.4byte	0x76
 2631 0617 02       		.uleb128 0x2
 2632 0618 91       		.byte	0x91
 2633 0619 60       		.sleb128 -32
 2634 061a 0C       		.uleb128 0xc
 2635 061b FF050000 		.4byte	.LASF20
 2636 061f 01       		.byte	0x1
 2637 0620 D004     		.2byte	0x4d0
 2638 0622 6B000000 		.4byte	0x6b
 2639 0626 02       		.uleb128 0x2
 2640 0627 91       		.byte	0x91
 2641 0628 6F       		.sleb128 -17
 2642 0629 00       		.byte	0
 2643 062a 0E       		.uleb128 0xe
 2644 062b C6050000 		.4byte	.LASF69
 2645 062f 01       		.byte	0x1
 2646 0630 EB04     		.2byte	0x4eb
 2647 0632 76000000 		.4byte	0x76
 2648 0636 00000000 		.4byte	.LFB34
 2649 063a 20000000 		.4byte	.LFE34-.LFB34
 2650 063e 01       		.uleb128 0x1
 2651 063f 9C       		.byte	0x9c
 2652 0640 0D       		.uleb128 0xd
 2653 0641 F4030000 		.4byte	.LASF70
 2654 0645 01       		.byte	0x1
 2655 0646 0405     		.2byte	0x504
 2656 0648 00000000 		.4byte	.LFB35
 2657 064c 18000000 		.4byte	.LFE35-.LFB35
 2658 0650 01       		.uleb128 0x1
 2659 0651 9C       		.byte	0x9c
 2660 0652 66060000 		.4byte	0x666
 2661 0656 0B       		.uleb128 0xb
 2662 0657 0C050000 		.4byte	.LASF71
 2663 065b 01       		.byte	0x1
 2664 065c 0405     		.2byte	0x504
 2665 065e 76000000 		.4byte	0x76
 2666 0662 02       		.uleb128 0x2
 2667 0663 91       		.byte	0x91
ARM GAS  C:\Users\Sam\AppData\Local\Temp\ccTX1UXg.s 			page 72


 2668 0664 74       		.sleb128 -12
 2669 0665 00       		.byte	0
 2670 0666 0E       		.uleb128 0xe
 2671 0667 6B050000 		.4byte	.LASF72
 2672 066b 01       		.byte	0x1
 2673 066c 1B05     		.2byte	0x51b
 2674 066e 76000000 		.4byte	0x76
 2675 0672 00000000 		.4byte	.LFB36
 2676 0676 14000000 		.4byte	.LFE36-.LFB36
 2677 067a 01       		.uleb128 0x1
 2678 067b 9C       		.byte	0x9c
 2679 067c 0E       		.uleb128 0xe
 2680 067d 5E010000 		.4byte	.LASF73
 2681 0681 01       		.byte	0x1
 2682 0682 3205     		.2byte	0x532
 2683 0684 76000000 		.4byte	0x76
 2684 0688 00000000 		.4byte	.LFB37
 2685 068c 14000000 		.4byte	.LFE37-.LFB37
 2686 0690 01       		.uleb128 0x1
 2687 0691 9C       		.byte	0x9c
 2688 0692 0D       		.uleb128 0xd
 2689 0693 C8040000 		.4byte	.LASF74
 2690 0697 01       		.byte	0x1
 2691 0698 4905     		.2byte	0x549
 2692 069a 00000000 		.4byte	.LFB38
 2693 069e 18000000 		.4byte	.LFE38-.LFB38
 2694 06a2 01       		.uleb128 0x1
 2695 06a3 9C       		.byte	0x9c
 2696 06a4 B8060000 		.4byte	0x6b8
 2697 06a8 0B       		.uleb128 0xb
 2698 06a9 0C050000 		.4byte	.LASF71
 2699 06ad 01       		.byte	0x1
 2700 06ae 4905     		.2byte	0x549
 2701 06b0 76000000 		.4byte	0x76
 2702 06b4 02       		.uleb128 0x2
 2703 06b5 91       		.byte	0x91
 2704 06b6 74       		.sleb128 -12
 2705 06b7 00       		.byte	0
 2706 06b8 0D       		.uleb128 0xd
 2707 06b9 87010000 		.4byte	.LASF75
 2708 06bd 01       		.byte	0x1
 2709 06be 6005     		.2byte	0x560
 2710 06c0 00000000 		.4byte	.LFB39
 2711 06c4 18000000 		.4byte	.LFE39-.LFB39
 2712 06c8 01       		.uleb128 0x1
 2713 06c9 9C       		.byte	0x9c
 2714 06ca DE060000 		.4byte	0x6de
 2715 06ce 0B       		.uleb128 0xb
 2716 06cf 0C050000 		.4byte	.LASF71
 2717 06d3 01       		.byte	0x1
 2718 06d4 6005     		.2byte	0x560
 2719 06d6 76000000 		.4byte	0x76
 2720 06da 02       		.uleb128 0x2
 2721 06db 91       		.byte	0x91
 2722 06dc 74       		.sleb128 -12
 2723 06dd 00       		.byte	0
 2724 06de 0F       		.uleb128 0xf
ARM GAS  C:\Users\Sam\AppData\Local\Temp\ccTX1UXg.s 			page 73


 2725 06df 1E020000 		.4byte	.LASF79
 2726 06e3 01       		.byte	0x1
 2727 06e4 15       		.byte	0x15
 2728 06e5 6B000000 		.4byte	0x6b
 2729 06e9 05       		.uleb128 0x5
 2730 06ea 03       		.byte	0x3
 2731 06eb 00000000 		.4byte	MessageTimer_initVar
 2732 06ef 00       		.byte	0
 2733              		.section	.debug_abbrev,"",%progbits
 2734              	.Ldebug_abbrev0:
 2735 0000 01       		.uleb128 0x1
 2736 0001 11       		.uleb128 0x11
 2737 0002 01       		.byte	0x1
 2738 0003 25       		.uleb128 0x25
 2739 0004 0E       		.uleb128 0xe
 2740 0005 13       		.uleb128 0x13
 2741 0006 0B       		.uleb128 0xb
 2742 0007 03       		.uleb128 0x3
 2743 0008 0E       		.uleb128 0xe
 2744 0009 1B       		.uleb128 0x1b
 2745 000a 0E       		.uleb128 0xe
 2746 000b 55       		.uleb128 0x55
 2747 000c 17       		.uleb128 0x17
 2748 000d 11       		.uleb128 0x11
 2749 000e 01       		.uleb128 0x1
 2750 000f 10       		.uleb128 0x10
 2751 0010 17       		.uleb128 0x17
 2752 0011 00       		.byte	0
 2753 0012 00       		.byte	0
 2754 0013 02       		.uleb128 0x2
 2755 0014 24       		.uleb128 0x24
 2756 0015 00       		.byte	0
 2757 0016 0B       		.uleb128 0xb
 2758 0017 0B       		.uleb128 0xb
 2759 0018 3E       		.uleb128 0x3e
 2760 0019 0B       		.uleb128 0xb
 2761 001a 03       		.uleb128 0x3
 2762 001b 0E       		.uleb128 0xe
 2763 001c 00       		.byte	0
 2764 001d 00       		.byte	0
 2765 001e 03       		.uleb128 0x3
 2766 001f 24       		.uleb128 0x24
 2767 0020 00       		.byte	0
 2768 0021 0B       		.uleb128 0xb
 2769 0022 0B       		.uleb128 0xb
 2770 0023 3E       		.uleb128 0x3e
 2771 0024 0B       		.uleb128 0xb
 2772 0025 03       		.uleb128 0x3
 2773 0026 08       		.uleb128 0x8
 2774 0027 00       		.byte	0
 2775 0028 00       		.byte	0
 2776 0029 04       		.uleb128 0x4
 2777 002a 16       		.uleb128 0x16
 2778 002b 00       		.byte	0
 2779 002c 03       		.uleb128 0x3
 2780 002d 0E       		.uleb128 0xe
 2781 002e 3A       		.uleb128 0x3a
ARM GAS  C:\Users\Sam\AppData\Local\Temp\ccTX1UXg.s 			page 74


 2782 002f 0B       		.uleb128 0xb
 2783 0030 3B       		.uleb128 0x3b
 2784 0031 0B       		.uleb128 0xb
 2785 0032 49       		.uleb128 0x49
 2786 0033 13       		.uleb128 0x13
 2787 0034 00       		.byte	0
 2788 0035 00       		.byte	0
 2789 0036 05       		.uleb128 0x5
 2790 0037 16       		.uleb128 0x16
 2791 0038 00       		.byte	0
 2792 0039 03       		.uleb128 0x3
 2793 003a 0E       		.uleb128 0xe
 2794 003b 3A       		.uleb128 0x3a
 2795 003c 0B       		.uleb128 0xb
 2796 003d 3B       		.uleb128 0x3b
 2797 003e 05       		.uleb128 0x5
 2798 003f 49       		.uleb128 0x49
 2799 0040 13       		.uleb128 0x13
 2800 0041 00       		.byte	0
 2801 0042 00       		.byte	0
 2802 0043 06       		.uleb128 0x6
 2803 0044 35       		.uleb128 0x35
 2804 0045 00       		.byte	0
 2805 0046 49       		.uleb128 0x49
 2806 0047 13       		.uleb128 0x13
 2807 0048 00       		.byte	0
 2808 0049 00       		.byte	0
 2809 004a 07       		.uleb128 0x7
 2810 004b 2E       		.uleb128 0x2e
 2811 004c 00       		.byte	0
 2812 004d 3F       		.uleb128 0x3f
 2813 004e 19       		.uleb128 0x19
 2814 004f 03       		.uleb128 0x3
 2815 0050 0E       		.uleb128 0xe
 2816 0051 3A       		.uleb128 0x3a
 2817 0052 0B       		.uleb128 0xb
 2818 0053 3B       		.uleb128 0x3b
 2819 0054 0B       		.uleb128 0xb
 2820 0055 27       		.uleb128 0x27
 2821 0056 19       		.uleb128 0x19
 2822 0057 11       		.uleb128 0x11
 2823 0058 01       		.uleb128 0x1
 2824 0059 12       		.uleb128 0x12
 2825 005a 06       		.uleb128 0x6
 2826 005b 40       		.uleb128 0x40
 2827 005c 18       		.uleb128 0x18
 2828 005d 9642     		.uleb128 0x2116
 2829 005f 19       		.uleb128 0x19
 2830 0060 00       		.byte	0
 2831 0061 00       		.byte	0
 2832 0062 08       		.uleb128 0x8
 2833 0063 2E       		.uleb128 0x2e
 2834 0064 01       		.byte	0x1
 2835 0065 3F       		.uleb128 0x3f
 2836 0066 19       		.uleb128 0x19
 2837 0067 03       		.uleb128 0x3
 2838 0068 0E       		.uleb128 0xe
ARM GAS  C:\Users\Sam\AppData\Local\Temp\ccTX1UXg.s 			page 75


 2839 0069 3A       		.uleb128 0x3a
 2840 006a 0B       		.uleb128 0xb
 2841 006b 3B       		.uleb128 0x3b
 2842 006c 0B       		.uleb128 0xb
 2843 006d 27       		.uleb128 0x27
 2844 006e 19       		.uleb128 0x19
 2845 006f 11       		.uleb128 0x11
 2846 0070 01       		.uleb128 0x1
 2847 0071 12       		.uleb128 0x12
 2848 0072 06       		.uleb128 0x6
 2849 0073 40       		.uleb128 0x40
 2850 0074 18       		.uleb128 0x18
 2851 0075 9642     		.uleb128 0x2116
 2852 0077 19       		.uleb128 0x19
 2853 0078 01       		.uleb128 0x1
 2854 0079 13       		.uleb128 0x13
 2855 007a 00       		.byte	0
 2856 007b 00       		.byte	0
 2857 007c 09       		.uleb128 0x9
 2858 007d 34       		.uleb128 0x34
 2859 007e 00       		.byte	0
 2860 007f 03       		.uleb128 0x3
 2861 0080 0E       		.uleb128 0xe
 2862 0081 3A       		.uleb128 0x3a
 2863 0082 0B       		.uleb128 0xb
 2864 0083 3B       		.uleb128 0x3b
 2865 0084 0B       		.uleb128 0xb
 2866 0085 49       		.uleb128 0x49
 2867 0086 13       		.uleb128 0x13
 2868 0087 02       		.uleb128 0x2
 2869 0088 18       		.uleb128 0x18
 2870 0089 00       		.byte	0
 2871 008a 00       		.byte	0
 2872 008b 0A       		.uleb128 0xa
 2873 008c 2E       		.uleb128 0x2e
 2874 008d 01       		.byte	0x1
 2875 008e 3F       		.uleb128 0x3f
 2876 008f 19       		.uleb128 0x19
 2877 0090 03       		.uleb128 0x3
 2878 0091 0E       		.uleb128 0xe
 2879 0092 3A       		.uleb128 0x3a
 2880 0093 0B       		.uleb128 0xb
 2881 0094 3B       		.uleb128 0x3b
 2882 0095 05       		.uleb128 0x5
 2883 0096 27       		.uleb128 0x27
 2884 0097 19       		.uleb128 0x19
 2885 0098 11       		.uleb128 0x11
 2886 0099 01       		.uleb128 0x1
 2887 009a 12       		.uleb128 0x12
 2888 009b 06       		.uleb128 0x6
 2889 009c 40       		.uleb128 0x40
 2890 009d 18       		.uleb128 0x18
 2891 009e 9642     		.uleb128 0x2116
 2892 00a0 19       		.uleb128 0x19
 2893 00a1 01       		.uleb128 0x1
 2894 00a2 13       		.uleb128 0x13
 2895 00a3 00       		.byte	0
ARM GAS  C:\Users\Sam\AppData\Local\Temp\ccTX1UXg.s 			page 76


 2896 00a4 00       		.byte	0
 2897 00a5 0B       		.uleb128 0xb
 2898 00a6 05       		.uleb128 0x5
 2899 00a7 00       		.byte	0
 2900 00a8 03       		.uleb128 0x3
 2901 00a9 0E       		.uleb128 0xe
 2902 00aa 3A       		.uleb128 0x3a
 2903 00ab 0B       		.uleb128 0xb
 2904 00ac 3B       		.uleb128 0x3b
 2905 00ad 05       		.uleb128 0x5
 2906 00ae 49       		.uleb128 0x49
 2907 00af 13       		.uleb128 0x13
 2908 00b0 02       		.uleb128 0x2
 2909 00b1 18       		.uleb128 0x18
 2910 00b2 00       		.byte	0
 2911 00b3 00       		.byte	0
 2912 00b4 0C       		.uleb128 0xc
 2913 00b5 34       		.uleb128 0x34
 2914 00b6 00       		.byte	0
 2915 00b7 03       		.uleb128 0x3
 2916 00b8 0E       		.uleb128 0xe
 2917 00b9 3A       		.uleb128 0x3a
 2918 00ba 0B       		.uleb128 0xb
 2919 00bb 3B       		.uleb128 0x3b
 2920 00bc 05       		.uleb128 0x5
 2921 00bd 49       		.uleb128 0x49
 2922 00be 13       		.uleb128 0x13
 2923 00bf 02       		.uleb128 0x2
 2924 00c0 18       		.uleb128 0x18
 2925 00c1 00       		.byte	0
 2926 00c2 00       		.byte	0
 2927 00c3 0D       		.uleb128 0xd
 2928 00c4 2E       		.uleb128 0x2e
 2929 00c5 01       		.byte	0x1
 2930 00c6 3F       		.uleb128 0x3f
 2931 00c7 19       		.uleb128 0x19
 2932 00c8 03       		.uleb128 0x3
 2933 00c9 0E       		.uleb128 0xe
 2934 00ca 3A       		.uleb128 0x3a
 2935 00cb 0B       		.uleb128 0xb
 2936 00cc 3B       		.uleb128 0x3b
 2937 00cd 05       		.uleb128 0x5
 2938 00ce 27       		.uleb128 0x27
 2939 00cf 19       		.uleb128 0x19
 2940 00d0 11       		.uleb128 0x11
 2941 00d1 01       		.uleb128 0x1
 2942 00d2 12       		.uleb128 0x12
 2943 00d3 06       		.uleb128 0x6
 2944 00d4 40       		.uleb128 0x40
 2945 00d5 18       		.uleb128 0x18
 2946 00d6 9742     		.uleb128 0x2117
 2947 00d8 19       		.uleb128 0x19
 2948 00d9 01       		.uleb128 0x1
 2949 00da 13       		.uleb128 0x13
 2950 00db 00       		.byte	0
 2951 00dc 00       		.byte	0
 2952 00dd 0E       		.uleb128 0xe
ARM GAS  C:\Users\Sam\AppData\Local\Temp\ccTX1UXg.s 			page 77


 2953 00de 2E       		.uleb128 0x2e
 2954 00df 00       		.byte	0
 2955 00e0 3F       		.uleb128 0x3f
 2956 00e1 19       		.uleb128 0x19
 2957 00e2 03       		.uleb128 0x3
 2958 00e3 0E       		.uleb128 0xe
 2959 00e4 3A       		.uleb128 0x3a
 2960 00e5 0B       		.uleb128 0xb
 2961 00e6 3B       		.uleb128 0x3b
 2962 00e7 05       		.uleb128 0x5
 2963 00e8 27       		.uleb128 0x27
 2964 00e9 19       		.uleb128 0x19
 2965 00ea 49       		.uleb128 0x49
 2966 00eb 13       		.uleb128 0x13
 2967 00ec 11       		.uleb128 0x11
 2968 00ed 01       		.uleb128 0x1
 2969 00ee 12       		.uleb128 0x12
 2970 00ef 06       		.uleb128 0x6
 2971 00f0 40       		.uleb128 0x40
 2972 00f1 18       		.uleb128 0x18
 2973 00f2 9742     		.uleb128 0x2117
 2974 00f4 19       		.uleb128 0x19
 2975 00f5 00       		.byte	0
 2976 00f6 00       		.byte	0
 2977 00f7 0F       		.uleb128 0xf
 2978 00f8 34       		.uleb128 0x34
 2979 00f9 00       		.byte	0
 2980 00fa 03       		.uleb128 0x3
 2981 00fb 0E       		.uleb128 0xe
 2982 00fc 3A       		.uleb128 0x3a
 2983 00fd 0B       		.uleb128 0xb
 2984 00fe 3B       		.uleb128 0x3b
 2985 00ff 0B       		.uleb128 0xb
 2986 0100 49       		.uleb128 0x49
 2987 0101 13       		.uleb128 0x13
 2988 0102 3F       		.uleb128 0x3f
 2989 0103 19       		.uleb128 0x19
 2990 0104 02       		.uleb128 0x2
 2991 0105 18       		.uleb128 0x18
 2992 0106 00       		.byte	0
 2993 0107 00       		.byte	0
 2994 0108 00       		.byte	0
 2995              		.section	.debug_aranges,"",%progbits
 2996 0000 54010000 		.4byte	0x154
 2997 0004 0200     		.2byte	0x2
 2998 0006 00000000 		.4byte	.Ldebug_info0
 2999 000a 04       		.byte	0x4
 3000 000b 00       		.byte	0
 3001 000c 0000     		.2byte	0
 3002 000e 0000     		.2byte	0
 3003 0010 00000000 		.4byte	.LFB0
 3004 0014 30000000 		.4byte	.LFE0-.LFB0
 3005 0018 00000000 		.4byte	.LFB1
 3006 001c 38000000 		.4byte	.LFE1-.LFB1
 3007 0020 00000000 		.4byte	.LFB2
 3008 0024 24000000 		.4byte	.LFE2-.LFB2
 3009 0028 00000000 		.4byte	.LFB3
ARM GAS  C:\Users\Sam\AppData\Local\Temp\ccTX1UXg.s 			page 78


 3010 002c 30000000 		.4byte	.LFE3-.LFB3
 3011 0030 00000000 		.4byte	.LFB4
 3012 0034 48000000 		.4byte	.LFE4-.LFB4
 3013 0038 00000000 		.4byte	.LFB5
 3014 003c 48000000 		.4byte	.LFE5-.LFB5
 3015 0040 00000000 		.4byte	.LFB6
 3016 0044 48000000 		.4byte	.LFE6-.LFB6
 3017 0048 00000000 		.4byte	.LFB7
 3018 004c 4C000000 		.4byte	.LFE7-.LFB7
 3019 0050 00000000 		.4byte	.LFB8
 3020 0054 1C000000 		.4byte	.LFE8-.LFB8
 3021 0058 00000000 		.4byte	.LFB9
 3022 005c 48000000 		.4byte	.LFE9-.LFB9
 3023 0060 00000000 		.4byte	.LFB10
 3024 0064 48000000 		.4byte	.LFE10-.LFB10
 3025 0068 00000000 		.4byte	.LFB11
 3026 006c 4C000000 		.4byte	.LFE11-.LFB11
 3027 0070 00000000 		.4byte	.LFB12
 3028 0074 48000000 		.4byte	.LFE12-.LFB12
 3029 0078 00000000 		.4byte	.LFB13
 3030 007c 1C000000 		.4byte	.LFE13-.LFB13
 3031 0080 00000000 		.4byte	.LFB14
 3032 0084 18000000 		.4byte	.LFE14-.LFB14
 3033 0088 00000000 		.4byte	.LFB15
 3034 008c 48000000 		.4byte	.LFE15-.LFB15
 3035 0090 00000000 		.4byte	.LFB16
 3036 0094 1C000000 		.4byte	.LFE16-.LFB16
 3037 0098 00000000 		.4byte	.LFB17
 3038 009c 18000000 		.4byte	.LFE17-.LFB17
 3039 00a0 00000000 		.4byte	.LFB18
 3040 00a4 48000000 		.4byte	.LFE18-.LFB18
 3041 00a8 00000000 		.4byte	.LFB19
 3042 00ac 1C000000 		.4byte	.LFE19-.LFB19
 3043 00b0 00000000 		.4byte	.LFB20
 3044 00b4 18000000 		.4byte	.LFE20-.LFB20
 3045 00b8 00000000 		.4byte	.LFB21
 3046 00bc 48000000 		.4byte	.LFE21-.LFB21
 3047 00c0 00000000 		.4byte	.LFB22
 3048 00c4 1C000000 		.4byte	.LFE22-.LFB22
 3049 00c8 00000000 		.4byte	.LFB23
 3050 00cc 18000000 		.4byte	.LFE23-.LFB23
 3051 00d0 00000000 		.4byte	.LFB24
 3052 00d4 1C000000 		.4byte	.LFE24-.LFB24
 3053 00d8 00000000 		.4byte	.LFB25
 3054 00dc 18000000 		.4byte	.LFE25-.LFB25
 3055 00e0 00000000 		.4byte	.LFB26
 3056 00e4 18000000 		.4byte	.LFE26-.LFB26
 3057 00e8 00000000 		.4byte	.LFB27
 3058 00ec 18000000 		.4byte	.LFE27-.LFB27
 3059 00f0 00000000 		.4byte	.LFB28
 3060 00f4 44000000 		.4byte	.LFE28-.LFB28
 3061 00f8 00000000 		.4byte	.LFB29
 3062 00fc 44000000 		.4byte	.LFE29-.LFB29
 3063 0100 00000000 		.4byte	.LFB30
 3064 0104 48000000 		.4byte	.LFE30-.LFB30
 3065 0108 00000000 		.4byte	.LFB31
 3066 010c 44000000 		.4byte	.LFE31-.LFB31
ARM GAS  C:\Users\Sam\AppData\Local\Temp\ccTX1UXg.s 			page 79


 3067 0110 00000000 		.4byte	.LFB32
 3068 0114 44000000 		.4byte	.LFE32-.LFB32
 3069 0118 00000000 		.4byte	.LFB33
 3070 011c 3C000000 		.4byte	.LFE33-.LFB33
 3071 0120 00000000 		.4byte	.LFB34
 3072 0124 20000000 		.4byte	.LFE34-.LFB34
 3073 0128 00000000 		.4byte	.LFB35
 3074 012c 18000000 		.4byte	.LFE35-.LFB35
 3075 0130 00000000 		.4byte	.LFB36
 3076 0134 14000000 		.4byte	.LFE36-.LFB36
 3077 0138 00000000 		.4byte	.LFB37
 3078 013c 14000000 		.4byte	.LFE37-.LFB37
 3079 0140 00000000 		.4byte	.LFB38
 3080 0144 18000000 		.4byte	.LFE38-.LFB38
 3081 0148 00000000 		.4byte	.LFB39
 3082 014c 18000000 		.4byte	.LFE39-.LFB39
 3083 0150 00000000 		.4byte	0
 3084 0154 00000000 		.4byte	0
 3085              		.section	.debug_ranges,"",%progbits
 3086              	.Ldebug_ranges0:
 3087 0000 00000000 		.4byte	.LFB0
 3088 0004 30000000 		.4byte	.LFE0
 3089 0008 00000000 		.4byte	.LFB1
 3090 000c 38000000 		.4byte	.LFE1
 3091 0010 00000000 		.4byte	.LFB2
 3092 0014 24000000 		.4byte	.LFE2
 3093 0018 00000000 		.4byte	.LFB3
 3094 001c 30000000 		.4byte	.LFE3
 3095 0020 00000000 		.4byte	.LFB4
 3096 0024 48000000 		.4byte	.LFE4
 3097 0028 00000000 		.4byte	.LFB5
 3098 002c 48000000 		.4byte	.LFE5
 3099 0030 00000000 		.4byte	.LFB6
 3100 0034 48000000 		.4byte	.LFE6
 3101 0038 00000000 		.4byte	.LFB7
 3102 003c 4C000000 		.4byte	.LFE7
 3103 0040 00000000 		.4byte	.LFB8
 3104 0044 1C000000 		.4byte	.LFE8
 3105 0048 00000000 		.4byte	.LFB9
 3106 004c 48000000 		.4byte	.LFE9
 3107 0050 00000000 		.4byte	.LFB10
 3108 0054 48000000 		.4byte	.LFE10
 3109 0058 00000000 		.4byte	.LFB11
 3110 005c 4C000000 		.4byte	.LFE11
 3111 0060 00000000 		.4byte	.LFB12
 3112 0064 48000000 		.4byte	.LFE12
 3113 0068 00000000 		.4byte	.LFB13
 3114 006c 1C000000 		.4byte	.LFE13
 3115 0070 00000000 		.4byte	.LFB14
 3116 0074 18000000 		.4byte	.LFE14
 3117 0078 00000000 		.4byte	.LFB15
 3118 007c 48000000 		.4byte	.LFE15
 3119 0080 00000000 		.4byte	.LFB16
 3120 0084 1C000000 		.4byte	.LFE16
 3121 0088 00000000 		.4byte	.LFB17
 3122 008c 18000000 		.4byte	.LFE17
 3123 0090 00000000 		.4byte	.LFB18
ARM GAS  C:\Users\Sam\AppData\Local\Temp\ccTX1UXg.s 			page 80


 3124 0094 48000000 		.4byte	.LFE18
 3125 0098 00000000 		.4byte	.LFB19
 3126 009c 1C000000 		.4byte	.LFE19
 3127 00a0 00000000 		.4byte	.LFB20
 3128 00a4 18000000 		.4byte	.LFE20
 3129 00a8 00000000 		.4byte	.LFB21
 3130 00ac 48000000 		.4byte	.LFE21
 3131 00b0 00000000 		.4byte	.LFB22
 3132 00b4 1C000000 		.4byte	.LFE22
 3133 00b8 00000000 		.4byte	.LFB23
 3134 00bc 18000000 		.4byte	.LFE23
 3135 00c0 00000000 		.4byte	.LFB24
 3136 00c4 1C000000 		.4byte	.LFE24
 3137 00c8 00000000 		.4byte	.LFB25
 3138 00cc 18000000 		.4byte	.LFE25
 3139 00d0 00000000 		.4byte	.LFB26
 3140 00d4 18000000 		.4byte	.LFE26
 3141 00d8 00000000 		.4byte	.LFB27
 3142 00dc 18000000 		.4byte	.LFE27
 3143 00e0 00000000 		.4byte	.LFB28
 3144 00e4 44000000 		.4byte	.LFE28
 3145 00e8 00000000 		.4byte	.LFB29
 3146 00ec 44000000 		.4byte	.LFE29
 3147 00f0 00000000 		.4byte	.LFB30
 3148 00f4 48000000 		.4byte	.LFE30
 3149 00f8 00000000 		.4byte	.LFB31
 3150 00fc 44000000 		.4byte	.LFE31
 3151 0100 00000000 		.4byte	.LFB32
 3152 0104 44000000 		.4byte	.LFE32
 3153 0108 00000000 		.4byte	.LFB33
 3154 010c 3C000000 		.4byte	.LFE33
 3155 0110 00000000 		.4byte	.LFB34
 3156 0114 20000000 		.4byte	.LFE34
 3157 0118 00000000 		.4byte	.LFB35
 3158 011c 18000000 		.4byte	.LFE35
 3159 0120 00000000 		.4byte	.LFB36
 3160 0124 14000000 		.4byte	.LFE36
 3161 0128 00000000 		.4byte	.LFB37
 3162 012c 14000000 		.4byte	.LFE37
 3163 0130 00000000 		.4byte	.LFB38
 3164 0134 18000000 		.4byte	.LFE38
 3165 0138 00000000 		.4byte	.LFB39
 3166 013c 18000000 		.4byte	.LFE39
 3167 0140 00000000 		.4byte	0
 3168 0144 00000000 		.4byte	0
 3169              		.section	.debug_line,"",%progbits
 3170              	.Ldebug_line0:
 3171 0000 71030000 		.section	.debug_str,"MS",%progbits,1
 3171      02004B00 
 3171      00000201 
 3171      FB0E0D00 
 3171      01010101 
 3172              	.LASF40:
 3173 0000 636F756E 		.ascii	"count\000"
 3173      7400
 3174              	.LASF56:
 3175 0006 4D657373 		.ascii	"MessageTimer_WriteCompareBuf\000"
ARM GAS  C:\Users\Sam\AppData\Local\Temp\ccTX1UXg.s 			page 81


 3175      61676554 
 3175      696D6572 
 3175      5F577269 
 3175      7465436F 
 3176              	.LASF49:
 3177 0023 4D657373 		.ascii	"MessageTimer_WritePeriodBuf\000"
 3177      61676554 
 3177      696D6572 
 3177      5F577269 
 3177      74655065 
 3178              	.LASF27:
 3179 003f 4D657373 		.ascii	"MessageTimer_SetOneShot\000"
 3179      61676554 
 3179      696D6572 
 3179      5F536574 
 3179      4F6E6553 
 3180              	.LASF44:
 3181 0057 70657269 		.ascii	"period\000"
 3181      6F6400
 3182              	.LASF7:
 3183 005e 6C6F6E67 		.ascii	"long long unsigned int\000"
 3183      206C6F6E 
 3183      6720756E 
 3183      7369676E 
 3183      65642069 
 3184              	.LASF24:
 3185 0075 71644D6F 		.ascii	"qdMode\000"
 3185      646500
 3186              	.LASF45:
 3187 007c 4D657373 		.ascii	"MessageTimer_ReadCounter\000"
 3187      61676554 
 3187      696D6572 
 3187      5F526561 
 3187      64436F75 
 3188              	.LASF16:
 3189 0095 4D657373 		.ascii	"MessageTimer_Init\000"
 3189      61676554 
 3189      696D6572 
 3189      5F496E69 
 3189      7400
 3190              	.LASF60:
 3191 00a7 4D657373 		.ascii	"MessageTimer_ReadCaptureBuf\000"
 3191      61676554 
 3191      696D6572 
 3191      5F526561 
 3191      64436170 
 3192              	.LASF6:
 3193 00c3 6C6F6E67 		.ascii	"long long int\000"
 3193      206C6F6E 
 3193      6720696E 
 3193      7400
 3194              	.LASF0:
 3195 00d1 7369676E 		.ascii	"signed char\000"
 3195      65642063 
 3195      68617200 
 3196              	.LASF29:
 3197 00dd 4D657373 		.ascii	"MessageTimer_SetPWMMode\000"
ARM GAS  C:\Users\Sam\AppData\Local\Temp\ccTX1UXg.s 			page 82


 3197      61676554 
 3197      696D6572 
 3197      5F536574 
 3197      50574D4D 
 3198              	.LASF4:
 3199 00f5 6C6F6E67 		.ascii	"long int\000"
 3199      20696E74 
 3199      00
 3200              	.LASF57:
 3201 00fe 636F6D70 		.ascii	"compareBuf\000"
 3201      61726542 
 3201      756600
 3202              	.LASF9:
 3203 0109 75696E74 		.ascii	"uint8\000"
 3203      3800
 3204              	.LASF12:
 3205 010f 646F7562 		.ascii	"double\000"
 3205      6C6500
 3206              	.LASF18:
 3207 0116 4D657373 		.ascii	"MessageTimer_Enable\000"
 3207      61676554 
 3207      696D6572 
 3207      5F456E61 
 3207      626C6500 
 3208              	.LASF10:
 3209 012a 75696E74 		.ascii	"uint32\000"
 3209      333200
 3210              	.LASF41:
 3211 0131 4D657373 		.ascii	"MessageTimer_SetCounterMode\000"
 3211      61676554 
 3211      696D6572 
 3211      5F536574 
 3211      436F756E 
 3212              	.LASF62:
 3213 014d 74726967 		.ascii	"triggerMode\000"
 3213      6765724D 
 3213      6F646500 
 3214              	.LASF38:
 3215 0159 6D61736B 		.ascii	"mask\000"
 3215      00
 3216              	.LASF73:
 3217 015e 4D657373 		.ascii	"MessageTimer_GetInterruptSource\000"
 3217      61676554 
 3217      696D6572 
 3217      5F476574 
 3217      496E7465 
 3218              	.LASF36:
 3219 017e 64656164 		.ascii	"deadTime\000"
 3219      54696D65 
 3219      00
 3220              	.LASF75:
 3221 0187 4D657373 		.ascii	"MessageTimer_SetInterrupt\000"
 3221      61676554 
 3221      696D6572 
 3221      5F536574 
 3221      496E7465 
 3222              	.LASF8:
ARM GAS  C:\Users\Sam\AppData\Local\Temp\ccTX1UXg.s 			page 83


 3223 01a1 756E7369 		.ascii	"unsigned int\000"
 3223      676E6564 
 3223      20696E74 
 3223      00
 3224              	.LASF68:
 3225 01ae 636F6D6D 		.ascii	"command\000"
 3225      616E6400 
 3226              	.LASF5:
 3227 01b6 6C6F6E67 		.ascii	"long unsigned int\000"
 3227      20756E73 
 3227      69676E65 
 3227      6420696E 
 3227      7400
 3228              	.LASF30:
 3229 01c8 6D6F6465 		.ascii	"modeMask\000"
 3229      4D61736B 
 3229      00
 3230              	.LASF33:
 3231 01d1 4D657373 		.ascii	"MessageTimer_SetPWMStopOnKill\000"
 3231      61676554 
 3231      696D6572 
 3231      5F536574 
 3231      50574D53 
 3232              	.LASF3:
 3233 01ef 73686F72 		.ascii	"short unsigned int\000"
 3233      7420756E 
 3233      7369676E 
 3233      65642069 
 3233      6E7400
 3234              	.LASF61:
 3235 0202 4D657373 		.ascii	"MessageTimer_SetCaptureMode\000"
 3235      61676554 
 3235      696D6572 
 3235      5F536574 
 3235      43617074 
 3236              	.LASF79:
 3237 021e 4D657373 		.ascii	"MessageTimer_initVar\000"
 3237      61676554 
 3237      696D6572 
 3237      5F696E69 
 3237      74566172 
 3238              	.LASF55:
 3239 0233 4D657373 		.ascii	"MessageTimer_ReadCompare\000"
 3239      61676554 
 3239      696D6572 
 3239      5F526561 
 3239      64436F6D 
 3240              	.LASF28:
 3241 024c 6F6E6553 		.ascii	"oneShotEnable\000"
 3241      686F7445 
 3241      6E61626C 
 3241      6500
 3242              	.LASF66:
 3243 025a 4D657373 		.ascii	"MessageTimer_SetCountMode\000"
 3243      61676554 
 3243      696D6572 
 3243      5F536574 
ARM GAS  C:\Users\Sam\AppData\Local\Temp\ccTX1UXg.s 			page 84


 3243      436F756E 
 3244              	.LASF17:
 3245 0274 4D657373 		.ascii	"MessageTimer_Start\000"
 3245      61676554 
 3245      696D6572 
 3245      5F537461 
 3245      727400
 3246              	.LASF14:
 3247 0287 72656733 		.ascii	"reg32\000"
 3247      3200
 3248              	.LASF64:
 3249 028d 4D657373 		.ascii	"MessageTimer_SetStartMode\000"
 3249      61676554 
 3249      696D6572 
 3249      5F536574 
 3249      53746172 
 3250              	.LASF15:
 3251 02a7 73697A65 		.ascii	"sizetype\000"
 3251      74797065 
 3251      00
 3252              	.LASF32:
 3253 02b0 73796E63 		.ascii	"syncKillEnable\000"
 3253      4B696C6C 
 3253      456E6162 
 3253      6C6500
 3254              	.LASF53:
 3255 02bf 4D657373 		.ascii	"MessageTimer_WriteCompare\000"
 3255      61676554 
 3255      696D6572 
 3255      5F577269 
 3255      7465436F 
 3256              	.LASF58:
 3257 02d9 4D657373 		.ascii	"MessageTimer_ReadCompareBuf\000"
 3257      61676554 
 3257      696D6572 
 3257      5F526561 
 3257      64436F6D 
 3258              	.LASF47:
 3259 02f5 4D657373 		.ascii	"MessageTimer_SetCompareSwap\000"
 3259      61676554 
 3259      696D6572 
 3259      5F536574 
 3259      436F6D70 
 3260              	.LASF51:
 3261 0311 4D657373 		.ascii	"MessageTimer_ReadPeriodBuf\000"
 3261      61676554 
 3261      696D6572 
 3261      5F526561 
 3261      64506572 
 3262              	.LASF54:
 3263 032c 636F6D70 		.ascii	"compare\000"
 3263      61726500 
 3264              	.LASF11:
 3265 0334 666C6F61 		.ascii	"float\000"
 3265      7400
 3266              	.LASF26:
 3267 033a 70726573 		.ascii	"prescaler\000"
ARM GAS  C:\Users\Sam\AppData\Local\Temp\ccTX1UXg.s 			page 85


 3267      63616C65 
 3267      7200
 3268              	.LASF76:
 3269 0344 474E5520 		.ascii	"GNU C 4.8.4 20140526 (release) [ARM/embedded-4_8-br"
 3269      4320342E 
 3269      382E3420 
 3269      32303134 
 3269      30353236 
 3270 0377 616E6368 		.ascii	"anch revision 211358] -mcpu=cortex-m0 -mthumb -g -O"
 3270      20726576 
 3270      6973696F 
 3270      6E203231 
 3270      31333538 
 3271 03aa 30202D66 		.ascii	"0 -ffunction-sections\000"
 3271      66756E63 
 3271      74696F6E 
 3271      2D736563 
 3271      74696F6E 
 3272              	.LASF65:
 3273 03c0 4D657373 		.ascii	"MessageTimer_SetStopMode\000"
 3273      61676554 
 3273      696D6572 
 3273      5F536574 
 3273      53746F70 
 3274              	.LASF52:
 3275 03d9 4D657373 		.ascii	"MessageTimer_SetPeriodSwap\000"
 3275      61676554 
 3275      696D6572 
 3275      5F536574 
 3275      50657269 
 3276              	.LASF70:
 3277 03f4 4D657373 		.ascii	"MessageTimer_SetInterruptMode\000"
 3277      61676554 
 3277      696D6572 
 3277      5F536574 
 3277      496E7465 
 3278              	.LASF31:
 3279 0412 4D657373 		.ascii	"MessageTimer_SetPWMSyncKill\000"
 3279      61676554 
 3279      696D6572 
 3279      5F536574 
 3279      50574D53 
 3280              	.LASF78:
 3281 042e 433A5C55 		.ascii	"C:\\Users\\Sam\\OneDrive\\Project\\Software\\PSoC S"
 3281      73657273 
 3281      5C53616D 
 3281      5C4F6E65 
 3281      44726976 
 3282 045b 6F667477 		.ascii	"oftware\\PSoC 4 Pioneer Modbus Slave.cydsn\000"
 3282      6172655C 
 3282      50536F43 
 3282      20342050 
 3282      696F6E65 
 3283              	.LASF1:
 3284 0485 756E7369 		.ascii	"unsigned char\000"
 3284      676E6564 
 3284      20636861 
ARM GAS  C:\Users\Sam\AppData\Local\Temp\ccTX1UXg.s 			page 86


 3284      7200
 3285              	.LASF39:
 3286 0493 4D657373 		.ascii	"MessageTimer_WriteCounter\000"
 3286      61676554 
 3286      696D6572 
 3286      5F577269 
 3286      7465436F 
 3287              	.LASF34:
 3288 04ad 73746F70 		.ascii	"stopOnKillEnable\000"
 3288      4F6E4B69 
 3288      6C6C456E 
 3288      61626C65 
 3288      00
 3289              	.LASF2:
 3290 04be 73686F72 		.ascii	"short int\000"
 3290      7420696E 
 3290      7400
 3291              	.LASF74:
 3292 04c8 4D657373 		.ascii	"MessageTimer_ClearInterrupt\000"
 3292      61676554 
 3292      696D6572 
 3292      5F436C65 
 3292      6172496E 
 3293              	.LASF77:
 3294 04e4 2E5C4765 		.ascii	".\\Generated_Source\\PSoC4\\MessageTimer.c\000"
 3294      6E657261 
 3294      7465645F 
 3294      536F7572 
 3294      63655C50 
 3295              	.LASF71:
 3296 050c 696E7465 		.ascii	"interruptMask\000"
 3296      72727570 
 3296      744D6173 
 3296      6B00
 3297              	.LASF19:
 3298 051a 4D657373 		.ascii	"MessageTimer_Stop\000"
 3298      61676554 
 3298      696D6572 
 3298      5F53746F 
 3298      7000
 3299              	.LASF67:
 3300 052c 4D657373 		.ascii	"MessageTimer_TriggerCommand\000"
 3300      61676554 
 3300      696D6572 
 3300      5F547269 
 3300      67676572 
 3301              	.LASF43:
 3302 0548 4D657373 		.ascii	"MessageTimer_WritePeriod\000"
 3302      61676554 
 3302      696D6572 
 3302      5F577269 
 3302      74655065 
 3303              	.LASF13:
 3304 0561 63686172 		.ascii	"char\000"
 3304      00
 3305              	.LASF23:
 3306 0566 6D6F6465 		.ascii	"mode\000"
ARM GAS  C:\Users\Sam\AppData\Local\Temp\ccTX1UXg.s 			page 87


 3306      00
 3307              	.LASF72:
 3308 056b 4D657373 		.ascii	"MessageTimer_GetInterruptSourceMasked\000"
 3308      61676554 
 3308      696D6572 
 3308      5F476574 
 3308      496E7465 
 3309              	.LASF63:
 3310 0591 4D657373 		.ascii	"MessageTimer_SetReloadMode\000"
 3310      61676554 
 3310      696D6572 
 3310      5F536574 
 3310      52656C6F 
 3311              	.LASF37:
 3312 05ac 4D657373 		.ascii	"MessageTimer_SetPWMInvert\000"
 3312      61676554 
 3312      696D6572 
 3312      5F536574 
 3312      50574D49 
 3313              	.LASF69:
 3314 05c6 4D657373 		.ascii	"MessageTimer_ReadStatus\000"
 3314      61676554 
 3314      696D6572 
 3314      5F526561 
 3314      64537461 
 3315              	.LASF42:
 3316 05de 636F756E 		.ascii	"counterMode\000"
 3316      7465724D 
 3316      6F646500 
 3317              	.LASF21:
 3318 05ea 4D657373 		.ascii	"MessageTimer_SetMode\000"
 3318      61676554 
 3318      696D6572 
 3318      5F536574 
 3318      4D6F6465 
 3319              	.LASF20:
 3320 05ff 656E6162 		.ascii	"enableInterrupts\000"
 3320      6C65496E 
 3320      74657272 
 3320      75707473 
 3320      00
 3321              	.LASF59:
 3322 0610 4D657373 		.ascii	"MessageTimer_ReadCapture\000"
 3322      61676554 
 3322      696D6572 
 3322      5F526561 
 3322      64436170 
 3323              	.LASF35:
 3324 0629 4D657373 		.ascii	"MessageTimer_SetPWMDeadTime\000"
 3324      61676554 
 3324      696D6572 
 3324      5F536574 
 3324      50574D44 
 3325              	.LASF48:
 3326 0645 73776170 		.ascii	"swapEnable\000"
 3326      456E6162 
 3326      6C6500
ARM GAS  C:\Users\Sam\AppData\Local\Temp\ccTX1UXg.s 			page 88


 3327              	.LASF22:
 3328 0650 4D657373 		.ascii	"MessageTimer_SetQDMode\000"
 3328      61676554 
 3328      696D6572 
 3328      5F536574 
 3328      51444D6F 
 3329              	.LASF25:
 3330 0667 4D657373 		.ascii	"MessageTimer_SetPrescaler\000"
 3330      61676554 
 3330      696D6572 
 3330      5F536574 
 3330      50726573 
 3331              	.LASF50:
 3332 0681 70657269 		.ascii	"periodBuf\000"
 3332      6F644275 
 3332      6600
 3333              	.LASF46:
 3334 068b 4D657373 		.ascii	"MessageTimer_ReadPeriod\000"
 3334      61676554 
 3334      696D6572 
 3334      5F526561 
 3334      64506572 
 3335              		.ident	"GCC: (GNU Tools for ARM Embedded Processors) 4.8.4 20140526 (release) [ARM/embedded-4_8-br
