ARM GAS  C:\Users\Sam\AppData\Local\Temp\ccTX1UXg.s 			page 1


   1              		.cpu cortex-m0
   2              		.fpu softvfp
   3              		.eabi_attribute 20, 1
   4              		.eabi_attribute 21, 1
   5              		.eabi_attribute 23, 3
   6              		.eabi_attribute 24, 1
   7              		.eabi_attribute 25, 1
   8              		.eabi_attribute 26, 1
   9              		.eabi_attribute 30, 6
  10              		.eabi_attribute 34, 0
  11              		.eabi_attribute 18, 4
  12              		.code	16
  13              		.file	"MessageTimer.c"
  14              		.text
  15              	.Ltext0:
  16              		.cfi_sections	.debug_frame
  17              		.global	MessageTimer_initVar
  18              		.bss
  19              		.type	MessageTimer_initVar, %object
  20              		.size	MessageTimer_initVar, 1
  21              	MessageTimer_initVar:
  22 0000 00       		.space	1
  23              		.section	.text.MessageTimer_Init,"ax",%progbits
  24              		.align	2
  25              		.global	MessageTimer_Init
  26              		.code	16
  27              		.thumb_func
  28              		.type	MessageTimer_Init, %function
  29              	MessageTimer_Init:
  30              	.LFB0:
  31              		.file 1 ".\\Generated_Source\\PSoC4\\MessageTimer.c"
   1:.\Generated_Source\PSoC4/MessageTimer.c **** /*******************************************************************************
   2:.\Generated_Source\PSoC4/MessageTimer.c **** * File Name: MessageTimer.c
   3:.\Generated_Source\PSoC4/MessageTimer.c **** * Version 2.0
   4:.\Generated_Source\PSoC4/MessageTimer.c **** *
   5:.\Generated_Source\PSoC4/MessageTimer.c **** * Description:
   6:.\Generated_Source\PSoC4/MessageTimer.c **** *  This file provides the source code to the API for the MessageTimer
   7:.\Generated_Source\PSoC4/MessageTimer.c **** *  component
   8:.\Generated_Source\PSoC4/MessageTimer.c **** *
   9:.\Generated_Source\PSoC4/MessageTimer.c **** * Note:
  10:.\Generated_Source\PSoC4/MessageTimer.c **** *  None
  11:.\Generated_Source\PSoC4/MessageTimer.c **** *
  12:.\Generated_Source\PSoC4/MessageTimer.c **** ********************************************************************************
  13:.\Generated_Source\PSoC4/MessageTimer.c **** * Copyright 2013-2014, Cypress Semiconductor Corporation.  All rights reserved.
  14:.\Generated_Source\PSoC4/MessageTimer.c **** * You may use this file only in accordance with the license, terms, conditions,
  15:.\Generated_Source\PSoC4/MessageTimer.c **** * disclaimers, and limitations in the end user license agreement accompanying
  16:.\Generated_Source\PSoC4/MessageTimer.c **** * the software package with which this file was provided.
  17:.\Generated_Source\PSoC4/MessageTimer.c **** *******************************************************************************/
  18:.\Generated_Source\PSoC4/MessageTimer.c **** 
  19:.\Generated_Source\PSoC4/MessageTimer.c **** #include "MessageTimer.h"
  20:.\Generated_Source\PSoC4/MessageTimer.c **** 
  21:.\Generated_Source\PSoC4/MessageTimer.c **** uint8 MessageTimer_initVar = 0u;
  22:.\Generated_Source\PSoC4/MessageTimer.c **** 
  23:.\Generated_Source\PSoC4/MessageTimer.c **** 
  24:.\Generated_Source\PSoC4/MessageTimer.c **** /*******************************************************************************
  25:.\Generated_Source\PSoC4/MessageTimer.c **** * Function Name: MessageTimer_Init
  26:.\Generated_Source\PSoC4/MessageTimer.c **** ********************************************************************************
ARM GAS  C:\Users\Sam\AppData\Local\Temp\ccTX1UXg.s 			page 2


  27:.\Generated_Source\PSoC4/MessageTimer.c **** *
  28:.\Generated_Source\PSoC4/MessageTimer.c **** * Summary:
  29:.\Generated_Source\PSoC4/MessageTimer.c **** *  Initialize/Restore default MessageTimer configuration.
  30:.\Generated_Source\PSoC4/MessageTimer.c **** *
  31:.\Generated_Source\PSoC4/MessageTimer.c **** * Parameters:
  32:.\Generated_Source\PSoC4/MessageTimer.c **** *  None
  33:.\Generated_Source\PSoC4/MessageTimer.c **** *
  34:.\Generated_Source\PSoC4/MessageTimer.c **** * Return:
  35:.\Generated_Source\PSoC4/MessageTimer.c **** *  None
  36:.\Generated_Source\PSoC4/MessageTimer.c **** *
  37:.\Generated_Source\PSoC4/MessageTimer.c **** *******************************************************************************/
  38:.\Generated_Source\PSoC4/MessageTimer.c **** void MessageTimer_Init(void)
  39:.\Generated_Source\PSoC4/MessageTimer.c **** {
  32              		.loc 1 39 0
  33              		.cfi_startproc
  34 0000 80B5     		push	{r7, lr}
  35              		.cfi_def_cfa_offset 8
  36              		.cfi_offset 7, -8
  37              		.cfi_offset 14, -4
  38 0002 00AF     		add	r7, sp, #0
  39              		.cfi_def_cfa_register 7
  40:.\Generated_Source\PSoC4/MessageTimer.c **** 
  41:.\Generated_Source\PSoC4/MessageTimer.c ****     /* Set values from customizer to CTRL */
  42:.\Generated_Source\PSoC4/MessageTimer.c ****     #if (MessageTimer__QUAD == MessageTimer_CONFIG)
  43:.\Generated_Source\PSoC4/MessageTimer.c ****         MessageTimer_CONTROL_REG = MessageTimer_CTRL_QUAD_BASE_CONFIG;
  44:.\Generated_Source\PSoC4/MessageTimer.c ****         
  45:.\Generated_Source\PSoC4/MessageTimer.c ****         /* Set values from customizer to CTRL1 */
  46:.\Generated_Source\PSoC4/MessageTimer.c ****         MessageTimer_TRIG_CONTROL1_REG  = MessageTimer_QUAD_SIGNALS_MODES;
  47:.\Generated_Source\PSoC4/MessageTimer.c **** 
  48:.\Generated_Source\PSoC4/MessageTimer.c ****         /* Set values from customizer to INTR */
  49:.\Generated_Source\PSoC4/MessageTimer.c ****         MessageTimer_SetInterruptMode(MessageTimer_QUAD_INTERRUPT_MASK);
  50:.\Generated_Source\PSoC4/MessageTimer.c ****         
  51:.\Generated_Source\PSoC4/MessageTimer.c ****          /* Set other values */
  52:.\Generated_Source\PSoC4/MessageTimer.c ****         MessageTimer_SetCounterMode(MessageTimer_COUNT_DOWN);
  53:.\Generated_Source\PSoC4/MessageTimer.c ****         MessageTimer_WritePeriod(MessageTimer_QUAD_PERIOD_INIT_VALUE);
  54:.\Generated_Source\PSoC4/MessageTimer.c ****         MessageTimer_WriteCounter(MessageTimer_QUAD_PERIOD_INIT_VALUE);
  55:.\Generated_Source\PSoC4/MessageTimer.c ****     #endif  /* (MessageTimer__QUAD == MessageTimer_CONFIG) */
  56:.\Generated_Source\PSoC4/MessageTimer.c **** 
  57:.\Generated_Source\PSoC4/MessageTimer.c ****     #if (MessageTimer__TIMER == MessageTimer_CONFIG)
  58:.\Generated_Source\PSoC4/MessageTimer.c ****         MessageTimer_CONTROL_REG = MessageTimer_CTRL_TIMER_BASE_CONFIG;
  40              		.loc 1 58 0
  41 0004 084B     		ldr	r3, .L2
  42 0006 8122     		mov	r2, #129
  43 0008 9204     		lsl	r2, r2, #18
  44 000a 1A60     		str	r2, [r3]
  59:.\Generated_Source\PSoC4/MessageTimer.c ****         
  60:.\Generated_Source\PSoC4/MessageTimer.c ****         /* Set values from customizer to CTRL1 */
  61:.\Generated_Source\PSoC4/MessageTimer.c ****         MessageTimer_TRIG_CONTROL1_REG  = MessageTimer_TIMER_SIGNALS_MODES;
  45              		.loc 1 61 0
  46 000c 074B     		ldr	r3, .L2+4
  47 000e 0C22     		mov	r2, #12
  48 0010 1A60     		str	r2, [r3]
  62:.\Generated_Source\PSoC4/MessageTimer.c ****     
  63:.\Generated_Source\PSoC4/MessageTimer.c ****         /* Set values from customizer to INTR */
  64:.\Generated_Source\PSoC4/MessageTimer.c ****         MessageTimer_SetInterruptMode(MessageTimer_TC_INTERRUPT_MASK);
  49              		.loc 1 64 0
  50 0012 0120     		mov	r0, #1
ARM GAS  C:\Users\Sam\AppData\Local\Temp\ccTX1UXg.s 			page 3


  51 0014 FFF7FEFF 		bl	MessageTimer_SetInterruptMode
  65:.\Generated_Source\PSoC4/MessageTimer.c ****         
  66:.\Generated_Source\PSoC4/MessageTimer.c ****         /* Set other values from customizer */
  67:.\Generated_Source\PSoC4/MessageTimer.c ****         MessageTimer_WritePeriod(MessageTimer_TC_PERIOD_VALUE );
  52              		.loc 1 67 0
  53 0018 0F20     		mov	r0, #15
  54 001a FFF7FEFF 		bl	MessageTimer_WritePeriod
  68:.\Generated_Source\PSoC4/MessageTimer.c **** 
  69:.\Generated_Source\PSoC4/MessageTimer.c ****         #if (MessageTimer__COMPARE == MessageTimer_TC_COMP_CAP_MODE)
  70:.\Generated_Source\PSoC4/MessageTimer.c ****             MessageTimer_WriteCompare(MessageTimer_TC_COMPARE_VALUE);
  71:.\Generated_Source\PSoC4/MessageTimer.c **** 
  72:.\Generated_Source\PSoC4/MessageTimer.c ****             #if (1u == MessageTimer_TC_COMPARE_SWAP)
  73:.\Generated_Source\PSoC4/MessageTimer.c ****                 MessageTimer_SetCompareSwap(1u);
  74:.\Generated_Source\PSoC4/MessageTimer.c ****                 MessageTimer_WriteCompareBuf(MessageTimer_TC_COMPARE_BUF_VALUE);
  75:.\Generated_Source\PSoC4/MessageTimer.c ****             #endif  /* (1u == MessageTimer_TC_COMPARE_SWAP) */
  76:.\Generated_Source\PSoC4/MessageTimer.c ****         #endif  /* (MessageTimer__COMPARE == MessageTimer_TC_COMP_CAP_MODE) */
  77:.\Generated_Source\PSoC4/MessageTimer.c **** 
  78:.\Generated_Source\PSoC4/MessageTimer.c ****         /* Initialize counter value */
  79:.\Generated_Source\PSoC4/MessageTimer.c ****         #if (MessageTimer_CY_TCPWM_V2 && MessageTimer_TIMER_UPDOWN_CNT_USED && !MessageTimer_CY_TCP
  80:.\Generated_Source\PSoC4/MessageTimer.c ****             MessageTimer_WriteCounter(1u);
  81:.\Generated_Source\PSoC4/MessageTimer.c ****         #elif(MessageTimer__COUNT_DOWN == MessageTimer_TC_COUNTER_MODE)
  82:.\Generated_Source\PSoC4/MessageTimer.c ****             MessageTimer_WriteCounter(MessageTimer_TC_PERIOD_VALUE);
  83:.\Generated_Source\PSoC4/MessageTimer.c ****         #else
  84:.\Generated_Source\PSoC4/MessageTimer.c ****             MessageTimer_WriteCounter(0u);
  55              		.loc 1 84 0
  56 001e 0020     		mov	r0, #0
  57 0020 FFF7FEFF 		bl	MessageTimer_WriteCounter
  85:.\Generated_Source\PSoC4/MessageTimer.c ****         #endif /* (MessageTimer_CY_TCPWM_V2 && MessageTimer_TIMER_UPDOWN_CNT_USED && !MessageTimer_
  86:.\Generated_Source\PSoC4/MessageTimer.c ****     #endif  /* (MessageTimer__TIMER == MessageTimer_CONFIG) */
  87:.\Generated_Source\PSoC4/MessageTimer.c **** 
  88:.\Generated_Source\PSoC4/MessageTimer.c ****     #if (MessageTimer__PWM_SEL == MessageTimer_CONFIG)
  89:.\Generated_Source\PSoC4/MessageTimer.c ****         MessageTimer_CONTROL_REG = MessageTimer_CTRL_PWM_BASE_CONFIG;
  90:.\Generated_Source\PSoC4/MessageTimer.c **** 
  91:.\Generated_Source\PSoC4/MessageTimer.c ****         #if (MessageTimer__PWM_PR == MessageTimer_PWM_MODE)
  92:.\Generated_Source\PSoC4/MessageTimer.c ****             MessageTimer_CONTROL_REG |= MessageTimer_CTRL_PWM_RUN_MODE;
  93:.\Generated_Source\PSoC4/MessageTimer.c ****             MessageTimer_WriteCounter(MessageTimer_PWM_PR_INIT_VALUE);
  94:.\Generated_Source\PSoC4/MessageTimer.c ****         #else
  95:.\Generated_Source\PSoC4/MessageTimer.c ****             MessageTimer_CONTROL_REG |= MessageTimer_CTRL_PWM_ALIGN | MessageTimer_CTRL_PWM_KILL_EV
  96:.\Generated_Source\PSoC4/MessageTimer.c ****             
  97:.\Generated_Source\PSoC4/MessageTimer.c ****             /* Initialize counter value */
  98:.\Generated_Source\PSoC4/MessageTimer.c ****             #if (MessageTimer_CY_TCPWM_V2 && MessageTimer_PWM_UPDOWN_CNT_USED && !MessageTimer_CY_T
  99:.\Generated_Source\PSoC4/MessageTimer.c ****                 MessageTimer_WriteCounter(1u);
 100:.\Generated_Source\PSoC4/MessageTimer.c ****             #elif (MessageTimer__RIGHT == MessageTimer_PWM_ALIGN)
 101:.\Generated_Source\PSoC4/MessageTimer.c ****                 MessageTimer_WriteCounter(MessageTimer_PWM_PERIOD_VALUE);
 102:.\Generated_Source\PSoC4/MessageTimer.c ****             #else 
 103:.\Generated_Source\PSoC4/MessageTimer.c ****                 MessageTimer_WriteCounter(0u);
 104:.\Generated_Source\PSoC4/MessageTimer.c ****             #endif  /* (MessageTimer_CY_TCPWM_V2 && MessageTimer_PWM_UPDOWN_CNT_USED && !MessageTim
 105:.\Generated_Source\PSoC4/MessageTimer.c ****         #endif  /* (MessageTimer__PWM_PR == MessageTimer_PWM_MODE) */
 106:.\Generated_Source\PSoC4/MessageTimer.c **** 
 107:.\Generated_Source\PSoC4/MessageTimer.c ****         #if (MessageTimer__PWM_DT == MessageTimer_PWM_MODE)
 108:.\Generated_Source\PSoC4/MessageTimer.c ****             MessageTimer_CONTROL_REG |= MessageTimer_CTRL_PWM_DEAD_TIME_CYCLE;
 109:.\Generated_Source\PSoC4/MessageTimer.c ****         #endif  /* (MessageTimer__PWM_DT == MessageTimer_PWM_MODE) */
 110:.\Generated_Source\PSoC4/MessageTimer.c **** 
 111:.\Generated_Source\PSoC4/MessageTimer.c ****         #if (MessageTimer__PWM == MessageTimer_PWM_MODE)
 112:.\Generated_Source\PSoC4/MessageTimer.c ****             MessageTimer_CONTROL_REG |= MessageTimer_CTRL_PWM_PRESCALER;
 113:.\Generated_Source\PSoC4/MessageTimer.c ****         #endif  /* (MessageTimer__PWM == MessageTimer_PWM_MODE) */
 114:.\Generated_Source\PSoC4/MessageTimer.c **** 
ARM GAS  C:\Users\Sam\AppData\Local\Temp\ccTX1UXg.s 			page 4


 115:.\Generated_Source\PSoC4/MessageTimer.c ****         /* Set values from customizer to CTRL1 */
 116:.\Generated_Source\PSoC4/MessageTimer.c ****         MessageTimer_TRIG_CONTROL1_REG  = MessageTimer_PWM_SIGNALS_MODES;
 117:.\Generated_Source\PSoC4/MessageTimer.c ****     
 118:.\Generated_Source\PSoC4/MessageTimer.c ****         /* Set values from customizer to INTR */
 119:.\Generated_Source\PSoC4/MessageTimer.c ****         MessageTimer_SetInterruptMode(MessageTimer_PWM_INTERRUPT_MASK);
 120:.\Generated_Source\PSoC4/MessageTimer.c **** 
 121:.\Generated_Source\PSoC4/MessageTimer.c ****         /* Set values from customizer to CTRL2 */
 122:.\Generated_Source\PSoC4/MessageTimer.c ****         #if (MessageTimer__PWM_PR == MessageTimer_PWM_MODE)
 123:.\Generated_Source\PSoC4/MessageTimer.c ****             MessageTimer_TRIG_CONTROL2_REG =
 124:.\Generated_Source\PSoC4/MessageTimer.c ****                     (MessageTimer_CC_MATCH_NO_CHANGE    |
 125:.\Generated_Source\PSoC4/MessageTimer.c ****                     MessageTimer_OVERLOW_NO_CHANGE      |
 126:.\Generated_Source\PSoC4/MessageTimer.c ****                     MessageTimer_UNDERFLOW_NO_CHANGE);
 127:.\Generated_Source\PSoC4/MessageTimer.c ****         #else
 128:.\Generated_Source\PSoC4/MessageTimer.c ****             #if (MessageTimer__LEFT == MessageTimer_PWM_ALIGN)
 129:.\Generated_Source\PSoC4/MessageTimer.c ****                 MessageTimer_TRIG_CONTROL2_REG = MessageTimer_PWM_MODE_LEFT;
 130:.\Generated_Source\PSoC4/MessageTimer.c ****             #endif  /* ( MessageTimer_PWM_LEFT == MessageTimer_PWM_ALIGN) */
 131:.\Generated_Source\PSoC4/MessageTimer.c **** 
 132:.\Generated_Source\PSoC4/MessageTimer.c ****             #if (MessageTimer__RIGHT == MessageTimer_PWM_ALIGN)
 133:.\Generated_Source\PSoC4/MessageTimer.c ****                 MessageTimer_TRIG_CONTROL2_REG = MessageTimer_PWM_MODE_RIGHT;
 134:.\Generated_Source\PSoC4/MessageTimer.c ****             #endif  /* ( MessageTimer_PWM_RIGHT == MessageTimer_PWM_ALIGN) */
 135:.\Generated_Source\PSoC4/MessageTimer.c **** 
 136:.\Generated_Source\PSoC4/MessageTimer.c ****             #if (MessageTimer__CENTER == MessageTimer_PWM_ALIGN)
 137:.\Generated_Source\PSoC4/MessageTimer.c ****                 MessageTimer_TRIG_CONTROL2_REG = MessageTimer_PWM_MODE_CENTER;
 138:.\Generated_Source\PSoC4/MessageTimer.c ****             #endif  /* ( MessageTimer_PWM_CENTER == MessageTimer_PWM_ALIGN) */
 139:.\Generated_Source\PSoC4/MessageTimer.c **** 
 140:.\Generated_Source\PSoC4/MessageTimer.c ****             #if (MessageTimer__ASYMMETRIC == MessageTimer_PWM_ALIGN)
 141:.\Generated_Source\PSoC4/MessageTimer.c ****                 MessageTimer_TRIG_CONTROL2_REG = MessageTimer_PWM_MODE_ASYM;
 142:.\Generated_Source\PSoC4/MessageTimer.c ****             #endif  /* (MessageTimer__ASYMMETRIC == MessageTimer_PWM_ALIGN) */
 143:.\Generated_Source\PSoC4/MessageTimer.c ****         #endif  /* (MessageTimer__PWM_PR == MessageTimer_PWM_MODE) */
 144:.\Generated_Source\PSoC4/MessageTimer.c **** 
 145:.\Generated_Source\PSoC4/MessageTimer.c ****         /* Set other values from customizer */
 146:.\Generated_Source\PSoC4/MessageTimer.c ****         MessageTimer_WritePeriod(MessageTimer_PWM_PERIOD_VALUE );
 147:.\Generated_Source\PSoC4/MessageTimer.c ****         MessageTimer_WriteCompare(MessageTimer_PWM_COMPARE_VALUE);
 148:.\Generated_Source\PSoC4/MessageTimer.c **** 
 149:.\Generated_Source\PSoC4/MessageTimer.c ****         #if (1u == MessageTimer_PWM_COMPARE_SWAP)
 150:.\Generated_Source\PSoC4/MessageTimer.c ****             MessageTimer_SetCompareSwap(1u);
 151:.\Generated_Source\PSoC4/MessageTimer.c ****             MessageTimer_WriteCompareBuf(MessageTimer_PWM_COMPARE_BUF_VALUE);
 152:.\Generated_Source\PSoC4/MessageTimer.c ****         #endif  /* (1u == MessageTimer_PWM_COMPARE_SWAP) */
 153:.\Generated_Source\PSoC4/MessageTimer.c **** 
 154:.\Generated_Source\PSoC4/MessageTimer.c ****         #if (1u == MessageTimer_PWM_PERIOD_SWAP)
 155:.\Generated_Source\PSoC4/MessageTimer.c ****             MessageTimer_SetPeriodSwap(1u);
 156:.\Generated_Source\PSoC4/MessageTimer.c ****             MessageTimer_WritePeriodBuf(MessageTimer_PWM_PERIOD_BUF_VALUE);
 157:.\Generated_Source\PSoC4/MessageTimer.c ****         #endif  /* (1u == MessageTimer_PWM_PERIOD_SWAP) */
 158:.\Generated_Source\PSoC4/MessageTimer.c ****     #endif  /* (MessageTimer__PWM_SEL == MessageTimer_CONFIG) */
 159:.\Generated_Source\PSoC4/MessageTimer.c ****     
 160:.\Generated_Source\PSoC4/MessageTimer.c **** }
  58              		.loc 1 160 0
  59 0024 BD46     		mov	sp, r7
  60              		@ sp needed
  61 0026 80BD     		pop	{r7, pc}
  62              	.L3:
  63              		.align	2
  64              	.L2:
  65 0028 00010540 		.word	1074069760
  66 002c 24010540 		.word	1074069796
  67              		.cfi_endproc
  68              	.LFE0:
ARM GAS  C:\Users\Sam\AppData\Local\Temp\ccTX1UXg.s 			page 5


  69              		.size	MessageTimer_Init, .-MessageTimer_Init
  70              		.section	.text.MessageTimer_Enable,"ax",%progbits
  71              		.align	2
  72              		.global	MessageTimer_Enable
  73              		.code	16
  74              		.thumb_func
  75              		.type	MessageTimer_Enable, %function
  76              	MessageTimer_Enable:
  77              	.LFB1:
 161:.\Generated_Source\PSoC4/MessageTimer.c **** 
 162:.\Generated_Source\PSoC4/MessageTimer.c **** 
 163:.\Generated_Source\PSoC4/MessageTimer.c **** /*******************************************************************************
 164:.\Generated_Source\PSoC4/MessageTimer.c **** * Function Name: MessageTimer_Enable
 165:.\Generated_Source\PSoC4/MessageTimer.c **** ********************************************************************************
 166:.\Generated_Source\PSoC4/MessageTimer.c **** *
 167:.\Generated_Source\PSoC4/MessageTimer.c **** * Summary:
 168:.\Generated_Source\PSoC4/MessageTimer.c **** *  Enables the MessageTimer.
 169:.\Generated_Source\PSoC4/MessageTimer.c **** *
 170:.\Generated_Source\PSoC4/MessageTimer.c **** * Parameters:
 171:.\Generated_Source\PSoC4/MessageTimer.c **** *  None
 172:.\Generated_Source\PSoC4/MessageTimer.c **** *
 173:.\Generated_Source\PSoC4/MessageTimer.c **** * Return:
 174:.\Generated_Source\PSoC4/MessageTimer.c **** *  None
 175:.\Generated_Source\PSoC4/MessageTimer.c **** *
 176:.\Generated_Source\PSoC4/MessageTimer.c **** *******************************************************************************/
 177:.\Generated_Source\PSoC4/MessageTimer.c **** void MessageTimer_Enable(void)
 178:.\Generated_Source\PSoC4/MessageTimer.c **** {
  78              		.loc 1 178 0
  79              		.cfi_startproc
  80 0000 90B5     		push	{r4, r7, lr}
  81              		.cfi_def_cfa_offset 12
  82              		.cfi_offset 4, -12
  83              		.cfi_offset 7, -8
  84              		.cfi_offset 14, -4
  85 0002 83B0     		sub	sp, sp, #12
  86              		.cfi_def_cfa_offset 24
  87 0004 00AF     		add	r7, sp, #0
  88              		.cfi_def_cfa_register 7
 179:.\Generated_Source\PSoC4/MessageTimer.c ****     uint8 enableInterrupts;
 180:.\Generated_Source\PSoC4/MessageTimer.c **** 
 181:.\Generated_Source\PSoC4/MessageTimer.c ****     enableInterrupts = CyEnterCriticalSection();
  89              		.loc 1 181 0
  90 0006 FC1D     		add	r4, r7, #7
  91 0008 FFF7FEFF 		bl	CyEnterCriticalSection
  92 000c 031C     		mov	r3, r0
  93 000e 2370     		strb	r3, [r4]
 182:.\Generated_Source\PSoC4/MessageTimer.c ****     MessageTimer_BLOCK_CONTROL_REG |= MessageTimer_MASK;
  94              		.loc 1 182 0
  95 0010 084B     		ldr	r3, .L5
  96 0012 084A     		ldr	r2, .L5
  97 0014 1268     		ldr	r2, [r2]
  98 0016 0121     		mov	r1, #1
  99 0018 0A43     		orr	r2, r1
 100 001a 1A60     		str	r2, [r3]
 183:.\Generated_Source\PSoC4/MessageTimer.c ****     CyExitCriticalSection(enableInterrupts);
 101              		.loc 1 183 0
 102 001c FB1D     		add	r3, r7, #7
ARM GAS  C:\Users\Sam\AppData\Local\Temp\ccTX1UXg.s 			page 6


 103 001e 1B78     		ldrb	r3, [r3]
 104 0020 181C     		mov	r0, r3
 105 0022 FFF7FEFF 		bl	CyExitCriticalSection
 184:.\Generated_Source\PSoC4/MessageTimer.c **** 
 185:.\Generated_Source\PSoC4/MessageTimer.c ****     /* Start Timer or PWM if start input is absent */
 186:.\Generated_Source\PSoC4/MessageTimer.c ****     #if (MessageTimer__PWM_SEL == MessageTimer_CONFIG)
 187:.\Generated_Source\PSoC4/MessageTimer.c ****         #if (0u == MessageTimer_PWM_START_SIGNAL_PRESENT)
 188:.\Generated_Source\PSoC4/MessageTimer.c ****             MessageTimer_TriggerCommand(MessageTimer_MASK, MessageTimer_CMD_START);
 189:.\Generated_Source\PSoC4/MessageTimer.c ****         #endif /* (0u == MessageTimer_PWM_START_SIGNAL_PRESENT) */
 190:.\Generated_Source\PSoC4/MessageTimer.c ****     #endif /* (MessageTimer__PWM_SEL == MessageTimer_CONFIG) */
 191:.\Generated_Source\PSoC4/MessageTimer.c **** 
 192:.\Generated_Source\PSoC4/MessageTimer.c ****     #if (MessageTimer__TIMER == MessageTimer_CONFIG)
 193:.\Generated_Source\PSoC4/MessageTimer.c ****         #if (0u == MessageTimer_TC_START_SIGNAL_PRESENT)
 194:.\Generated_Source\PSoC4/MessageTimer.c ****             MessageTimer_TriggerCommand(MessageTimer_MASK, MessageTimer_CMD_START);
 106              		.loc 1 194 0
 107 0026 0120     		mov	r0, #1
 108 0028 1821     		mov	r1, #24
 109 002a FFF7FEFF 		bl	MessageTimer_TriggerCommand
 195:.\Generated_Source\PSoC4/MessageTimer.c ****         #endif /* (0u == MessageTimer_TC_START_SIGNAL_PRESENT) */
 196:.\Generated_Source\PSoC4/MessageTimer.c ****     #endif /* (MessageTimer__TIMER == MessageTimer_CONFIG) */
 197:.\Generated_Source\PSoC4/MessageTimer.c **** }
 110              		.loc 1 197 0
 111 002e BD46     		mov	sp, r7
 112 0030 03B0     		add	sp, sp, #12
 113              		@ sp needed
 114 0032 90BD     		pop	{r4, r7, pc}
 115              	.L6:
 116              		.align	2
 117              	.L5:
 118 0034 00000540 		.word	1074069504
 119              		.cfi_endproc
 120              	.LFE1:
 121              		.size	MessageTimer_Enable, .-MessageTimer_Enable
 122              		.section	.text.MessageTimer_Start,"ax",%progbits
 123              		.align	2
 124              		.global	MessageTimer_Start
 125              		.code	16
 126              		.thumb_func
 127              		.type	MessageTimer_Start, %function
 128              	MessageTimer_Start:
 129              	.LFB2:
 198:.\Generated_Source\PSoC4/MessageTimer.c **** 
 199:.\Generated_Source\PSoC4/MessageTimer.c **** 
 200:.\Generated_Source\PSoC4/MessageTimer.c **** /*******************************************************************************
 201:.\Generated_Source\PSoC4/MessageTimer.c **** * Function Name: MessageTimer_Start
 202:.\Generated_Source\PSoC4/MessageTimer.c **** ********************************************************************************
 203:.\Generated_Source\PSoC4/MessageTimer.c **** *
 204:.\Generated_Source\PSoC4/MessageTimer.c **** * Summary:
 205:.\Generated_Source\PSoC4/MessageTimer.c **** *  Initializes the MessageTimer with default customizer
 206:.\Generated_Source\PSoC4/MessageTimer.c **** *  values when called the first time and enables the MessageTimer.
 207:.\Generated_Source\PSoC4/MessageTimer.c **** *  For subsequent calls the configuration is left unchanged and the component is
 208:.\Generated_Source\PSoC4/MessageTimer.c **** *  just enabled.
 209:.\Generated_Source\PSoC4/MessageTimer.c **** *
 210:.\Generated_Source\PSoC4/MessageTimer.c **** * Parameters:
 211:.\Generated_Source\PSoC4/MessageTimer.c **** *  None
 212:.\Generated_Source\PSoC4/MessageTimer.c **** *
 213:.\Generated_Source\PSoC4/MessageTimer.c **** * Return:
ARM GAS  C:\Users\Sam\AppData\Local\Temp\ccTX1UXg.s 			page 7


 214:.\Generated_Source\PSoC4/MessageTimer.c **** *  None
 215:.\Generated_Source\PSoC4/MessageTimer.c **** *
 216:.\Generated_Source\PSoC4/MessageTimer.c **** * Global variables:
 217:.\Generated_Source\PSoC4/MessageTimer.c **** *  MessageTimer_initVar: global variable is used to indicate initial
 218:.\Generated_Source\PSoC4/MessageTimer.c **** *  configuration of this component.  The variable is initialized to zero and set
 219:.\Generated_Source\PSoC4/MessageTimer.c **** *  to 1 the first time MessageTimer_Start() is called. This allows
 220:.\Generated_Source\PSoC4/MessageTimer.c **** *  enabling/disabling a component without re-initialization in all subsequent
 221:.\Generated_Source\PSoC4/MessageTimer.c **** *  calls to the MessageTimer_Start() routine.
 222:.\Generated_Source\PSoC4/MessageTimer.c **** *
 223:.\Generated_Source\PSoC4/MessageTimer.c **** *******************************************************************************/
 224:.\Generated_Source\PSoC4/MessageTimer.c **** void MessageTimer_Start(void)
 225:.\Generated_Source\PSoC4/MessageTimer.c **** {
 130              		.loc 1 225 0
 131              		.cfi_startproc
 132 0000 80B5     		push	{r7, lr}
 133              		.cfi_def_cfa_offset 8
 134              		.cfi_offset 7, -8
 135              		.cfi_offset 14, -4
 136 0002 00AF     		add	r7, sp, #0
 137              		.cfi_def_cfa_register 7
 226:.\Generated_Source\PSoC4/MessageTimer.c ****     if (0u == MessageTimer_initVar)
 138              		.loc 1 226 0
 139 0004 064B     		ldr	r3, .L9
 140 0006 1B78     		ldrb	r3, [r3]
 141 0008 002B     		cmp	r3, #0
 142 000a 04D1     		bne	.L8
 227:.\Generated_Source\PSoC4/MessageTimer.c ****     {
 228:.\Generated_Source\PSoC4/MessageTimer.c ****         MessageTimer_Init();
 143              		.loc 1 228 0
 144 000c FFF7FEFF 		bl	MessageTimer_Init
 229:.\Generated_Source\PSoC4/MessageTimer.c ****         MessageTimer_initVar = 1u;
 145              		.loc 1 229 0
 146 0010 034B     		ldr	r3, .L9
 147 0012 0122     		mov	r2, #1
 148 0014 1A70     		strb	r2, [r3]
 149              	.L8:
 230:.\Generated_Source\PSoC4/MessageTimer.c ****     }
 231:.\Generated_Source\PSoC4/MessageTimer.c **** 
 232:.\Generated_Source\PSoC4/MessageTimer.c ****     MessageTimer_Enable();
 150              		.loc 1 232 0
 151 0016 FFF7FEFF 		bl	MessageTimer_Enable
 233:.\Generated_Source\PSoC4/MessageTimer.c **** }
 152              		.loc 1 233 0
 153 001a BD46     		mov	sp, r7
 154              		@ sp needed
 155 001c 80BD     		pop	{r7, pc}
 156              	.L10:
 157 001e C046     		.align	2
 158              	.L9:
 159 0020 00000000 		.word	MessageTimer_initVar
 160              		.cfi_endproc
 161              	.LFE2:
 162              		.size	MessageTimer_Start, .-MessageTimer_Start
 163              		.section	.text.MessageTimer_Stop,"ax",%progbits
 164              		.align	2
 165              		.global	MessageTimer_Stop
 166              		.code	16
ARM GAS  C:\Users\Sam\AppData\Local\Temp\ccTX1UXg.s 			page 8


 167              		.thumb_func
 168              		.type	MessageTimer_Stop, %function
 169              	MessageTimer_Stop:
 170              	.LFB3:
 234:.\Generated_Source\PSoC4/MessageTimer.c **** 
 235:.\Generated_Source\PSoC4/MessageTimer.c **** 
 236:.\Generated_Source\PSoC4/MessageTimer.c **** /*******************************************************************************
 237:.\Generated_Source\PSoC4/MessageTimer.c **** * Function Name: MessageTimer_Stop
 238:.\Generated_Source\PSoC4/MessageTimer.c **** ********************************************************************************
 239:.\Generated_Source\PSoC4/MessageTimer.c **** *
 240:.\Generated_Source\PSoC4/MessageTimer.c **** * Summary:
 241:.\Generated_Source\PSoC4/MessageTimer.c **** *  Disables the MessageTimer.
 242:.\Generated_Source\PSoC4/MessageTimer.c **** *
 243:.\Generated_Source\PSoC4/MessageTimer.c **** * Parameters:
 244:.\Generated_Source\PSoC4/MessageTimer.c **** *  None
 245:.\Generated_Source\PSoC4/MessageTimer.c **** *
 246:.\Generated_Source\PSoC4/MessageTimer.c **** * Return:
 247:.\Generated_Source\PSoC4/MessageTimer.c **** *  None
 248:.\Generated_Source\PSoC4/MessageTimer.c **** *
 249:.\Generated_Source\PSoC4/MessageTimer.c **** *******************************************************************************/
 250:.\Generated_Source\PSoC4/MessageTimer.c **** void MessageTimer_Stop(void)
 251:.\Generated_Source\PSoC4/MessageTimer.c **** {
 171              		.loc 1 251 0
 172              		.cfi_startproc
 173 0000 90B5     		push	{r4, r7, lr}
 174              		.cfi_def_cfa_offset 12
 175              		.cfi_offset 4, -12
 176              		.cfi_offset 7, -8
 177              		.cfi_offset 14, -4
 178 0002 83B0     		sub	sp, sp, #12
 179              		.cfi_def_cfa_offset 24
 180 0004 00AF     		add	r7, sp, #0
 181              		.cfi_def_cfa_register 7
 252:.\Generated_Source\PSoC4/MessageTimer.c ****     uint8 enableInterrupts;
 253:.\Generated_Source\PSoC4/MessageTimer.c **** 
 254:.\Generated_Source\PSoC4/MessageTimer.c ****     enableInterrupts = CyEnterCriticalSection();
 182              		.loc 1 254 0
 183 0006 FC1D     		add	r4, r7, #7
 184 0008 FFF7FEFF 		bl	CyEnterCriticalSection
 185 000c 031C     		mov	r3, r0
 186 000e 2370     		strb	r3, [r4]
 255:.\Generated_Source\PSoC4/MessageTimer.c **** 
 256:.\Generated_Source\PSoC4/MessageTimer.c ****     MessageTimer_BLOCK_CONTROL_REG &= (uint32)~MessageTimer_MASK;
 187              		.loc 1 256 0
 188 0010 064B     		ldr	r3, .L12
 189 0012 064A     		ldr	r2, .L12
 190 0014 1268     		ldr	r2, [r2]
 191 0016 0121     		mov	r1, #1
 192 0018 8A43     		bic	r2, r1
 193 001a 1A60     		str	r2, [r3]
 257:.\Generated_Source\PSoC4/MessageTimer.c **** 
 258:.\Generated_Source\PSoC4/MessageTimer.c ****     CyExitCriticalSection(enableInterrupts);
 194              		.loc 1 258 0
 195 001c FB1D     		add	r3, r7, #7
 196 001e 1B78     		ldrb	r3, [r3]
 197 0020 181C     		mov	r0, r3
 198 0022 FFF7FEFF 		bl	CyExitCriticalSection
ARM GAS  C:\Users\Sam\AppData\Local\Temp\ccTX1UXg.s 			page 9


 259:.\Generated_Source\PSoC4/MessageTimer.c **** }
 199              		.loc 1 259 0
 200 0026 BD46     		mov	sp, r7
 201 0028 03B0     		add	sp, sp, #12
 202              		@ sp needed
 203 002a 90BD     		pop	{r4, r7, pc}
 204              	.L13:
 205              		.align	2
 206              	.L12:
 207 002c 00000540 		.word	1074069504
 208              		.cfi_endproc
 209              	.LFE3:
 210              		.size	MessageTimer_Stop, .-MessageTimer_Stop
 211              		.section	.text.MessageTimer_SetMode,"ax",%progbits
 212              		.align	2
 213              		.global	MessageTimer_SetMode
 214              		.code	16
 215              		.thumb_func
 216              		.type	MessageTimer_SetMode, %function
 217              	MessageTimer_SetMode:
 218              	.LFB4:
 260:.\Generated_Source\PSoC4/MessageTimer.c **** 
 261:.\Generated_Source\PSoC4/MessageTimer.c **** 
 262:.\Generated_Source\PSoC4/MessageTimer.c **** /*******************************************************************************
 263:.\Generated_Source\PSoC4/MessageTimer.c **** * Function Name: MessageTimer_SetMode
 264:.\Generated_Source\PSoC4/MessageTimer.c **** ********************************************************************************
 265:.\Generated_Source\PSoC4/MessageTimer.c **** *
 266:.\Generated_Source\PSoC4/MessageTimer.c **** * Summary:
 267:.\Generated_Source\PSoC4/MessageTimer.c **** *  Sets the operation mode of the MessageTimer. This function is used when
 268:.\Generated_Source\PSoC4/MessageTimer.c **** *  configured as a generic MessageTimer and the actual mode of operation is
 269:.\Generated_Source\PSoC4/MessageTimer.c **** *  set at runtime. The mode must be set while the component is disabled.
 270:.\Generated_Source\PSoC4/MessageTimer.c **** *
 271:.\Generated_Source\PSoC4/MessageTimer.c **** * Parameters:
 272:.\Generated_Source\PSoC4/MessageTimer.c **** *  mode: Mode for the MessageTimer to operate in
 273:.\Generated_Source\PSoC4/MessageTimer.c **** *   Values:
 274:.\Generated_Source\PSoC4/MessageTimer.c **** *   - MessageTimer_MODE_TIMER_COMPARE - Timer / Counter with
 275:.\Generated_Source\PSoC4/MessageTimer.c **** *                                                 compare capability
 276:.\Generated_Source\PSoC4/MessageTimer.c **** *         - MessageTimer_MODE_TIMER_CAPTURE - Timer / Counter with
 277:.\Generated_Source\PSoC4/MessageTimer.c **** *                                                 capture capability
 278:.\Generated_Source\PSoC4/MessageTimer.c **** *         - MessageTimer_MODE_QUAD - Quadrature decoder
 279:.\Generated_Source\PSoC4/MessageTimer.c **** *         - MessageTimer_MODE_PWM - PWM
 280:.\Generated_Source\PSoC4/MessageTimer.c **** *         - MessageTimer_MODE_PWM_DT - PWM with dead time
 281:.\Generated_Source\PSoC4/MessageTimer.c **** *         - MessageTimer_MODE_PWM_PR - PWM with pseudo random capability
 282:.\Generated_Source\PSoC4/MessageTimer.c **** *
 283:.\Generated_Source\PSoC4/MessageTimer.c **** * Return:
 284:.\Generated_Source\PSoC4/MessageTimer.c **** *  None
 285:.\Generated_Source\PSoC4/MessageTimer.c **** *
 286:.\Generated_Source\PSoC4/MessageTimer.c **** *******************************************************************************/
 287:.\Generated_Source\PSoC4/MessageTimer.c **** void MessageTimer_SetMode(uint32 mode)
 288:.\Generated_Source\PSoC4/MessageTimer.c **** {
 219              		.loc 1 288 0
 220              		.cfi_startproc
 221 0000 90B5     		push	{r4, r7, lr}
 222              		.cfi_def_cfa_offset 12
 223              		.cfi_offset 4, -12
 224              		.cfi_offset 7, -8
 225              		.cfi_offset 14, -4
ARM GAS  C:\Users\Sam\AppData\Local\Temp\ccTX1UXg.s 			page 10


 226 0002 85B0     		sub	sp, sp, #20
 227              		.cfi_def_cfa_offset 32
 228 0004 00AF     		add	r7, sp, #0
 229              		.cfi_def_cfa_register 7
 230 0006 7860     		str	r0, [r7, #4]
 289:.\Generated_Source\PSoC4/MessageTimer.c ****     uint8 enableInterrupts;
 290:.\Generated_Source\PSoC4/MessageTimer.c **** 
 291:.\Generated_Source\PSoC4/MessageTimer.c ****     enableInterrupts = CyEnterCriticalSection();
 231              		.loc 1 291 0
 232 0008 3C1C     		mov	r4, r7
 233 000a 0F34     		add	r4, r4, #15
 234 000c FFF7FEFF 		bl	CyEnterCriticalSection
 235 0010 031C     		mov	r3, r0
 236 0012 2370     		strb	r3, [r4]
 292:.\Generated_Source\PSoC4/MessageTimer.c **** 
 293:.\Generated_Source\PSoC4/MessageTimer.c ****     MessageTimer_CONTROL_REG &= (uint32)~MessageTimer_MODE_MASK;
 237              		.loc 1 293 0
 238 0014 0A4B     		ldr	r3, .L15
 239 0016 0A4A     		ldr	r2, .L15
 240 0018 1168     		ldr	r1, [r2]
 241 001a 0A4A     		ldr	r2, .L15+4
 242 001c 0A40     		and	r2, r1
 243 001e 1A60     		str	r2, [r3]
 294:.\Generated_Source\PSoC4/MessageTimer.c ****     MessageTimer_CONTROL_REG |= mode;
 244              		.loc 1 294 0
 245 0020 074B     		ldr	r3, .L15
 246 0022 074A     		ldr	r2, .L15
 247 0024 1168     		ldr	r1, [r2]
 248 0026 7A68     		ldr	r2, [r7, #4]
 249 0028 0A43     		orr	r2, r1
 250 002a 1A60     		str	r2, [r3]
 295:.\Generated_Source\PSoC4/MessageTimer.c **** 
 296:.\Generated_Source\PSoC4/MessageTimer.c ****     CyExitCriticalSection(enableInterrupts);
 251              		.loc 1 296 0
 252 002c 3B1C     		mov	r3, r7
 253 002e 0F33     		add	r3, r3, #15
 254 0030 1B78     		ldrb	r3, [r3]
 255 0032 181C     		mov	r0, r3
 256 0034 FFF7FEFF 		bl	CyExitCriticalSection
 297:.\Generated_Source\PSoC4/MessageTimer.c **** }
 257              		.loc 1 297 0
 258 0038 BD46     		mov	sp, r7
 259 003a 05B0     		add	sp, sp, #20
 260              		@ sp needed
 261 003c 90BD     		pop	{r4, r7, pc}
 262              	.L16:
 263 003e C046     		.align	2
 264              	.L15:
 265 0040 00010540 		.word	1074069760
 266 0044 FFFFFFF8 		.word	-117440513
 267              		.cfi_endproc
 268              	.LFE4:
 269              		.size	MessageTimer_SetMode, .-MessageTimer_SetMode
 270              		.section	.text.MessageTimer_SetQDMode,"ax",%progbits
 271              		.align	2
 272              		.global	MessageTimer_SetQDMode
 273              		.code	16
ARM GAS  C:\Users\Sam\AppData\Local\Temp\ccTX1UXg.s 			page 11


 274              		.thumb_func
 275              		.type	MessageTimer_SetQDMode, %function
 276              	MessageTimer_SetQDMode:
 277              	.LFB5:
 298:.\Generated_Source\PSoC4/MessageTimer.c **** 
 299:.\Generated_Source\PSoC4/MessageTimer.c **** 
 300:.\Generated_Source\PSoC4/MessageTimer.c **** /*******************************************************************************
 301:.\Generated_Source\PSoC4/MessageTimer.c **** * Function Name: MessageTimer_SetQDMode
 302:.\Generated_Source\PSoC4/MessageTimer.c **** ********************************************************************************
 303:.\Generated_Source\PSoC4/MessageTimer.c **** *
 304:.\Generated_Source\PSoC4/MessageTimer.c **** * Summary:
 305:.\Generated_Source\PSoC4/MessageTimer.c **** *  Sets the the Quadrature Decoder to one of the 3 supported modes.
 306:.\Generated_Source\PSoC4/MessageTimer.c **** *  Its functionality is only applicable to Quadrature Decoder operation.
 307:.\Generated_Source\PSoC4/MessageTimer.c **** *
 308:.\Generated_Source\PSoC4/MessageTimer.c **** * Parameters:
 309:.\Generated_Source\PSoC4/MessageTimer.c **** *  qdMode: Quadrature Decoder mode
 310:.\Generated_Source\PSoC4/MessageTimer.c **** *   Values:
 311:.\Generated_Source\PSoC4/MessageTimer.c **** *         - MessageTimer_MODE_X1 - Counts on phi 1 rising
 312:.\Generated_Source\PSoC4/MessageTimer.c **** *         - MessageTimer_MODE_X2 - Counts on both edges of phi1 (2x faster)
 313:.\Generated_Source\PSoC4/MessageTimer.c **** *         - MessageTimer_MODE_X4 - Counts on both edges of phi1 and phi2
 314:.\Generated_Source\PSoC4/MessageTimer.c **** *                                        (4x faster)
 315:.\Generated_Source\PSoC4/MessageTimer.c **** *
 316:.\Generated_Source\PSoC4/MessageTimer.c **** * Return:
 317:.\Generated_Source\PSoC4/MessageTimer.c **** *  None
 318:.\Generated_Source\PSoC4/MessageTimer.c **** *
 319:.\Generated_Source\PSoC4/MessageTimer.c **** *******************************************************************************/
 320:.\Generated_Source\PSoC4/MessageTimer.c **** void MessageTimer_SetQDMode(uint32 qdMode)
 321:.\Generated_Source\PSoC4/MessageTimer.c **** {
 278              		.loc 1 321 0
 279              		.cfi_startproc
 280 0000 90B5     		push	{r4, r7, lr}
 281              		.cfi_def_cfa_offset 12
 282              		.cfi_offset 4, -12
 283              		.cfi_offset 7, -8
 284              		.cfi_offset 14, -4
 285 0002 85B0     		sub	sp, sp, #20
 286              		.cfi_def_cfa_offset 32
 287 0004 00AF     		add	r7, sp, #0
 288              		.cfi_def_cfa_register 7
 289 0006 7860     		str	r0, [r7, #4]
 322:.\Generated_Source\PSoC4/MessageTimer.c ****     uint8 enableInterrupts;
 323:.\Generated_Source\PSoC4/MessageTimer.c **** 
 324:.\Generated_Source\PSoC4/MessageTimer.c ****     enableInterrupts = CyEnterCriticalSection();
 290              		.loc 1 324 0
 291 0008 3C1C     		mov	r4, r7
 292 000a 0F34     		add	r4, r4, #15
 293 000c FFF7FEFF 		bl	CyEnterCriticalSection
 294 0010 031C     		mov	r3, r0
 295 0012 2370     		strb	r3, [r4]
 325:.\Generated_Source\PSoC4/MessageTimer.c **** 
 326:.\Generated_Source\PSoC4/MessageTimer.c ****     MessageTimer_CONTROL_REG &= (uint32)~MessageTimer_QUAD_MODE_MASK;
 296              		.loc 1 326 0
 297 0014 0A4B     		ldr	r3, .L18
 298 0016 0A4A     		ldr	r2, .L18
 299 0018 1168     		ldr	r1, [r2]
 300 001a 0A4A     		ldr	r2, .L18+4
 301 001c 0A40     		and	r2, r1
ARM GAS  C:\Users\Sam\AppData\Local\Temp\ccTX1UXg.s 			page 12


 302 001e 1A60     		str	r2, [r3]
 327:.\Generated_Source\PSoC4/MessageTimer.c ****     MessageTimer_CONTROL_REG |= qdMode;
 303              		.loc 1 327 0
 304 0020 074B     		ldr	r3, .L18
 305 0022 074A     		ldr	r2, .L18
 306 0024 1168     		ldr	r1, [r2]
 307 0026 7A68     		ldr	r2, [r7, #4]
 308 0028 0A43     		orr	r2, r1
 309 002a 1A60     		str	r2, [r3]
 328:.\Generated_Source\PSoC4/MessageTimer.c **** 
 329:.\Generated_Source\PSoC4/MessageTimer.c ****     CyExitCriticalSection(enableInterrupts);
 310              		.loc 1 329 0
 311 002c 3B1C     		mov	r3, r7
 312 002e 0F33     		add	r3, r3, #15
 313 0030 1B78     		ldrb	r3, [r3]
 314 0032 181C     		mov	r0, r3
 315 0034 FFF7FEFF 		bl	CyExitCriticalSection
 330:.\Generated_Source\PSoC4/MessageTimer.c **** }
 316              		.loc 1 330 0
 317 0038 BD46     		mov	sp, r7
 318 003a 05B0     		add	sp, sp, #20
 319              		@ sp needed
 320 003c 90BD     		pop	{r4, r7, pc}
 321              	.L19:
 322 003e C046     		.align	2
 323              	.L18:
 324 0040 00010540 		.word	1074069760
 325 0044 FFFF8FFF 		.word	-7340033
 326              		.cfi_endproc
 327              	.LFE5:
 328              		.size	MessageTimer_SetQDMode, .-MessageTimer_SetQDMode
 329              		.section	.text.MessageTimer_SetPrescaler,"ax",%progbits
 330              		.align	2
 331              		.global	MessageTimer_SetPrescaler
 332              		.code	16
 333              		.thumb_func
 334              		.type	MessageTimer_SetPrescaler, %function
 335              	MessageTimer_SetPrescaler:
 336              	.LFB6:
 331:.\Generated_Source\PSoC4/MessageTimer.c **** 
 332:.\Generated_Source\PSoC4/MessageTimer.c **** 
 333:.\Generated_Source\PSoC4/MessageTimer.c **** /*******************************************************************************
 334:.\Generated_Source\PSoC4/MessageTimer.c **** * Function Name: MessageTimer_SetPrescaler
 335:.\Generated_Source\PSoC4/MessageTimer.c **** ********************************************************************************
 336:.\Generated_Source\PSoC4/MessageTimer.c **** *
 337:.\Generated_Source\PSoC4/MessageTimer.c **** * Summary:
 338:.\Generated_Source\PSoC4/MessageTimer.c **** *  Sets the prescaler value that is applied to the clock input.  Not applicable
 339:.\Generated_Source\PSoC4/MessageTimer.c **** *  to a PWM with the dead time mode or Quadrature Decoder mode.
 340:.\Generated_Source\PSoC4/MessageTimer.c **** *
 341:.\Generated_Source\PSoC4/MessageTimer.c **** * Parameters:
 342:.\Generated_Source\PSoC4/MessageTimer.c **** *  prescaler: Prescaler divider value
 343:.\Generated_Source\PSoC4/MessageTimer.c **** *   Values:
 344:.\Generated_Source\PSoC4/MessageTimer.c **** *         - MessageTimer_PRESCALE_DIVBY1    - Divide by 1 (no prescaling)
 345:.\Generated_Source\PSoC4/MessageTimer.c **** *         - MessageTimer_PRESCALE_DIVBY2    - Divide by 2
 346:.\Generated_Source\PSoC4/MessageTimer.c **** *         - MessageTimer_PRESCALE_DIVBY4    - Divide by 4
 347:.\Generated_Source\PSoC4/MessageTimer.c **** *         - MessageTimer_PRESCALE_DIVBY8    - Divide by 8
 348:.\Generated_Source\PSoC4/MessageTimer.c **** *         - MessageTimer_PRESCALE_DIVBY16   - Divide by 16
ARM GAS  C:\Users\Sam\AppData\Local\Temp\ccTX1UXg.s 			page 13


 349:.\Generated_Source\PSoC4/MessageTimer.c **** *         - MessageTimer_PRESCALE_DIVBY32   - Divide by 32
 350:.\Generated_Source\PSoC4/MessageTimer.c **** *         - MessageTimer_PRESCALE_DIVBY64   - Divide by 64
 351:.\Generated_Source\PSoC4/MessageTimer.c **** *         - MessageTimer_PRESCALE_DIVBY128  - Divide by 128
 352:.\Generated_Source\PSoC4/MessageTimer.c **** *
 353:.\Generated_Source\PSoC4/MessageTimer.c **** * Return:
 354:.\Generated_Source\PSoC4/MessageTimer.c **** *  None
 355:.\Generated_Source\PSoC4/MessageTimer.c **** *
 356:.\Generated_Source\PSoC4/MessageTimer.c **** *******************************************************************************/
 357:.\Generated_Source\PSoC4/MessageTimer.c **** void MessageTimer_SetPrescaler(uint32 prescaler)
 358:.\Generated_Source\PSoC4/MessageTimer.c **** {
 337              		.loc 1 358 0
 338              		.cfi_startproc
 339 0000 90B5     		push	{r4, r7, lr}
 340              		.cfi_def_cfa_offset 12
 341              		.cfi_offset 4, -12
 342              		.cfi_offset 7, -8
 343              		.cfi_offset 14, -4
 344 0002 85B0     		sub	sp, sp, #20
 345              		.cfi_def_cfa_offset 32
 346 0004 00AF     		add	r7, sp, #0
 347              		.cfi_def_cfa_register 7
 348 0006 7860     		str	r0, [r7, #4]
 359:.\Generated_Source\PSoC4/MessageTimer.c ****     uint8 enableInterrupts;
 360:.\Generated_Source\PSoC4/MessageTimer.c **** 
 361:.\Generated_Source\PSoC4/MessageTimer.c ****     enableInterrupts = CyEnterCriticalSection();
 349              		.loc 1 361 0
 350 0008 3C1C     		mov	r4, r7
 351 000a 0F34     		add	r4, r4, #15
 352 000c FFF7FEFF 		bl	CyEnterCriticalSection
 353 0010 031C     		mov	r3, r0
 354 0012 2370     		strb	r3, [r4]
 362:.\Generated_Source\PSoC4/MessageTimer.c **** 
 363:.\Generated_Source\PSoC4/MessageTimer.c ****     MessageTimer_CONTROL_REG &= (uint32)~MessageTimer_PRESCALER_MASK;
 355              		.loc 1 363 0
 356 0014 0A4B     		ldr	r3, .L21
 357 0016 0A4A     		ldr	r2, .L21
 358 0018 1168     		ldr	r1, [r2]
 359 001a 0A4A     		ldr	r2, .L21+4
 360 001c 0A40     		and	r2, r1
 361 001e 1A60     		str	r2, [r3]
 364:.\Generated_Source\PSoC4/MessageTimer.c ****     MessageTimer_CONTROL_REG |= prescaler;
 362              		.loc 1 364 0
 363 0020 074B     		ldr	r3, .L21
 364 0022 074A     		ldr	r2, .L21
 365 0024 1168     		ldr	r1, [r2]
 366 0026 7A68     		ldr	r2, [r7, #4]
 367 0028 0A43     		orr	r2, r1
 368 002a 1A60     		str	r2, [r3]
 365:.\Generated_Source\PSoC4/MessageTimer.c **** 
 366:.\Generated_Source\PSoC4/MessageTimer.c ****     CyExitCriticalSection(enableInterrupts);
 369              		.loc 1 366 0
 370 002c 3B1C     		mov	r3, r7
 371 002e 0F33     		add	r3, r3, #15
 372 0030 1B78     		ldrb	r3, [r3]
 373 0032 181C     		mov	r0, r3
 374 0034 FFF7FEFF 		bl	CyExitCriticalSection
 367:.\Generated_Source\PSoC4/MessageTimer.c **** }
ARM GAS  C:\Users\Sam\AppData\Local\Temp\ccTX1UXg.s 			page 14


 375              		.loc 1 367 0
 376 0038 BD46     		mov	sp, r7
 377 003a 05B0     		add	sp, sp, #20
 378              		@ sp needed
 379 003c 90BD     		pop	{r4, r7, pc}
 380              	.L22:
 381 003e C046     		.align	2
 382              	.L21:
 383 0040 00010540 		.word	1074069760
 384 0044 FF00FFFF 		.word	-65281
 385              		.cfi_endproc
 386              	.LFE6:
 387              		.size	MessageTimer_SetPrescaler, .-MessageTimer_SetPrescaler
 388              		.section	.text.MessageTimer_SetOneShot,"ax",%progbits
 389              		.align	2
 390              		.global	MessageTimer_SetOneShot
 391              		.code	16
 392              		.thumb_func
 393              		.type	MessageTimer_SetOneShot, %function
 394              	MessageTimer_SetOneShot:
 395              	.LFB7:
 368:.\Generated_Source\PSoC4/MessageTimer.c **** 
 369:.\Generated_Source\PSoC4/MessageTimer.c **** 
 370:.\Generated_Source\PSoC4/MessageTimer.c **** /*******************************************************************************
 371:.\Generated_Source\PSoC4/MessageTimer.c **** * Function Name: MessageTimer_SetOneShot
 372:.\Generated_Source\PSoC4/MessageTimer.c **** ********************************************************************************
 373:.\Generated_Source\PSoC4/MessageTimer.c **** *
 374:.\Generated_Source\PSoC4/MessageTimer.c **** * Summary:
 375:.\Generated_Source\PSoC4/MessageTimer.c **** *  Writes the register that controls whether the MessageTimer runs
 376:.\Generated_Source\PSoC4/MessageTimer.c **** *  continuously or stops when terminal count is reached.  By default the
 377:.\Generated_Source\PSoC4/MessageTimer.c **** *  MessageTimer operates in the continuous mode.
 378:.\Generated_Source\PSoC4/MessageTimer.c **** *
 379:.\Generated_Source\PSoC4/MessageTimer.c **** * Parameters:
 380:.\Generated_Source\PSoC4/MessageTimer.c **** *  oneShotEnable
 381:.\Generated_Source\PSoC4/MessageTimer.c **** *   Values:
 382:.\Generated_Source\PSoC4/MessageTimer.c **** *     - 0 - Continuous
 383:.\Generated_Source\PSoC4/MessageTimer.c **** *     - 1 - Enable One Shot
 384:.\Generated_Source\PSoC4/MessageTimer.c **** *
 385:.\Generated_Source\PSoC4/MessageTimer.c **** * Return:
 386:.\Generated_Source\PSoC4/MessageTimer.c **** *  None
 387:.\Generated_Source\PSoC4/MessageTimer.c **** *
 388:.\Generated_Source\PSoC4/MessageTimer.c **** *******************************************************************************/
 389:.\Generated_Source\PSoC4/MessageTimer.c **** void MessageTimer_SetOneShot(uint32 oneShotEnable)
 390:.\Generated_Source\PSoC4/MessageTimer.c **** {
 396              		.loc 1 390 0
 397              		.cfi_startproc
 398 0000 90B5     		push	{r4, r7, lr}
 399              		.cfi_def_cfa_offset 12
 400              		.cfi_offset 4, -12
 401              		.cfi_offset 7, -8
 402              		.cfi_offset 14, -4
 403 0002 85B0     		sub	sp, sp, #20
 404              		.cfi_def_cfa_offset 32
 405 0004 00AF     		add	r7, sp, #0
 406              		.cfi_def_cfa_register 7
 407 0006 7860     		str	r0, [r7, #4]
 391:.\Generated_Source\PSoC4/MessageTimer.c ****     uint8 enableInterrupts;
ARM GAS  C:\Users\Sam\AppData\Local\Temp\ccTX1UXg.s 			page 15


 392:.\Generated_Source\PSoC4/MessageTimer.c **** 
 393:.\Generated_Source\PSoC4/MessageTimer.c ****     enableInterrupts = CyEnterCriticalSection();
 408              		.loc 1 393 0
 409 0008 3C1C     		mov	r4, r7
 410 000a 0F34     		add	r4, r4, #15
 411 000c FFF7FEFF 		bl	CyEnterCriticalSection
 412 0010 031C     		mov	r3, r0
 413 0012 2370     		strb	r3, [r4]
 394:.\Generated_Source\PSoC4/MessageTimer.c **** 
 395:.\Generated_Source\PSoC4/MessageTimer.c ****     MessageTimer_CONTROL_REG &= (uint32)~MessageTimer_ONESHOT_MASK;
 414              		.loc 1 395 0
 415 0014 0B4B     		ldr	r3, .L24
 416 0016 0B4A     		ldr	r2, .L24
 417 0018 1168     		ldr	r1, [r2]
 418 001a 0B4A     		ldr	r2, .L24+4
 419 001c 0A40     		and	r2, r1
 420 001e 1A60     		str	r2, [r3]
 396:.\Generated_Source\PSoC4/MessageTimer.c ****     MessageTimer_CONTROL_REG |= ((uint32)((oneShotEnable & MessageTimer_1BIT_MASK) <<
 421              		.loc 1 396 0
 422 0020 084B     		ldr	r3, .L24
 423 0022 084A     		ldr	r2, .L24
 424 0024 1168     		ldr	r1, [r2]
 425 0026 7868     		ldr	r0, [r7, #4]
 426 0028 0122     		mov	r2, #1
 427 002a 0240     		and	r2, r0
 428 002c 9204     		lsl	r2, r2, #18
 429 002e 0A43     		orr	r2, r1
 430 0030 1A60     		str	r2, [r3]
 397:.\Generated_Source\PSoC4/MessageTimer.c ****                                                                MessageTimer_ONESHOT_SHIFT));
 398:.\Generated_Source\PSoC4/MessageTimer.c **** 
 399:.\Generated_Source\PSoC4/MessageTimer.c ****     CyExitCriticalSection(enableInterrupts);
 431              		.loc 1 399 0
 432 0032 3B1C     		mov	r3, r7
 433 0034 0F33     		add	r3, r3, #15
 434 0036 1B78     		ldrb	r3, [r3]
 435 0038 181C     		mov	r0, r3
 436 003a FFF7FEFF 		bl	CyExitCriticalSection
 400:.\Generated_Source\PSoC4/MessageTimer.c **** }
 437              		.loc 1 400 0
 438 003e BD46     		mov	sp, r7
 439 0040 05B0     		add	sp, sp, #20
 440              		@ sp needed
 441 0042 90BD     		pop	{r4, r7, pc}
 442              	.L25:
 443              		.align	2
 444              	.L24:
 445 0044 00010540 		.word	1074069760
 446 0048 FFFFFBFF 		.word	-262145
 447              		.cfi_endproc
 448              	.LFE7:
 449              		.size	MessageTimer_SetOneShot, .-MessageTimer_SetOneShot
 450              		.section	.text.MessageTimer_SetPWMMode,"ax",%progbits
 451              		.align	2
 452              		.global	MessageTimer_SetPWMMode
 453              		.code	16
 454              		.thumb_func
 455              		.type	MessageTimer_SetPWMMode, %function
ARM GAS  C:\Users\Sam\AppData\Local\Temp\ccTX1UXg.s 			page 16


 456              	MessageTimer_SetPWMMode:
 457              	.LFB8:
 401:.\Generated_Source\PSoC4/MessageTimer.c **** 
 402:.\Generated_Source\PSoC4/MessageTimer.c **** 
 403:.\Generated_Source\PSoC4/MessageTimer.c **** /*******************************************************************************
 404:.\Generated_Source\PSoC4/MessageTimer.c **** * Function Name: MessageTimer_SetPWMMode
 405:.\Generated_Source\PSoC4/MessageTimer.c **** ********************************************************************************
 406:.\Generated_Source\PSoC4/MessageTimer.c **** *
 407:.\Generated_Source\PSoC4/MessageTimer.c **** * Summary:
 408:.\Generated_Source\PSoC4/MessageTimer.c **** *  Writes the control register that determines what mode of operation the PWM
 409:.\Generated_Source\PSoC4/MessageTimer.c **** *  output lines are driven in.  There is a setting for what to do on a
 410:.\Generated_Source\PSoC4/MessageTimer.c **** *  comparison match (CC_MATCH), on an overflow (OVERFLOW) and on an underflow
 411:.\Generated_Source\PSoC4/MessageTimer.c **** *  (UNDERFLOW).  The value for each of the three must be ORed together to form
 412:.\Generated_Source\PSoC4/MessageTimer.c **** *  the mode.
 413:.\Generated_Source\PSoC4/MessageTimer.c **** *
 414:.\Generated_Source\PSoC4/MessageTimer.c **** * Parameters:
 415:.\Generated_Source\PSoC4/MessageTimer.c **** *  modeMask: A combination of three mode settings.  Mask must include a value
 416:.\Generated_Source\PSoC4/MessageTimer.c **** *  for each of the three or use one of the preconfigured PWM settings.
 417:.\Generated_Source\PSoC4/MessageTimer.c **** *   Values:
 418:.\Generated_Source\PSoC4/MessageTimer.c **** *     - CC_MATCH_SET        - Set on comparison match
 419:.\Generated_Source\PSoC4/MessageTimer.c **** *     - CC_MATCH_CLEAR      - Clear on comparison match
 420:.\Generated_Source\PSoC4/MessageTimer.c **** *     - CC_MATCH_INVERT     - Invert on comparison match
 421:.\Generated_Source\PSoC4/MessageTimer.c **** *     - CC_MATCH_NO_CHANGE  - No change on comparison match
 422:.\Generated_Source\PSoC4/MessageTimer.c **** *     - OVERLOW_SET         - Set on overflow
 423:.\Generated_Source\PSoC4/MessageTimer.c **** *     - OVERLOW_CLEAR       - Clear on  overflow
 424:.\Generated_Source\PSoC4/MessageTimer.c **** *     - OVERLOW_INVERT      - Invert on overflow
 425:.\Generated_Source\PSoC4/MessageTimer.c **** *     - OVERLOW_NO_CHANGE   - No change on overflow
 426:.\Generated_Source\PSoC4/MessageTimer.c **** *     - UNDERFLOW_SET       - Set on underflow
 427:.\Generated_Source\PSoC4/MessageTimer.c **** *     - UNDERFLOW_CLEAR     - Clear on underflow
 428:.\Generated_Source\PSoC4/MessageTimer.c **** *     - UNDERFLOW_INVERT    - Invert on underflow
 429:.\Generated_Source\PSoC4/MessageTimer.c **** *     - UNDERFLOW_NO_CHANGE - No change on underflow
 430:.\Generated_Source\PSoC4/MessageTimer.c **** *     - PWM_MODE_LEFT       - Setting for left aligned PWM.  Should be combined
 431:.\Generated_Source\PSoC4/MessageTimer.c **** *                             with up counting mode
 432:.\Generated_Source\PSoC4/MessageTimer.c **** *     - PWM_MODE_RIGHT      - Setting for right aligned PWM.  Should be combined
 433:.\Generated_Source\PSoC4/MessageTimer.c **** *                             with down counting mode
 434:.\Generated_Source\PSoC4/MessageTimer.c **** *     - PWM_MODE_CENTER     - Setting for center aligned PWM.  Should be
 435:.\Generated_Source\PSoC4/MessageTimer.c **** *                             combined with up/down 0 mode
 436:.\Generated_Source\PSoC4/MessageTimer.c **** *     - PWM_MODE_ASYM       - Setting for asymmetric PWM.  Should be combined
 437:.\Generated_Source\PSoC4/MessageTimer.c **** *                             with up/down 1 mode
 438:.\Generated_Source\PSoC4/MessageTimer.c **** *
 439:.\Generated_Source\PSoC4/MessageTimer.c **** * Return:
 440:.\Generated_Source\PSoC4/MessageTimer.c **** *  None
 441:.\Generated_Source\PSoC4/MessageTimer.c **** *
 442:.\Generated_Source\PSoC4/MessageTimer.c **** *******************************************************************************/
 443:.\Generated_Source\PSoC4/MessageTimer.c **** void MessageTimer_SetPWMMode(uint32 modeMask)
 444:.\Generated_Source\PSoC4/MessageTimer.c **** {
 458              		.loc 1 444 0
 459              		.cfi_startproc
 460 0000 80B5     		push	{r7, lr}
 461              		.cfi_def_cfa_offset 8
 462              		.cfi_offset 7, -8
 463              		.cfi_offset 14, -4
 464 0002 82B0     		sub	sp, sp, #8
 465              		.cfi_def_cfa_offset 16
 466 0004 00AF     		add	r7, sp, #0
 467              		.cfi_def_cfa_register 7
 468 0006 7860     		str	r0, [r7, #4]
ARM GAS  C:\Users\Sam\AppData\Local\Temp\ccTX1UXg.s 			page 17


 445:.\Generated_Source\PSoC4/MessageTimer.c ****     MessageTimer_TRIG_CONTROL2_REG = (modeMask & MessageTimer_6BIT_MASK);
 469              		.loc 1 445 0
 470 0008 034B     		ldr	r3, .L27
 471 000a 7968     		ldr	r1, [r7, #4]
 472 000c 3F22     		mov	r2, #63
 473 000e 0A40     		and	r2, r1
 474 0010 1A60     		str	r2, [r3]
 446:.\Generated_Source\PSoC4/MessageTimer.c **** }
 475              		.loc 1 446 0
 476 0012 BD46     		mov	sp, r7
 477 0014 02B0     		add	sp, sp, #8
 478              		@ sp needed
 479 0016 80BD     		pop	{r7, pc}
 480              	.L28:
 481              		.align	2
 482              	.L27:
 483 0018 28010540 		.word	1074069800
 484              		.cfi_endproc
 485              	.LFE8:
 486              		.size	MessageTimer_SetPWMMode, .-MessageTimer_SetPWMMode
 487              		.section	.text.MessageTimer_SetPWMSyncKill,"ax",%progbits
 488              		.align	2
 489              		.global	MessageTimer_SetPWMSyncKill
 490              		.code	16
 491              		.thumb_func
 492              		.type	MessageTimer_SetPWMSyncKill, %function
 493              	MessageTimer_SetPWMSyncKill:
 494              	.LFB9:
 447:.\Generated_Source\PSoC4/MessageTimer.c **** 
 448:.\Generated_Source\PSoC4/MessageTimer.c **** 
 449:.\Generated_Source\PSoC4/MessageTimer.c **** 
 450:.\Generated_Source\PSoC4/MessageTimer.c **** /*******************************************************************************
 451:.\Generated_Source\PSoC4/MessageTimer.c **** * Function Name: MessageTimer_SetPWMSyncKill
 452:.\Generated_Source\PSoC4/MessageTimer.c **** ********************************************************************************
 453:.\Generated_Source\PSoC4/MessageTimer.c **** *
 454:.\Generated_Source\PSoC4/MessageTimer.c **** * Summary:
 455:.\Generated_Source\PSoC4/MessageTimer.c **** *  Writes the register that controls whether the PWM kill signal (stop input)
 456:.\Generated_Source\PSoC4/MessageTimer.c **** *  causes asynchronous or synchronous kill operation.  By default the kill
 457:.\Generated_Source\PSoC4/MessageTimer.c **** *  operation is asynchronous.  This functionality is only applicable to the PWM
 458:.\Generated_Source\PSoC4/MessageTimer.c **** *  and PWM with dead time modes.
 459:.\Generated_Source\PSoC4/MessageTimer.c **** *
 460:.\Generated_Source\PSoC4/MessageTimer.c **** *  For Synchronous mode the kill signal disables both the line and line_n
 461:.\Generated_Source\PSoC4/MessageTimer.c **** *  signals until the next terminal count.
 462:.\Generated_Source\PSoC4/MessageTimer.c **** *
 463:.\Generated_Source\PSoC4/MessageTimer.c **** *  For Asynchronous mode the kill signal disables both the line and line_n
 464:.\Generated_Source\PSoC4/MessageTimer.c **** *  signals when the kill signal is present.  This mode should only be used
 465:.\Generated_Source\PSoC4/MessageTimer.c **** *  when the kill signal (stop input) is configured in the pass through mode
 466:.\Generated_Source\PSoC4/MessageTimer.c **** *  (Level sensitive signal).
 467:.\Generated_Source\PSoC4/MessageTimer.c **** 
 468:.\Generated_Source\PSoC4/MessageTimer.c **** *
 469:.\Generated_Source\PSoC4/MessageTimer.c **** * Parameters:
 470:.\Generated_Source\PSoC4/MessageTimer.c **** *  syncKillEnable
 471:.\Generated_Source\PSoC4/MessageTimer.c **** *   Values:
 472:.\Generated_Source\PSoC4/MessageTimer.c **** *     - 0 - Asynchronous
 473:.\Generated_Source\PSoC4/MessageTimer.c **** *     - 1 - Synchronous
 474:.\Generated_Source\PSoC4/MessageTimer.c **** *
 475:.\Generated_Source\PSoC4/MessageTimer.c **** * Return:
ARM GAS  C:\Users\Sam\AppData\Local\Temp\ccTX1UXg.s 			page 18


 476:.\Generated_Source\PSoC4/MessageTimer.c **** *  None
 477:.\Generated_Source\PSoC4/MessageTimer.c **** *
 478:.\Generated_Source\PSoC4/MessageTimer.c **** *******************************************************************************/
 479:.\Generated_Source\PSoC4/MessageTimer.c **** void MessageTimer_SetPWMSyncKill(uint32 syncKillEnable)
 480:.\Generated_Source\PSoC4/MessageTimer.c **** {
 495              		.loc 1 480 0
 496              		.cfi_startproc
 497 0000 90B5     		push	{r4, r7, lr}
 498              		.cfi_def_cfa_offset 12
 499              		.cfi_offset 4, -12
 500              		.cfi_offset 7, -8
 501              		.cfi_offset 14, -4
 502 0002 85B0     		sub	sp, sp, #20
 503              		.cfi_def_cfa_offset 32
 504 0004 00AF     		add	r7, sp, #0
 505              		.cfi_def_cfa_register 7
 506 0006 7860     		str	r0, [r7, #4]
 481:.\Generated_Source\PSoC4/MessageTimer.c ****     uint8 enableInterrupts;
 482:.\Generated_Source\PSoC4/MessageTimer.c **** 
 483:.\Generated_Source\PSoC4/MessageTimer.c ****     enableInterrupts = CyEnterCriticalSection();
 507              		.loc 1 483 0
 508 0008 3C1C     		mov	r4, r7
 509 000a 0F34     		add	r4, r4, #15
 510 000c FFF7FEFF 		bl	CyEnterCriticalSection
 511 0010 031C     		mov	r3, r0
 512 0012 2370     		strb	r3, [r4]
 484:.\Generated_Source\PSoC4/MessageTimer.c **** 
 485:.\Generated_Source\PSoC4/MessageTimer.c ****     MessageTimer_CONTROL_REG &= (uint32)~MessageTimer_PWM_SYNC_KILL_MASK;
 513              		.loc 1 485 0
 514 0014 0B4B     		ldr	r3, .L30
 515 0016 0B4A     		ldr	r2, .L30
 516 0018 1268     		ldr	r2, [r2]
 517 001a 0421     		mov	r1, #4
 518 001c 8A43     		bic	r2, r1
 519 001e 1A60     		str	r2, [r3]
 486:.\Generated_Source\PSoC4/MessageTimer.c ****     MessageTimer_CONTROL_REG |= ((uint32)((syncKillEnable & MessageTimer_1BIT_MASK)  <<
 520              		.loc 1 486 0
 521 0020 084B     		ldr	r3, .L30
 522 0022 084A     		ldr	r2, .L30
 523 0024 1168     		ldr	r1, [r2]
 524 0026 7868     		ldr	r0, [r7, #4]
 525 0028 0122     		mov	r2, #1
 526 002a 0240     		and	r2, r0
 527 002c 9200     		lsl	r2, r2, #2
 528 002e 0A43     		orr	r2, r1
 529 0030 1A60     		str	r2, [r3]
 487:.\Generated_Source\PSoC4/MessageTimer.c ****                                                MessageTimer_PWM_SYNC_KILL_SHIFT));
 488:.\Generated_Source\PSoC4/MessageTimer.c **** 
 489:.\Generated_Source\PSoC4/MessageTimer.c ****     CyExitCriticalSection(enableInterrupts);
 530              		.loc 1 489 0
 531 0032 3B1C     		mov	r3, r7
 532 0034 0F33     		add	r3, r3, #15
 533 0036 1B78     		ldrb	r3, [r3]
 534 0038 181C     		mov	r0, r3
 535 003a FFF7FEFF 		bl	CyExitCriticalSection
 490:.\Generated_Source\PSoC4/MessageTimer.c **** }
 536              		.loc 1 490 0
ARM GAS  C:\Users\Sam\AppData\Local\Temp\ccTX1UXg.s 			page 19


 537 003e BD46     		mov	sp, r7
 538 0040 05B0     		add	sp, sp, #20
 539              		@ sp needed
 540 0042 90BD     		pop	{r4, r7, pc}
 541              	.L31:
 542              		.align	2
 543              	.L30:
 544 0044 00010540 		.word	1074069760
 545              		.cfi_endproc
 546              	.LFE9:
 547              		.size	MessageTimer_SetPWMSyncKill, .-MessageTimer_SetPWMSyncKill
 548              		.section	.text.MessageTimer_SetPWMStopOnKill,"ax",%progbits
 549              		.align	2
 550              		.global	MessageTimer_SetPWMStopOnKill
 551              		.code	16
 552              		.thumb_func
 553              		.type	MessageTimer_SetPWMStopOnKill, %function
 554              	MessageTimer_SetPWMStopOnKill:
 555              	.LFB10:
 491:.\Generated_Source\PSoC4/MessageTimer.c **** 
 492:.\Generated_Source\PSoC4/MessageTimer.c **** 
 493:.\Generated_Source\PSoC4/MessageTimer.c **** /*******************************************************************************
 494:.\Generated_Source\PSoC4/MessageTimer.c **** * Function Name: MessageTimer_SetPWMStopOnKill
 495:.\Generated_Source\PSoC4/MessageTimer.c **** ********************************************************************************
 496:.\Generated_Source\PSoC4/MessageTimer.c **** *
 497:.\Generated_Source\PSoC4/MessageTimer.c **** * Summary:
 498:.\Generated_Source\PSoC4/MessageTimer.c **** *  Writes the register that controls whether the PWM kill signal (stop input)
 499:.\Generated_Source\PSoC4/MessageTimer.c **** *  causes the PWM counter to stop.  By default the kill operation does not stop
 500:.\Generated_Source\PSoC4/MessageTimer.c **** *  the counter.  This functionality is only applicable to the three PWM modes.
 501:.\Generated_Source\PSoC4/MessageTimer.c **** *
 502:.\Generated_Source\PSoC4/MessageTimer.c **** *
 503:.\Generated_Source\PSoC4/MessageTimer.c **** * Parameters:
 504:.\Generated_Source\PSoC4/MessageTimer.c **** *  stopOnKillEnable
 505:.\Generated_Source\PSoC4/MessageTimer.c **** *   Values:
 506:.\Generated_Source\PSoC4/MessageTimer.c **** *     - 0 - Don't stop
 507:.\Generated_Source\PSoC4/MessageTimer.c **** *     - 1 - Stop
 508:.\Generated_Source\PSoC4/MessageTimer.c **** *
 509:.\Generated_Source\PSoC4/MessageTimer.c **** * Return:
 510:.\Generated_Source\PSoC4/MessageTimer.c **** *  None
 511:.\Generated_Source\PSoC4/MessageTimer.c **** *
 512:.\Generated_Source\PSoC4/MessageTimer.c **** *******************************************************************************/
 513:.\Generated_Source\PSoC4/MessageTimer.c **** void MessageTimer_SetPWMStopOnKill(uint32 stopOnKillEnable)
 514:.\Generated_Source\PSoC4/MessageTimer.c **** {
 556              		.loc 1 514 0
 557              		.cfi_startproc
 558 0000 90B5     		push	{r4, r7, lr}
 559              		.cfi_def_cfa_offset 12
 560              		.cfi_offset 4, -12
 561              		.cfi_offset 7, -8
 562              		.cfi_offset 14, -4
 563 0002 85B0     		sub	sp, sp, #20
 564              		.cfi_def_cfa_offset 32
 565 0004 00AF     		add	r7, sp, #0
 566              		.cfi_def_cfa_register 7
 567 0006 7860     		str	r0, [r7, #4]
 515:.\Generated_Source\PSoC4/MessageTimer.c ****     uint8 enableInterrupts;
 516:.\Generated_Source\PSoC4/MessageTimer.c **** 
ARM GAS  C:\Users\Sam\AppData\Local\Temp\ccTX1UXg.s 			page 20


 517:.\Generated_Source\PSoC4/MessageTimer.c ****     enableInterrupts = CyEnterCriticalSection();
 568              		.loc 1 517 0
 569 0008 3C1C     		mov	r4, r7
 570 000a 0F34     		add	r4, r4, #15
 571 000c FFF7FEFF 		bl	CyEnterCriticalSection
 572 0010 031C     		mov	r3, r0
 573 0012 2370     		strb	r3, [r4]
 518:.\Generated_Source\PSoC4/MessageTimer.c **** 
 519:.\Generated_Source\PSoC4/MessageTimer.c ****     MessageTimer_CONTROL_REG &= (uint32)~MessageTimer_PWM_STOP_KILL_MASK;
 574              		.loc 1 519 0
 575 0014 0B4B     		ldr	r3, .L33
 576 0016 0B4A     		ldr	r2, .L33
 577 0018 1268     		ldr	r2, [r2]
 578 001a 0821     		mov	r1, #8
 579 001c 8A43     		bic	r2, r1
 580 001e 1A60     		str	r2, [r3]
 520:.\Generated_Source\PSoC4/MessageTimer.c ****     MessageTimer_CONTROL_REG |= ((uint32)((stopOnKillEnable & MessageTimer_1BIT_MASK)  <<
 581              		.loc 1 520 0
 582 0020 084B     		ldr	r3, .L33
 583 0022 084A     		ldr	r2, .L33
 584 0024 1168     		ldr	r1, [r2]
 585 0026 7868     		ldr	r0, [r7, #4]
 586 0028 0122     		mov	r2, #1
 587 002a 0240     		and	r2, r0
 588 002c D200     		lsl	r2, r2, #3
 589 002e 0A43     		orr	r2, r1
 590 0030 1A60     		str	r2, [r3]
 521:.\Generated_Source\PSoC4/MessageTimer.c ****                                                          MessageTimer_PWM_STOP_KILL_SHIFT));
 522:.\Generated_Source\PSoC4/MessageTimer.c **** 
 523:.\Generated_Source\PSoC4/MessageTimer.c ****     CyExitCriticalSection(enableInterrupts);
 591              		.loc 1 523 0
 592 0032 3B1C     		mov	r3, r7
 593 0034 0F33     		add	r3, r3, #15
 594 0036 1B78     		ldrb	r3, [r3]
 595 0038 181C     		mov	r0, r3
 596 003a FFF7FEFF 		bl	CyExitCriticalSection
 524:.\Generated_Source\PSoC4/MessageTimer.c **** }
 597              		.loc 1 524 0
 598 003e BD46     		mov	sp, r7
 599 0040 05B0     		add	sp, sp, #20
 600              		@ sp needed
 601 0042 90BD     		pop	{r4, r7, pc}
 602              	.L34:
 603              		.align	2
 604              	.L33:
 605 0044 00010540 		.word	1074069760
 606              		.cfi_endproc
 607              	.LFE10:
 608              		.size	MessageTimer_SetPWMStopOnKill, .-MessageTimer_SetPWMStopOnKill
 609              		.section	.text.MessageTimer_SetPWMDeadTime,"ax",%progbits
 610              		.align	2
 611              		.global	MessageTimer_SetPWMDeadTime
 612              		.code	16
 613              		.thumb_func
 614              		.type	MessageTimer_SetPWMDeadTime, %function
 615              	MessageTimer_SetPWMDeadTime:
 616              	.LFB11:
ARM GAS  C:\Users\Sam\AppData\Local\Temp\ccTX1UXg.s 			page 21


 525:.\Generated_Source\PSoC4/MessageTimer.c **** 
 526:.\Generated_Source\PSoC4/MessageTimer.c **** 
 527:.\Generated_Source\PSoC4/MessageTimer.c **** /*******************************************************************************
 528:.\Generated_Source\PSoC4/MessageTimer.c **** * Function Name: MessageTimer_SetPWMDeadTime
 529:.\Generated_Source\PSoC4/MessageTimer.c **** ********************************************************************************
 530:.\Generated_Source\PSoC4/MessageTimer.c **** *
 531:.\Generated_Source\PSoC4/MessageTimer.c **** * Summary:
 532:.\Generated_Source\PSoC4/MessageTimer.c **** *  Writes the dead time control value.  This value delays the rising edge of
 533:.\Generated_Source\PSoC4/MessageTimer.c **** *  both the line and line_n signals the designated number of cycles resulting
 534:.\Generated_Source\PSoC4/MessageTimer.c **** *  in both signals being inactive for that many cycles.  This functionality is
 535:.\Generated_Source\PSoC4/MessageTimer.c **** *  only applicable to the PWM in the dead time mode.
 536:.\Generated_Source\PSoC4/MessageTimer.c **** 
 537:.\Generated_Source\PSoC4/MessageTimer.c **** *
 538:.\Generated_Source\PSoC4/MessageTimer.c **** * Parameters:
 539:.\Generated_Source\PSoC4/MessageTimer.c **** *  Dead time to insert
 540:.\Generated_Source\PSoC4/MessageTimer.c **** *   Values: 0 to 255
 541:.\Generated_Source\PSoC4/MessageTimer.c **** *
 542:.\Generated_Source\PSoC4/MessageTimer.c **** * Return:
 543:.\Generated_Source\PSoC4/MessageTimer.c **** *  None
 544:.\Generated_Source\PSoC4/MessageTimer.c **** *
 545:.\Generated_Source\PSoC4/MessageTimer.c **** *******************************************************************************/
 546:.\Generated_Source\PSoC4/MessageTimer.c **** void MessageTimer_SetPWMDeadTime(uint32 deadTime)
 547:.\Generated_Source\PSoC4/MessageTimer.c **** {
 617              		.loc 1 547 0
 618              		.cfi_startproc
 619 0000 90B5     		push	{r4, r7, lr}
 620              		.cfi_def_cfa_offset 12
 621              		.cfi_offset 4, -12
 622              		.cfi_offset 7, -8
 623              		.cfi_offset 14, -4
 624 0002 85B0     		sub	sp, sp, #20
 625              		.cfi_def_cfa_offset 32
 626 0004 00AF     		add	r7, sp, #0
 627              		.cfi_def_cfa_register 7
 628 0006 7860     		str	r0, [r7, #4]
 548:.\Generated_Source\PSoC4/MessageTimer.c ****     uint8 enableInterrupts;
 549:.\Generated_Source\PSoC4/MessageTimer.c **** 
 550:.\Generated_Source\PSoC4/MessageTimer.c ****     enableInterrupts = CyEnterCriticalSection();
 629              		.loc 1 550 0
 630 0008 3C1C     		mov	r4, r7
 631 000a 0F34     		add	r4, r4, #15
 632 000c FFF7FEFF 		bl	CyEnterCriticalSection
 633 0010 031C     		mov	r3, r0
 634 0012 2370     		strb	r3, [r4]
 551:.\Generated_Source\PSoC4/MessageTimer.c **** 
 552:.\Generated_Source\PSoC4/MessageTimer.c ****     MessageTimer_CONTROL_REG &= (uint32)~MessageTimer_PRESCALER_MASK;
 635              		.loc 1 552 0
 636 0014 0B4B     		ldr	r3, .L36
 637 0016 0B4A     		ldr	r2, .L36
 638 0018 1168     		ldr	r1, [r2]
 639 001a 0B4A     		ldr	r2, .L36+4
 640 001c 0A40     		and	r2, r1
 641 001e 1A60     		str	r2, [r3]
 553:.\Generated_Source\PSoC4/MessageTimer.c ****     MessageTimer_CONTROL_REG |= ((uint32)((deadTime & MessageTimer_8BIT_MASK) <<
 642              		.loc 1 553 0
 643 0020 084B     		ldr	r3, .L36
 644 0022 084A     		ldr	r2, .L36
ARM GAS  C:\Users\Sam\AppData\Local\Temp\ccTX1UXg.s 			page 22


 645 0024 1168     		ldr	r1, [r2]
 646 0026 7A68     		ldr	r2, [r7, #4]
 647 0028 1202     		lsl	r2, r2, #8
 648 002a 1204     		lsl	r2, r2, #16
 649 002c 120C     		lsr	r2, r2, #16
 650 002e 0A43     		orr	r2, r1
 651 0030 1A60     		str	r2, [r3]
 554:.\Generated_Source\PSoC4/MessageTimer.c ****                                                           MessageTimer_PRESCALER_SHIFT));
 555:.\Generated_Source\PSoC4/MessageTimer.c **** 
 556:.\Generated_Source\PSoC4/MessageTimer.c ****     CyExitCriticalSection(enableInterrupts);
 652              		.loc 1 556 0
 653 0032 3B1C     		mov	r3, r7
 654 0034 0F33     		add	r3, r3, #15
 655 0036 1B78     		ldrb	r3, [r3]
 656 0038 181C     		mov	r0, r3
 657 003a FFF7FEFF 		bl	CyExitCriticalSection
 557:.\Generated_Source\PSoC4/MessageTimer.c **** }
 658              		.loc 1 557 0
 659 003e BD46     		mov	sp, r7
 660 0040 05B0     		add	sp, sp, #20
 661              		@ sp needed
 662 0042 90BD     		pop	{r4, r7, pc}
 663              	.L37:
 664              		.align	2
 665              	.L36:
 666 0044 00010540 		.word	1074069760
 667 0048 FF00FFFF 		.word	-65281
 668              		.cfi_endproc
 669              	.LFE11:
 670              		.size	MessageTimer_SetPWMDeadTime, .-MessageTimer_SetPWMDeadTime
 671              		.section	.text.MessageTimer_SetPWMInvert,"ax",%progbits
 672              		.align	2
 673              		.global	MessageTimer_SetPWMInvert
 674              		.code	16
 675              		.thumb_func
 676              		.type	MessageTimer_SetPWMInvert, %function
 677              	MessageTimer_SetPWMInvert:
 678              	.LFB12:
 558:.\Generated_Source\PSoC4/MessageTimer.c **** 
 559:.\Generated_Source\PSoC4/MessageTimer.c **** 
 560:.\Generated_Source\PSoC4/MessageTimer.c **** /*******************************************************************************
 561:.\Generated_Source\PSoC4/MessageTimer.c **** * Function Name: MessageTimer_SetPWMInvert
 562:.\Generated_Source\PSoC4/MessageTimer.c **** ********************************************************************************
 563:.\Generated_Source\PSoC4/MessageTimer.c **** *
 564:.\Generated_Source\PSoC4/MessageTimer.c **** * Summary:
 565:.\Generated_Source\PSoC4/MessageTimer.c **** *  Writes the bits that control whether the line and line_n outputs are
 566:.\Generated_Source\PSoC4/MessageTimer.c **** *  inverted from their normal output values.  This functionality is only
 567:.\Generated_Source\PSoC4/MessageTimer.c **** *  applicable to the three PWM modes.
 568:.\Generated_Source\PSoC4/MessageTimer.c **** *
 569:.\Generated_Source\PSoC4/MessageTimer.c **** * Parameters:
 570:.\Generated_Source\PSoC4/MessageTimer.c **** *  mask: Mask of outputs to invert.
 571:.\Generated_Source\PSoC4/MessageTimer.c **** *   Values:
 572:.\Generated_Source\PSoC4/MessageTimer.c **** *         - MessageTimer_INVERT_LINE   - Inverts the line output
 573:.\Generated_Source\PSoC4/MessageTimer.c **** *         - MessageTimer_INVERT_LINE_N - Inverts the line_n output
 574:.\Generated_Source\PSoC4/MessageTimer.c **** *
 575:.\Generated_Source\PSoC4/MessageTimer.c **** * Return:
 576:.\Generated_Source\PSoC4/MessageTimer.c **** *  None
ARM GAS  C:\Users\Sam\AppData\Local\Temp\ccTX1UXg.s 			page 23


 577:.\Generated_Source\PSoC4/MessageTimer.c **** *
 578:.\Generated_Source\PSoC4/MessageTimer.c **** *******************************************************************************/
 579:.\Generated_Source\PSoC4/MessageTimer.c **** void MessageTimer_SetPWMInvert(uint32 mask)
 580:.\Generated_Source\PSoC4/MessageTimer.c **** {
 679              		.loc 1 580 0
 680              		.cfi_startproc
 681 0000 90B5     		push	{r4, r7, lr}
 682              		.cfi_def_cfa_offset 12
 683              		.cfi_offset 4, -12
 684              		.cfi_offset 7, -8
 685              		.cfi_offset 14, -4
 686 0002 85B0     		sub	sp, sp, #20
 687              		.cfi_def_cfa_offset 32
 688 0004 00AF     		add	r7, sp, #0
 689              		.cfi_def_cfa_register 7
 690 0006 7860     		str	r0, [r7, #4]
 581:.\Generated_Source\PSoC4/MessageTimer.c ****     uint8 enableInterrupts;
 582:.\Generated_Source\PSoC4/MessageTimer.c **** 
 583:.\Generated_Source\PSoC4/MessageTimer.c ****     enableInterrupts = CyEnterCriticalSection();
 691              		.loc 1 583 0
 692 0008 3C1C     		mov	r4, r7
 693 000a 0F34     		add	r4, r4, #15
 694 000c FFF7FEFF 		bl	CyEnterCriticalSection
 695 0010 031C     		mov	r3, r0
 696 0012 2370     		strb	r3, [r4]
 584:.\Generated_Source\PSoC4/MessageTimer.c **** 
 585:.\Generated_Source\PSoC4/MessageTimer.c ****     MessageTimer_CONTROL_REG &= (uint32)~MessageTimer_INV_OUT_MASK;
 697              		.loc 1 585 0
 698 0014 0A4B     		ldr	r3, .L39
 699 0016 0A4A     		ldr	r2, .L39
 700 0018 1168     		ldr	r1, [r2]
 701 001a 0A4A     		ldr	r2, .L39+4
 702 001c 0A40     		and	r2, r1
 703 001e 1A60     		str	r2, [r3]
 586:.\Generated_Source\PSoC4/MessageTimer.c ****     MessageTimer_CONTROL_REG |= mask;
 704              		.loc 1 586 0
 705 0020 074B     		ldr	r3, .L39
 706 0022 074A     		ldr	r2, .L39
 707 0024 1168     		ldr	r1, [r2]
 708 0026 7A68     		ldr	r2, [r7, #4]
 709 0028 0A43     		orr	r2, r1
 710 002a 1A60     		str	r2, [r3]
 587:.\Generated_Source\PSoC4/MessageTimer.c **** 
 588:.\Generated_Source\PSoC4/MessageTimer.c ****     CyExitCriticalSection(enableInterrupts);
 711              		.loc 1 588 0
 712 002c 3B1C     		mov	r3, r7
 713 002e 0F33     		add	r3, r3, #15
 714 0030 1B78     		ldrb	r3, [r3]
 715 0032 181C     		mov	r0, r3
 716 0034 FFF7FEFF 		bl	CyExitCriticalSection
 589:.\Generated_Source\PSoC4/MessageTimer.c **** }
 717              		.loc 1 589 0
 718 0038 BD46     		mov	sp, r7
 719 003a 05B0     		add	sp, sp, #20
 720              		@ sp needed
 721 003c 90BD     		pop	{r4, r7, pc}
 722              	.L40:
ARM GAS  C:\Users\Sam\AppData\Local\Temp\ccTX1UXg.s 			page 24


 723 003e C046     		.align	2
 724              	.L39:
 725 0040 00010540 		.word	1074069760
 726 0044 FFFFCFFF 		.word	-3145729
 727              		.cfi_endproc
 728              	.LFE12:
 729              		.size	MessageTimer_SetPWMInvert, .-MessageTimer_SetPWMInvert
 730              		.section	.text.MessageTimer_WriteCounter,"ax",%progbits
 731              		.align	2
 732              		.global	MessageTimer_WriteCounter
 733              		.code	16
 734              		.thumb_func
 735              		.type	MessageTimer_WriteCounter, %function
 736              	MessageTimer_WriteCounter:
 737              	.LFB13:
 590:.\Generated_Source\PSoC4/MessageTimer.c **** 
 591:.\Generated_Source\PSoC4/MessageTimer.c **** 
 592:.\Generated_Source\PSoC4/MessageTimer.c **** 
 593:.\Generated_Source\PSoC4/MessageTimer.c **** /*******************************************************************************
 594:.\Generated_Source\PSoC4/MessageTimer.c **** * Function Name: MessageTimer_WriteCounter
 595:.\Generated_Source\PSoC4/MessageTimer.c **** ********************************************************************************
 596:.\Generated_Source\PSoC4/MessageTimer.c **** *
 597:.\Generated_Source\PSoC4/MessageTimer.c **** * Summary:
 598:.\Generated_Source\PSoC4/MessageTimer.c **** *  Writes a new 16bit counter value directly into the counter register, thus
 599:.\Generated_Source\PSoC4/MessageTimer.c **** *  setting the counter (not the period) to the value written. It is not
 600:.\Generated_Source\PSoC4/MessageTimer.c **** *  advised to write to this field when the counter is running.
 601:.\Generated_Source\PSoC4/MessageTimer.c **** *
 602:.\Generated_Source\PSoC4/MessageTimer.c **** * Parameters:
 603:.\Generated_Source\PSoC4/MessageTimer.c **** *  count: value to write
 604:.\Generated_Source\PSoC4/MessageTimer.c **** *
 605:.\Generated_Source\PSoC4/MessageTimer.c **** * Return:
 606:.\Generated_Source\PSoC4/MessageTimer.c **** *  None
 607:.\Generated_Source\PSoC4/MessageTimer.c **** *
 608:.\Generated_Source\PSoC4/MessageTimer.c **** *******************************************************************************/
 609:.\Generated_Source\PSoC4/MessageTimer.c **** void MessageTimer_WriteCounter(uint32 count)
 610:.\Generated_Source\PSoC4/MessageTimer.c **** {
 738              		.loc 1 610 0
 739              		.cfi_startproc
 740 0000 80B5     		push	{r7, lr}
 741              		.cfi_def_cfa_offset 8
 742              		.cfi_offset 7, -8
 743              		.cfi_offset 14, -4
 744 0002 82B0     		sub	sp, sp, #8
 745              		.cfi_def_cfa_offset 16
 746 0004 00AF     		add	r7, sp, #0
 747              		.cfi_def_cfa_register 7
 748 0006 7860     		str	r0, [r7, #4]
 611:.\Generated_Source\PSoC4/MessageTimer.c ****     MessageTimer_COUNTER_REG = (count & MessageTimer_16BIT_MASK);
 749              		.loc 1 611 0
 750 0008 034B     		ldr	r3, .L42
 751 000a 7A68     		ldr	r2, [r7, #4]
 752 000c 1204     		lsl	r2, r2, #16
 753 000e 120C     		lsr	r2, r2, #16
 754 0010 1A60     		str	r2, [r3]
 612:.\Generated_Source\PSoC4/MessageTimer.c **** }
 755              		.loc 1 612 0
 756 0012 BD46     		mov	sp, r7
ARM GAS  C:\Users\Sam\AppData\Local\Temp\ccTX1UXg.s 			page 25


 757 0014 02B0     		add	sp, sp, #8
 758              		@ sp needed
 759 0016 80BD     		pop	{r7, pc}
 760              	.L43:
 761              		.align	2
 762              	.L42:
 763 0018 08010540 		.word	1074069768
 764              		.cfi_endproc
 765              	.LFE13:
 766              		.size	MessageTimer_WriteCounter, .-MessageTimer_WriteCounter
 767              		.section	.text.MessageTimer_ReadCounter,"ax",%progbits
 768              		.align	2
 769              		.global	MessageTimer_ReadCounter
 770              		.code	16
 771              		.thumb_func
 772              		.type	MessageTimer_ReadCounter, %function
 773              	MessageTimer_ReadCounter:
 774              	.LFB14:
 613:.\Generated_Source\PSoC4/MessageTimer.c **** 
 614:.\Generated_Source\PSoC4/MessageTimer.c **** 
 615:.\Generated_Source\PSoC4/MessageTimer.c **** /*******************************************************************************
 616:.\Generated_Source\PSoC4/MessageTimer.c **** * Function Name: MessageTimer_ReadCounter
 617:.\Generated_Source\PSoC4/MessageTimer.c **** ********************************************************************************
 618:.\Generated_Source\PSoC4/MessageTimer.c **** *
 619:.\Generated_Source\PSoC4/MessageTimer.c **** * Summary:
 620:.\Generated_Source\PSoC4/MessageTimer.c **** *  Reads the current counter value.
 621:.\Generated_Source\PSoC4/MessageTimer.c **** *
 622:.\Generated_Source\PSoC4/MessageTimer.c **** * Parameters:
 623:.\Generated_Source\PSoC4/MessageTimer.c **** *  None
 624:.\Generated_Source\PSoC4/MessageTimer.c **** *
 625:.\Generated_Source\PSoC4/MessageTimer.c **** * Return:
 626:.\Generated_Source\PSoC4/MessageTimer.c **** *  Current counter value
 627:.\Generated_Source\PSoC4/MessageTimer.c **** *
 628:.\Generated_Source\PSoC4/MessageTimer.c **** *******************************************************************************/
 629:.\Generated_Source\PSoC4/MessageTimer.c **** uint32 MessageTimer_ReadCounter(void)
 630:.\Generated_Source\PSoC4/MessageTimer.c **** {
 775              		.loc 1 630 0
 776              		.cfi_startproc
 777 0000 80B5     		push	{r7, lr}
 778              		.cfi_def_cfa_offset 8
 779              		.cfi_offset 7, -8
 780              		.cfi_offset 14, -4
 781 0002 00AF     		add	r7, sp, #0
 782              		.cfi_def_cfa_register 7
 631:.\Generated_Source\PSoC4/MessageTimer.c ****     return (MessageTimer_COUNTER_REG & MessageTimer_16BIT_MASK);
 783              		.loc 1 631 0
 784 0004 034B     		ldr	r3, .L46
 785 0006 1B68     		ldr	r3, [r3]
 786 0008 1B04     		lsl	r3, r3, #16
 787 000a 1B0C     		lsr	r3, r3, #16
 632:.\Generated_Source\PSoC4/MessageTimer.c **** }
 788              		.loc 1 632 0
 789 000c 181C     		mov	r0, r3
 790 000e BD46     		mov	sp, r7
 791              		@ sp needed
 792 0010 80BD     		pop	{r7, pc}
 793              	.L47:
ARM GAS  C:\Users\Sam\AppData\Local\Temp\ccTX1UXg.s 			page 26


 794 0012 C046     		.align	2
 795              	.L46:
 796 0014 08010540 		.word	1074069768
 797              		.cfi_endproc
 798              	.LFE14:
 799              		.size	MessageTimer_ReadCounter, .-MessageTimer_ReadCounter
 800              		.section	.text.MessageTimer_SetCounterMode,"ax",%progbits
 801              		.align	2
 802              		.global	MessageTimer_SetCounterMode
 803              		.code	16
 804              		.thumb_func
 805              		.type	MessageTimer_SetCounterMode, %function
 806              	MessageTimer_SetCounterMode:
 807              	.LFB15:
 633:.\Generated_Source\PSoC4/MessageTimer.c **** 
 634:.\Generated_Source\PSoC4/MessageTimer.c **** 
 635:.\Generated_Source\PSoC4/MessageTimer.c **** /*******************************************************************************
 636:.\Generated_Source\PSoC4/MessageTimer.c **** * Function Name: MessageTimer_SetCounterMode
 637:.\Generated_Source\PSoC4/MessageTimer.c **** ********************************************************************************
 638:.\Generated_Source\PSoC4/MessageTimer.c **** *
 639:.\Generated_Source\PSoC4/MessageTimer.c **** * Summary:
 640:.\Generated_Source\PSoC4/MessageTimer.c **** *  Sets the counter mode.  Applicable to all modes except Quadrature Decoder
 641:.\Generated_Source\PSoC4/MessageTimer.c **** *  and the PWM with a pseudo random output.
 642:.\Generated_Source\PSoC4/MessageTimer.c **** *
 643:.\Generated_Source\PSoC4/MessageTimer.c **** * Parameters:
 644:.\Generated_Source\PSoC4/MessageTimer.c **** *  counterMode: Enumerated counter type values
 645:.\Generated_Source\PSoC4/MessageTimer.c **** *   Values:
 646:.\Generated_Source\PSoC4/MessageTimer.c **** *     - MessageTimer_COUNT_UP       - Counts up
 647:.\Generated_Source\PSoC4/MessageTimer.c **** *     - MessageTimer_COUNT_DOWN     - Counts down
 648:.\Generated_Source\PSoC4/MessageTimer.c **** *     - MessageTimer_COUNT_UPDOWN0  - Counts up and down. Terminal count
 649:.\Generated_Source\PSoC4/MessageTimer.c **** *                                         generated when counter reaches 0
 650:.\Generated_Source\PSoC4/MessageTimer.c **** *     - MessageTimer_COUNT_UPDOWN1  - Counts up and down. Terminal count
 651:.\Generated_Source\PSoC4/MessageTimer.c **** *                                         generated both when counter reaches 0
 652:.\Generated_Source\PSoC4/MessageTimer.c **** *                                         and period
 653:.\Generated_Source\PSoC4/MessageTimer.c **** *
 654:.\Generated_Source\PSoC4/MessageTimer.c **** * Return:
 655:.\Generated_Source\PSoC4/MessageTimer.c **** *  None
 656:.\Generated_Source\PSoC4/MessageTimer.c **** *
 657:.\Generated_Source\PSoC4/MessageTimer.c **** *******************************************************************************/
 658:.\Generated_Source\PSoC4/MessageTimer.c **** void MessageTimer_SetCounterMode(uint32 counterMode)
 659:.\Generated_Source\PSoC4/MessageTimer.c **** {
 808              		.loc 1 659 0
 809              		.cfi_startproc
 810 0000 90B5     		push	{r4, r7, lr}
 811              		.cfi_def_cfa_offset 12
 812              		.cfi_offset 4, -12
 813              		.cfi_offset 7, -8
 814              		.cfi_offset 14, -4
 815 0002 85B0     		sub	sp, sp, #20
 816              		.cfi_def_cfa_offset 32
 817 0004 00AF     		add	r7, sp, #0
 818              		.cfi_def_cfa_register 7
 819 0006 7860     		str	r0, [r7, #4]
 660:.\Generated_Source\PSoC4/MessageTimer.c ****     uint8 enableInterrupts;
 661:.\Generated_Source\PSoC4/MessageTimer.c **** 
 662:.\Generated_Source\PSoC4/MessageTimer.c ****     enableInterrupts = CyEnterCriticalSection();
 820              		.loc 1 662 0
ARM GAS  C:\Users\Sam\AppData\Local\Temp\ccTX1UXg.s 			page 27


 821 0008 3C1C     		mov	r4, r7
 822 000a 0F34     		add	r4, r4, #15
 823 000c FFF7FEFF 		bl	CyEnterCriticalSection
 824 0010 031C     		mov	r3, r0
 825 0012 2370     		strb	r3, [r4]
 663:.\Generated_Source\PSoC4/MessageTimer.c **** 
 664:.\Generated_Source\PSoC4/MessageTimer.c ****     MessageTimer_CONTROL_REG &= (uint32)~MessageTimer_UPDOWN_MASK;
 826              		.loc 1 664 0
 827 0014 0A4B     		ldr	r3, .L49
 828 0016 0A4A     		ldr	r2, .L49
 829 0018 1168     		ldr	r1, [r2]
 830 001a 0A4A     		ldr	r2, .L49+4
 831 001c 0A40     		and	r2, r1
 832 001e 1A60     		str	r2, [r3]
 665:.\Generated_Source\PSoC4/MessageTimer.c ****     MessageTimer_CONTROL_REG |= counterMode;
 833              		.loc 1 665 0
 834 0020 074B     		ldr	r3, .L49
 835 0022 074A     		ldr	r2, .L49
 836 0024 1168     		ldr	r1, [r2]
 837 0026 7A68     		ldr	r2, [r7, #4]
 838 0028 0A43     		orr	r2, r1
 839 002a 1A60     		str	r2, [r3]
 666:.\Generated_Source\PSoC4/MessageTimer.c **** 
 667:.\Generated_Source\PSoC4/MessageTimer.c ****     CyExitCriticalSection(enableInterrupts);
 840              		.loc 1 667 0
 841 002c 3B1C     		mov	r3, r7
 842 002e 0F33     		add	r3, r3, #15
 843 0030 1B78     		ldrb	r3, [r3]
 844 0032 181C     		mov	r0, r3
 845 0034 FFF7FEFF 		bl	CyExitCriticalSection
 668:.\Generated_Source\PSoC4/MessageTimer.c **** }
 846              		.loc 1 668 0
 847 0038 BD46     		mov	sp, r7
 848 003a 05B0     		add	sp, sp, #20
 849              		@ sp needed
 850 003c 90BD     		pop	{r4, r7, pc}
 851              	.L50:
 852 003e C046     		.align	2
 853              	.L49:
 854 0040 00010540 		.word	1074069760
 855 0044 FFFFFCFF 		.word	-196609
 856              		.cfi_endproc
 857              	.LFE15:
 858              		.size	MessageTimer_SetCounterMode, .-MessageTimer_SetCounterMode
 859              		.section	.text.MessageTimer_WritePeriod,"ax",%progbits
 860              		.align	2
 861              		.global	MessageTimer_WritePeriod
 862              		.code	16
 863              		.thumb_func
 864              		.type	MessageTimer_WritePeriod, %function
 865              	MessageTimer_WritePeriod:
 866              	.LFB16:
 669:.\Generated_Source\PSoC4/MessageTimer.c **** 
 670:.\Generated_Source\PSoC4/MessageTimer.c **** 
 671:.\Generated_Source\PSoC4/MessageTimer.c **** /*******************************************************************************
 672:.\Generated_Source\PSoC4/MessageTimer.c **** * Function Name: MessageTimer_WritePeriod
 673:.\Generated_Source\PSoC4/MessageTimer.c **** ********************************************************************************
ARM GAS  C:\Users\Sam\AppData\Local\Temp\ccTX1UXg.s 			page 28


 674:.\Generated_Source\PSoC4/MessageTimer.c **** *
 675:.\Generated_Source\PSoC4/MessageTimer.c **** * Summary:
 676:.\Generated_Source\PSoC4/MessageTimer.c **** *  Writes the 16 bit period register with the new period value.
 677:.\Generated_Source\PSoC4/MessageTimer.c **** *  To cause the counter to count for N cycles this register should be written
 678:.\Generated_Source\PSoC4/MessageTimer.c **** *  with N-1 (counts from 0 to period inclusive).
 679:.\Generated_Source\PSoC4/MessageTimer.c **** *
 680:.\Generated_Source\PSoC4/MessageTimer.c **** * Parameters:
 681:.\Generated_Source\PSoC4/MessageTimer.c **** *  period: Period value
 682:.\Generated_Source\PSoC4/MessageTimer.c **** *
 683:.\Generated_Source\PSoC4/MessageTimer.c **** * Return:
 684:.\Generated_Source\PSoC4/MessageTimer.c **** *  None
 685:.\Generated_Source\PSoC4/MessageTimer.c **** *
 686:.\Generated_Source\PSoC4/MessageTimer.c **** *******************************************************************************/
 687:.\Generated_Source\PSoC4/MessageTimer.c **** void MessageTimer_WritePeriod(uint32 period)
 688:.\Generated_Source\PSoC4/MessageTimer.c **** {
 867              		.loc 1 688 0
 868              		.cfi_startproc
 869 0000 80B5     		push	{r7, lr}
 870              		.cfi_def_cfa_offset 8
 871              		.cfi_offset 7, -8
 872              		.cfi_offset 14, -4
 873 0002 82B0     		sub	sp, sp, #8
 874              		.cfi_def_cfa_offset 16
 875 0004 00AF     		add	r7, sp, #0
 876              		.cfi_def_cfa_register 7
 877 0006 7860     		str	r0, [r7, #4]
 689:.\Generated_Source\PSoC4/MessageTimer.c ****     MessageTimer_PERIOD_REG = (period & MessageTimer_16BIT_MASK);
 878              		.loc 1 689 0
 879 0008 034B     		ldr	r3, .L52
 880 000a 7A68     		ldr	r2, [r7, #4]
 881 000c 1204     		lsl	r2, r2, #16
 882 000e 120C     		lsr	r2, r2, #16
 883 0010 1A60     		str	r2, [r3]
 690:.\Generated_Source\PSoC4/MessageTimer.c **** }
 884              		.loc 1 690 0
 885 0012 BD46     		mov	sp, r7
 886 0014 02B0     		add	sp, sp, #8
 887              		@ sp needed
 888 0016 80BD     		pop	{r7, pc}
 889              	.L53:
 890              		.align	2
 891              	.L52:
 892 0018 14010540 		.word	1074069780
 893              		.cfi_endproc
 894              	.LFE16:
 895              		.size	MessageTimer_WritePeriod, .-MessageTimer_WritePeriod
 896              		.section	.text.MessageTimer_ReadPeriod,"ax",%progbits
 897              		.align	2
 898              		.global	MessageTimer_ReadPeriod
 899              		.code	16
 900              		.thumb_func
 901              		.type	MessageTimer_ReadPeriod, %function
 902              	MessageTimer_ReadPeriod:
 903              	.LFB17:
 691:.\Generated_Source\PSoC4/MessageTimer.c **** 
 692:.\Generated_Source\PSoC4/MessageTimer.c **** 
 693:.\Generated_Source\PSoC4/MessageTimer.c **** /*******************************************************************************
ARM GAS  C:\Users\Sam\AppData\Local\Temp\ccTX1UXg.s 			page 29


 694:.\Generated_Source\PSoC4/MessageTimer.c **** * Function Name: MessageTimer_ReadPeriod
 695:.\Generated_Source\PSoC4/MessageTimer.c **** ********************************************************************************
 696:.\Generated_Source\PSoC4/MessageTimer.c **** *
 697:.\Generated_Source\PSoC4/MessageTimer.c **** * Summary:
 698:.\Generated_Source\PSoC4/MessageTimer.c **** *  Reads the 16 bit period register.
 699:.\Generated_Source\PSoC4/MessageTimer.c **** *
 700:.\Generated_Source\PSoC4/MessageTimer.c **** * Parameters:
 701:.\Generated_Source\PSoC4/MessageTimer.c **** *  None
 702:.\Generated_Source\PSoC4/MessageTimer.c **** *
 703:.\Generated_Source\PSoC4/MessageTimer.c **** * Return:
 704:.\Generated_Source\PSoC4/MessageTimer.c **** *  Period value
 705:.\Generated_Source\PSoC4/MessageTimer.c **** *
 706:.\Generated_Source\PSoC4/MessageTimer.c **** *******************************************************************************/
 707:.\Generated_Source\PSoC4/MessageTimer.c **** uint32 MessageTimer_ReadPeriod(void)
 708:.\Generated_Source\PSoC4/MessageTimer.c **** {
 904              		.loc 1 708 0
 905              		.cfi_startproc
 906 0000 80B5     		push	{r7, lr}
 907              		.cfi_def_cfa_offset 8
 908              		.cfi_offset 7, -8
 909              		.cfi_offset 14, -4
 910 0002 00AF     		add	r7, sp, #0
 911              		.cfi_def_cfa_register 7
 709:.\Generated_Source\PSoC4/MessageTimer.c ****     return (MessageTimer_PERIOD_REG & MessageTimer_16BIT_MASK);
 912              		.loc 1 709 0
 913 0004 034B     		ldr	r3, .L56
 914 0006 1B68     		ldr	r3, [r3]
 915 0008 1B04     		lsl	r3, r3, #16
 916 000a 1B0C     		lsr	r3, r3, #16
 710:.\Generated_Source\PSoC4/MessageTimer.c **** }
 917              		.loc 1 710 0
 918 000c 181C     		mov	r0, r3
 919 000e BD46     		mov	sp, r7
 920              		@ sp needed
 921 0010 80BD     		pop	{r7, pc}
 922              	.L57:
 923 0012 C046     		.align	2
 924              	.L56:
 925 0014 14010540 		.word	1074069780
 926              		.cfi_endproc
 927              	.LFE17:
 928              		.size	MessageTimer_ReadPeriod, .-MessageTimer_ReadPeriod
 929              		.section	.text.MessageTimer_SetCompareSwap,"ax",%progbits
 930              		.align	2
 931              		.global	MessageTimer_SetCompareSwap
 932              		.code	16
 933              		.thumb_func
 934              		.type	MessageTimer_SetCompareSwap, %function
 935              	MessageTimer_SetCompareSwap:
 936              	.LFB18:
 711:.\Generated_Source\PSoC4/MessageTimer.c **** 
 712:.\Generated_Source\PSoC4/MessageTimer.c **** 
 713:.\Generated_Source\PSoC4/MessageTimer.c **** /*******************************************************************************
 714:.\Generated_Source\PSoC4/MessageTimer.c **** * Function Name: MessageTimer_SetCompareSwap
 715:.\Generated_Source\PSoC4/MessageTimer.c **** ********************************************************************************
 716:.\Generated_Source\PSoC4/MessageTimer.c **** *
 717:.\Generated_Source\PSoC4/MessageTimer.c **** * Summary:
ARM GAS  C:\Users\Sam\AppData\Local\Temp\ccTX1UXg.s 			page 30


 718:.\Generated_Source\PSoC4/MessageTimer.c **** *  Writes the register that controls whether the compare registers are
 719:.\Generated_Source\PSoC4/MessageTimer.c **** *  swapped. When enabled in the Timer/Counter mode(without capture) the swap
 720:.\Generated_Source\PSoC4/MessageTimer.c **** *  occurs at a TC event. In the PWM mode the swap occurs at the next TC event
 721:.\Generated_Source\PSoC4/MessageTimer.c **** *  following a hardware switch event.
 722:.\Generated_Source\PSoC4/MessageTimer.c **** *
 723:.\Generated_Source\PSoC4/MessageTimer.c **** * Parameters:
 724:.\Generated_Source\PSoC4/MessageTimer.c **** *  swapEnable
 725:.\Generated_Source\PSoC4/MessageTimer.c **** *   Values:
 726:.\Generated_Source\PSoC4/MessageTimer.c **** *     - 0 - Disable swap
 727:.\Generated_Source\PSoC4/MessageTimer.c **** *     - 1 - Enable swap
 728:.\Generated_Source\PSoC4/MessageTimer.c **** *
 729:.\Generated_Source\PSoC4/MessageTimer.c **** * Return:
 730:.\Generated_Source\PSoC4/MessageTimer.c **** *  None
 731:.\Generated_Source\PSoC4/MessageTimer.c **** *
 732:.\Generated_Source\PSoC4/MessageTimer.c **** *******************************************************************************/
 733:.\Generated_Source\PSoC4/MessageTimer.c **** void MessageTimer_SetCompareSwap(uint32 swapEnable)
 734:.\Generated_Source\PSoC4/MessageTimer.c **** {
 937              		.loc 1 734 0
 938              		.cfi_startproc
 939 0000 90B5     		push	{r4, r7, lr}
 940              		.cfi_def_cfa_offset 12
 941              		.cfi_offset 4, -12
 942              		.cfi_offset 7, -8
 943              		.cfi_offset 14, -4
 944 0002 85B0     		sub	sp, sp, #20
 945              		.cfi_def_cfa_offset 32
 946 0004 00AF     		add	r7, sp, #0
 947              		.cfi_def_cfa_register 7
 948 0006 7860     		str	r0, [r7, #4]
 735:.\Generated_Source\PSoC4/MessageTimer.c ****     uint8 enableInterrupts;
 736:.\Generated_Source\PSoC4/MessageTimer.c **** 
 737:.\Generated_Source\PSoC4/MessageTimer.c ****     enableInterrupts = CyEnterCriticalSection();
 949              		.loc 1 737 0
 950 0008 3C1C     		mov	r4, r7
 951 000a 0F34     		add	r4, r4, #15
 952 000c FFF7FEFF 		bl	CyEnterCriticalSection
 953 0010 031C     		mov	r3, r0
 954 0012 2370     		strb	r3, [r4]
 738:.\Generated_Source\PSoC4/MessageTimer.c **** 
 739:.\Generated_Source\PSoC4/MessageTimer.c ****     MessageTimer_CONTROL_REG &= (uint32)~MessageTimer_RELOAD_CC_MASK;
 955              		.loc 1 739 0
 956 0014 0B4B     		ldr	r3, .L59
 957 0016 0B4A     		ldr	r2, .L59
 958 0018 1268     		ldr	r2, [r2]
 959 001a 0121     		mov	r1, #1
 960 001c 8A43     		bic	r2, r1
 961 001e 1A60     		str	r2, [r3]
 740:.\Generated_Source\PSoC4/MessageTimer.c ****     MessageTimer_CONTROL_REG |= (swapEnable & MessageTimer_1BIT_MASK);
 962              		.loc 1 740 0
 963 0020 084B     		ldr	r3, .L59
 964 0022 084A     		ldr	r2, .L59
 965 0024 1168     		ldr	r1, [r2]
 966 0026 7868     		ldr	r0, [r7, #4]
 967 0028 0122     		mov	r2, #1
 968 002a 0240     		and	r2, r0
 969 002c 0A43     		orr	r2, r1
 970 002e 1A60     		str	r2, [r3]
ARM GAS  C:\Users\Sam\AppData\Local\Temp\ccTX1UXg.s 			page 31


 741:.\Generated_Source\PSoC4/MessageTimer.c **** 
 742:.\Generated_Source\PSoC4/MessageTimer.c ****     CyExitCriticalSection(enableInterrupts);
 971              		.loc 1 742 0
 972 0030 3B1C     		mov	r3, r7
 973 0032 0F33     		add	r3, r3, #15
 974 0034 1B78     		ldrb	r3, [r3]
 975 0036 181C     		mov	r0, r3
 976 0038 FFF7FEFF 		bl	CyExitCriticalSection
 743:.\Generated_Source\PSoC4/MessageTimer.c **** }
 977              		.loc 1 743 0
 978 003c BD46     		mov	sp, r7
 979 003e 05B0     		add	sp, sp, #20
 980              		@ sp needed
 981 0040 90BD     		pop	{r4, r7, pc}
 982              	.L60:
 983 0042 C046     		.align	2
 984              	.L59:
 985 0044 00010540 		.word	1074069760
 986              		.cfi_endproc
 987              	.LFE18:
 988              		.size	MessageTimer_SetCompareSwap, .-MessageTimer_SetCompareSwap
 989              		.section	.text.MessageTimer_WritePeriodBuf,"ax",%progbits
 990              		.align	2
 991              		.global	MessageTimer_WritePeriodBuf
 992              		.code	16
 993              		.thumb_func
 994              		.type	MessageTimer_WritePeriodBuf, %function
 995              	MessageTimer_WritePeriodBuf:
 996              	.LFB19:
 744:.\Generated_Source\PSoC4/MessageTimer.c **** 
 745:.\Generated_Source\PSoC4/MessageTimer.c **** 
 746:.\Generated_Source\PSoC4/MessageTimer.c **** /*******************************************************************************
 747:.\Generated_Source\PSoC4/MessageTimer.c **** * Function Name: MessageTimer_WritePeriodBuf
 748:.\Generated_Source\PSoC4/MessageTimer.c **** ********************************************************************************
 749:.\Generated_Source\PSoC4/MessageTimer.c **** *
 750:.\Generated_Source\PSoC4/MessageTimer.c **** * Summary:
 751:.\Generated_Source\PSoC4/MessageTimer.c **** *  Writes the 16 bit period buf register with the new period value.
 752:.\Generated_Source\PSoC4/MessageTimer.c **** *
 753:.\Generated_Source\PSoC4/MessageTimer.c **** * Parameters:
 754:.\Generated_Source\PSoC4/MessageTimer.c **** *  periodBuf: Period value
 755:.\Generated_Source\PSoC4/MessageTimer.c **** *
 756:.\Generated_Source\PSoC4/MessageTimer.c **** * Return:
 757:.\Generated_Source\PSoC4/MessageTimer.c **** *  None
 758:.\Generated_Source\PSoC4/MessageTimer.c **** *
 759:.\Generated_Source\PSoC4/MessageTimer.c **** *******************************************************************************/
 760:.\Generated_Source\PSoC4/MessageTimer.c **** void MessageTimer_WritePeriodBuf(uint32 periodBuf)
 761:.\Generated_Source\PSoC4/MessageTimer.c **** {
 997              		.loc 1 761 0
 998              		.cfi_startproc
 999 0000 80B5     		push	{r7, lr}
 1000              		.cfi_def_cfa_offset 8
 1001              		.cfi_offset 7, -8
 1002              		.cfi_offset 14, -4
 1003 0002 82B0     		sub	sp, sp, #8
 1004              		.cfi_def_cfa_offset 16
 1005 0004 00AF     		add	r7, sp, #0
 1006              		.cfi_def_cfa_register 7
ARM GAS  C:\Users\Sam\AppData\Local\Temp\ccTX1UXg.s 			page 32


 1007 0006 7860     		str	r0, [r7, #4]
 762:.\Generated_Source\PSoC4/MessageTimer.c ****     MessageTimer_PERIOD_BUF_REG = (periodBuf & MessageTimer_16BIT_MASK);
 1008              		.loc 1 762 0
 1009 0008 034B     		ldr	r3, .L62
 1010 000a 7A68     		ldr	r2, [r7, #4]
 1011 000c 1204     		lsl	r2, r2, #16
 1012 000e 120C     		lsr	r2, r2, #16
 1013 0010 1A60     		str	r2, [r3]
 763:.\Generated_Source\PSoC4/MessageTimer.c **** }
 1014              		.loc 1 763 0
 1015 0012 BD46     		mov	sp, r7
 1016 0014 02B0     		add	sp, sp, #8
 1017              		@ sp needed
 1018 0016 80BD     		pop	{r7, pc}
 1019              	.L63:
 1020              		.align	2
 1021              	.L62:
 1022 0018 18010540 		.word	1074069784
 1023              		.cfi_endproc
 1024              	.LFE19:
 1025              		.size	MessageTimer_WritePeriodBuf, .-MessageTimer_WritePeriodBuf
 1026              		.section	.text.MessageTimer_ReadPeriodBuf,"ax",%progbits
 1027              		.align	2
 1028              		.global	MessageTimer_ReadPeriodBuf
 1029              		.code	16
 1030              		.thumb_func
 1031              		.type	MessageTimer_ReadPeriodBuf, %function
 1032              	MessageTimer_ReadPeriodBuf:
 1033              	.LFB20:
 764:.\Generated_Source\PSoC4/MessageTimer.c **** 
 765:.\Generated_Source\PSoC4/MessageTimer.c **** 
 766:.\Generated_Source\PSoC4/MessageTimer.c **** /*******************************************************************************
 767:.\Generated_Source\PSoC4/MessageTimer.c **** * Function Name: MessageTimer_ReadPeriodBuf
 768:.\Generated_Source\PSoC4/MessageTimer.c **** ********************************************************************************
 769:.\Generated_Source\PSoC4/MessageTimer.c **** *
 770:.\Generated_Source\PSoC4/MessageTimer.c **** * Summary:
 771:.\Generated_Source\PSoC4/MessageTimer.c **** *  Reads the 16 bit period buf register.
 772:.\Generated_Source\PSoC4/MessageTimer.c **** *
 773:.\Generated_Source\PSoC4/MessageTimer.c **** * Parameters:
 774:.\Generated_Source\PSoC4/MessageTimer.c **** *  None
 775:.\Generated_Source\PSoC4/MessageTimer.c **** *
 776:.\Generated_Source\PSoC4/MessageTimer.c **** * Return:
 777:.\Generated_Source\PSoC4/MessageTimer.c **** *  Period value
 778:.\Generated_Source\PSoC4/MessageTimer.c **** *
 779:.\Generated_Source\PSoC4/MessageTimer.c **** *******************************************************************************/
 780:.\Generated_Source\PSoC4/MessageTimer.c **** uint32 MessageTimer_ReadPeriodBuf(void)
 781:.\Generated_Source\PSoC4/MessageTimer.c **** {
 1034              		.loc 1 781 0
 1035              		.cfi_startproc
 1036 0000 80B5     		push	{r7, lr}
 1037              		.cfi_def_cfa_offset 8
 1038              		.cfi_offset 7, -8
 1039              		.cfi_offset 14, -4
 1040 0002 00AF     		add	r7, sp, #0
 1041              		.cfi_def_cfa_register 7
 782:.\Generated_Source\PSoC4/MessageTimer.c ****     return (MessageTimer_PERIOD_BUF_REG & MessageTimer_16BIT_MASK);
 1042              		.loc 1 782 0
ARM GAS  C:\Users\Sam\AppData\Local\Temp\ccTX1UXg.s 			page 33


 1043 0004 034B     		ldr	r3, .L66
 1044 0006 1B68     		ldr	r3, [r3]
 1045 0008 1B04     		lsl	r3, r3, #16
 1046 000a 1B0C     		lsr	r3, r3, #16
 783:.\Generated_Source\PSoC4/MessageTimer.c **** }
 1047              		.loc 1 783 0
 1048 000c 181C     		mov	r0, r3
 1049 000e BD46     		mov	sp, r7
 1050              		@ sp needed
 1051 0010 80BD     		pop	{r7, pc}
 1052              	.L67:
 1053 0012 C046     		.align	2
 1054              	.L66:
 1055 0014 18010540 		.word	1074069784
 1056              		.cfi_endproc
 1057              	.LFE20:
 1058              		.size	MessageTimer_ReadPeriodBuf, .-MessageTimer_ReadPeriodBuf
 1059              		.section	.text.MessageTimer_SetPeriodSwap,"ax",%progbits
 1060              		.align	2
 1061              		.global	MessageTimer_SetPeriodSwap
 1062              		.code	16
 1063              		.thumb_func
 1064              		.type	MessageTimer_SetPeriodSwap, %function
 1065              	MessageTimer_SetPeriodSwap:
 1066              	.LFB21:
 784:.\Generated_Source\PSoC4/MessageTimer.c **** 
 785:.\Generated_Source\PSoC4/MessageTimer.c **** 
 786:.\Generated_Source\PSoC4/MessageTimer.c **** /*******************************************************************************
 787:.\Generated_Source\PSoC4/MessageTimer.c **** * Function Name: MessageTimer_SetPeriodSwap
 788:.\Generated_Source\PSoC4/MessageTimer.c **** ********************************************************************************
 789:.\Generated_Source\PSoC4/MessageTimer.c **** *
 790:.\Generated_Source\PSoC4/MessageTimer.c **** * Summary:
 791:.\Generated_Source\PSoC4/MessageTimer.c **** *  Writes the register that controls whether the period registers are
 792:.\Generated_Source\PSoC4/MessageTimer.c **** *  swapped. When enabled in Timer/Counter mode the swap occurs at a TC event.
 793:.\Generated_Source\PSoC4/MessageTimer.c **** *  In the PWM mode the swap occurs at the next TC event following a hardware
 794:.\Generated_Source\PSoC4/MessageTimer.c **** *  switch event.
 795:.\Generated_Source\PSoC4/MessageTimer.c **** *
 796:.\Generated_Source\PSoC4/MessageTimer.c **** * Parameters:
 797:.\Generated_Source\PSoC4/MessageTimer.c **** *  swapEnable
 798:.\Generated_Source\PSoC4/MessageTimer.c **** *   Values:
 799:.\Generated_Source\PSoC4/MessageTimer.c **** *     - 0 - Disable swap
 800:.\Generated_Source\PSoC4/MessageTimer.c **** *     - 1 - Enable swap
 801:.\Generated_Source\PSoC4/MessageTimer.c **** *
 802:.\Generated_Source\PSoC4/MessageTimer.c **** * Return:
 803:.\Generated_Source\PSoC4/MessageTimer.c **** *  None
 804:.\Generated_Source\PSoC4/MessageTimer.c **** *
 805:.\Generated_Source\PSoC4/MessageTimer.c **** *******************************************************************************/
 806:.\Generated_Source\PSoC4/MessageTimer.c **** void MessageTimer_SetPeriodSwap(uint32 swapEnable)
 807:.\Generated_Source\PSoC4/MessageTimer.c **** {
 1067              		.loc 1 807 0
 1068              		.cfi_startproc
 1069 0000 90B5     		push	{r4, r7, lr}
 1070              		.cfi_def_cfa_offset 12
 1071              		.cfi_offset 4, -12
 1072              		.cfi_offset 7, -8
 1073              		.cfi_offset 14, -4
 1074 0002 85B0     		sub	sp, sp, #20
ARM GAS  C:\Users\Sam\AppData\Local\Temp\ccTX1UXg.s 			page 34


 1075              		.cfi_def_cfa_offset 32
 1076 0004 00AF     		add	r7, sp, #0
 1077              		.cfi_def_cfa_register 7
 1078 0006 7860     		str	r0, [r7, #4]
 808:.\Generated_Source\PSoC4/MessageTimer.c ****     uint8 enableInterrupts;
 809:.\Generated_Source\PSoC4/MessageTimer.c **** 
 810:.\Generated_Source\PSoC4/MessageTimer.c ****     enableInterrupts = CyEnterCriticalSection();
 1079              		.loc 1 810 0
 1080 0008 3C1C     		mov	r4, r7
 1081 000a 0F34     		add	r4, r4, #15
 1082 000c FFF7FEFF 		bl	CyEnterCriticalSection
 1083 0010 031C     		mov	r3, r0
 1084 0012 2370     		strb	r3, [r4]
 811:.\Generated_Source\PSoC4/MessageTimer.c **** 
 812:.\Generated_Source\PSoC4/MessageTimer.c ****     MessageTimer_CONTROL_REG &= (uint32)~MessageTimer_RELOAD_PERIOD_MASK;
 1085              		.loc 1 812 0
 1086 0014 0B4B     		ldr	r3, .L69
 1087 0016 0B4A     		ldr	r2, .L69
 1088 0018 1268     		ldr	r2, [r2]
 1089 001a 0221     		mov	r1, #2
 1090 001c 8A43     		bic	r2, r1
 1091 001e 1A60     		str	r2, [r3]
 813:.\Generated_Source\PSoC4/MessageTimer.c ****     MessageTimer_CONTROL_REG |= ((uint32)((swapEnable & MessageTimer_1BIT_MASK) <<
 1092              		.loc 1 813 0
 1093 0020 084B     		ldr	r3, .L69
 1094 0022 084A     		ldr	r2, .L69
 1095 0024 1168     		ldr	r1, [r2]
 1096 0026 7868     		ldr	r0, [r7, #4]
 1097 0028 0122     		mov	r2, #1
 1098 002a 0240     		and	r2, r0
 1099 002c 5200     		lsl	r2, r2, #1
 1100 002e 0A43     		orr	r2, r1
 1101 0030 1A60     		str	r2, [r3]
 814:.\Generated_Source\PSoC4/MessageTimer.c ****                                                             MessageTimer_RELOAD_PERIOD_SHIFT));
 815:.\Generated_Source\PSoC4/MessageTimer.c **** 
 816:.\Generated_Source\PSoC4/MessageTimer.c ****     CyExitCriticalSection(enableInterrupts);
 1102              		.loc 1 816 0
 1103 0032 3B1C     		mov	r3, r7
 1104 0034 0F33     		add	r3, r3, #15
 1105 0036 1B78     		ldrb	r3, [r3]
 1106 0038 181C     		mov	r0, r3
 1107 003a FFF7FEFF 		bl	CyExitCriticalSection
 817:.\Generated_Source\PSoC4/MessageTimer.c **** }
 1108              		.loc 1 817 0
 1109 003e BD46     		mov	sp, r7
 1110 0040 05B0     		add	sp, sp, #20
 1111              		@ sp needed
 1112 0042 90BD     		pop	{r4, r7, pc}
 1113              	.L70:
 1114              		.align	2
 1115              	.L69:
 1116 0044 00010540 		.word	1074069760
 1117              		.cfi_endproc
 1118              	.LFE21:
 1119              		.size	MessageTimer_SetPeriodSwap, .-MessageTimer_SetPeriodSwap
 1120              		.section	.text.MessageTimer_WriteCompare,"ax",%progbits
 1121              		.align	2
ARM GAS  C:\Users\Sam\AppData\Local\Temp\ccTX1UXg.s 			page 35


 1122              		.global	MessageTimer_WriteCompare
 1123              		.code	16
 1124              		.thumb_func
 1125              		.type	MessageTimer_WriteCompare, %function
 1126              	MessageTimer_WriteCompare:
 1127              	.LFB22:
 818:.\Generated_Source\PSoC4/MessageTimer.c **** 
 819:.\Generated_Source\PSoC4/MessageTimer.c **** 
 820:.\Generated_Source\PSoC4/MessageTimer.c **** /*******************************************************************************
 821:.\Generated_Source\PSoC4/MessageTimer.c **** * Function Name: MessageTimer_WriteCompare
 822:.\Generated_Source\PSoC4/MessageTimer.c **** ********************************************************************************
 823:.\Generated_Source\PSoC4/MessageTimer.c **** *
 824:.\Generated_Source\PSoC4/MessageTimer.c **** * Summary:
 825:.\Generated_Source\PSoC4/MessageTimer.c **** *  Writes the 16 bit compare register with the new compare value. Not
 826:.\Generated_Source\PSoC4/MessageTimer.c **** *  applicable for Timer/Counter with Capture or in Quadrature Decoder modes.
 827:.\Generated_Source\PSoC4/MessageTimer.c **** *
 828:.\Generated_Source\PSoC4/MessageTimer.c **** * Parameters:
 829:.\Generated_Source\PSoC4/MessageTimer.c **** *  compare: Compare value
 830:.\Generated_Source\PSoC4/MessageTimer.c **** *
 831:.\Generated_Source\PSoC4/MessageTimer.c **** * Return:
 832:.\Generated_Source\PSoC4/MessageTimer.c **** *  None
 833:.\Generated_Source\PSoC4/MessageTimer.c **** *
 834:.\Generated_Source\PSoC4/MessageTimer.c **** *******************************************************************************/
 835:.\Generated_Source\PSoC4/MessageTimer.c **** void MessageTimer_WriteCompare(uint32 compare)
 836:.\Generated_Source\PSoC4/MessageTimer.c **** {
 1128              		.loc 1 836 0
 1129              		.cfi_startproc
 1130 0000 80B5     		push	{r7, lr}
 1131              		.cfi_def_cfa_offset 8
 1132              		.cfi_offset 7, -8
 1133              		.cfi_offset 14, -4
 1134 0002 82B0     		sub	sp, sp, #8
 1135              		.cfi_def_cfa_offset 16
 1136 0004 00AF     		add	r7, sp, #0
 1137              		.cfi_def_cfa_register 7
 1138 0006 7860     		str	r0, [r7, #4]
 837:.\Generated_Source\PSoC4/MessageTimer.c ****     #if (MessageTimer_CY_TCPWM_4000)
 838:.\Generated_Source\PSoC4/MessageTimer.c ****         uint32 currentMode;
 839:.\Generated_Source\PSoC4/MessageTimer.c ****     #endif /* (MessageTimer_CY_TCPWM_4000) */
 840:.\Generated_Source\PSoC4/MessageTimer.c **** 
 841:.\Generated_Source\PSoC4/MessageTimer.c ****     #if (MessageTimer_CY_TCPWM_4000)
 842:.\Generated_Source\PSoC4/MessageTimer.c ****         currentMode = ((MessageTimer_CONTROL_REG & MessageTimer_UPDOWN_MASK) >> MessageTimer_UPDOWN
 843:.\Generated_Source\PSoC4/MessageTimer.c **** 
 844:.\Generated_Source\PSoC4/MessageTimer.c ****         if (((uint32)MessageTimer__COUNT_DOWN == currentMode) && (0xFFFFu != compare))
 845:.\Generated_Source\PSoC4/MessageTimer.c ****         {
 846:.\Generated_Source\PSoC4/MessageTimer.c ****             compare++;
 847:.\Generated_Source\PSoC4/MessageTimer.c ****         }
 848:.\Generated_Source\PSoC4/MessageTimer.c ****         else if (((uint32)MessageTimer__COUNT_UP == currentMode) && (0u != compare))
 849:.\Generated_Source\PSoC4/MessageTimer.c ****         {
 850:.\Generated_Source\PSoC4/MessageTimer.c ****             compare--;
 851:.\Generated_Source\PSoC4/MessageTimer.c ****         }
 852:.\Generated_Source\PSoC4/MessageTimer.c ****         else
 853:.\Generated_Source\PSoC4/MessageTimer.c ****         {
 854:.\Generated_Source\PSoC4/MessageTimer.c ****         }
 855:.\Generated_Source\PSoC4/MessageTimer.c ****         
 856:.\Generated_Source\PSoC4/MessageTimer.c ****     
 857:.\Generated_Source\PSoC4/MessageTimer.c ****     #endif /* (MessageTimer_CY_TCPWM_4000) */
ARM GAS  C:\Users\Sam\AppData\Local\Temp\ccTX1UXg.s 			page 36


 858:.\Generated_Source\PSoC4/MessageTimer.c ****     
 859:.\Generated_Source\PSoC4/MessageTimer.c ****     MessageTimer_COMP_CAP_REG = (compare & MessageTimer_16BIT_MASK);
 1139              		.loc 1 859 0
 1140 0008 034B     		ldr	r3, .L72
 1141 000a 7A68     		ldr	r2, [r7, #4]
 1142 000c 1204     		lsl	r2, r2, #16
 1143 000e 120C     		lsr	r2, r2, #16
 1144 0010 1A60     		str	r2, [r3]
 860:.\Generated_Source\PSoC4/MessageTimer.c **** }
 1145              		.loc 1 860 0
 1146 0012 BD46     		mov	sp, r7
 1147 0014 02B0     		add	sp, sp, #8
 1148              		@ sp needed
 1149 0016 80BD     		pop	{r7, pc}
 1150              	.L73:
 1151              		.align	2
 1152              	.L72:
 1153 0018 0C010540 		.word	1074069772
 1154              		.cfi_endproc
 1155              	.LFE22:
 1156              		.size	MessageTimer_WriteCompare, .-MessageTimer_WriteCompare
 1157              		.section	.text.MessageTimer_ReadCompare,"ax",%progbits
 1158              		.align	2
 1159              		.global	MessageTimer_ReadCompare
 1160              		.code	16
 1161              		.thumb_func
 1162              		.type	MessageTimer_ReadCompare, %function
 1163              	MessageTimer_ReadCompare:
 1164              	.LFB23:
 861:.\Generated_Source\PSoC4/MessageTimer.c **** 
 862:.\Generated_Source\PSoC4/MessageTimer.c **** 
 863:.\Generated_Source\PSoC4/MessageTimer.c **** /*******************************************************************************
 864:.\Generated_Source\PSoC4/MessageTimer.c **** * Function Name: MessageTimer_ReadCompare
 865:.\Generated_Source\PSoC4/MessageTimer.c **** ********************************************************************************
 866:.\Generated_Source\PSoC4/MessageTimer.c **** *
 867:.\Generated_Source\PSoC4/MessageTimer.c **** * Summary:
 868:.\Generated_Source\PSoC4/MessageTimer.c **** *  Reads the compare register. Not applicable for Timer/Counter with Capture
 869:.\Generated_Source\PSoC4/MessageTimer.c **** *  or in Quadrature Decoder modes.
 870:.\Generated_Source\PSoC4/MessageTimer.c **** *
 871:.\Generated_Source\PSoC4/MessageTimer.c **** * Parameters:
 872:.\Generated_Source\PSoC4/MessageTimer.c **** *  None
 873:.\Generated_Source\PSoC4/MessageTimer.c **** *
 874:.\Generated_Source\PSoC4/MessageTimer.c **** * Return:
 875:.\Generated_Source\PSoC4/MessageTimer.c **** *  Compare value
 876:.\Generated_Source\PSoC4/MessageTimer.c **** *
 877:.\Generated_Source\PSoC4/MessageTimer.c **** *******************************************************************************/
 878:.\Generated_Source\PSoC4/MessageTimer.c **** uint32 MessageTimer_ReadCompare(void)
 879:.\Generated_Source\PSoC4/MessageTimer.c **** {
 1165              		.loc 1 879 0
 1166              		.cfi_startproc
 1167 0000 80B5     		push	{r7, lr}
 1168              		.cfi_def_cfa_offset 8
 1169              		.cfi_offset 7, -8
 1170              		.cfi_offset 14, -4
 1171 0002 00AF     		add	r7, sp, #0
 1172              		.cfi_def_cfa_register 7
 880:.\Generated_Source\PSoC4/MessageTimer.c ****     #if (MessageTimer_CY_TCPWM_4000)
ARM GAS  C:\Users\Sam\AppData\Local\Temp\ccTX1UXg.s 			page 37


 881:.\Generated_Source\PSoC4/MessageTimer.c ****         uint32 currentMode;
 882:.\Generated_Source\PSoC4/MessageTimer.c ****         uint32 regVal;
 883:.\Generated_Source\PSoC4/MessageTimer.c ****     #endif /* (MessageTimer_CY_TCPWM_4000) */
 884:.\Generated_Source\PSoC4/MessageTimer.c **** 
 885:.\Generated_Source\PSoC4/MessageTimer.c ****     #if (MessageTimer_CY_TCPWM_4000)
 886:.\Generated_Source\PSoC4/MessageTimer.c ****         currentMode = ((MessageTimer_CONTROL_REG & MessageTimer_UPDOWN_MASK) >> MessageTimer_UPDOWN
 887:.\Generated_Source\PSoC4/MessageTimer.c ****         
 888:.\Generated_Source\PSoC4/MessageTimer.c ****         regVal = MessageTimer_COMP_CAP_REG;
 889:.\Generated_Source\PSoC4/MessageTimer.c ****         
 890:.\Generated_Source\PSoC4/MessageTimer.c ****         if (((uint32)MessageTimer__COUNT_DOWN == currentMode) && (0u != regVal))
 891:.\Generated_Source\PSoC4/MessageTimer.c ****         {
 892:.\Generated_Source\PSoC4/MessageTimer.c ****             regVal--;
 893:.\Generated_Source\PSoC4/MessageTimer.c ****         }
 894:.\Generated_Source\PSoC4/MessageTimer.c ****         else if (((uint32)MessageTimer__COUNT_UP == currentMode) && (0xFFFFu != regVal))
 895:.\Generated_Source\PSoC4/MessageTimer.c ****         {
 896:.\Generated_Source\PSoC4/MessageTimer.c ****             regVal++;
 897:.\Generated_Source\PSoC4/MessageTimer.c ****         }
 898:.\Generated_Source\PSoC4/MessageTimer.c ****         else
 899:.\Generated_Source\PSoC4/MessageTimer.c ****         {
 900:.\Generated_Source\PSoC4/MessageTimer.c ****         }
 901:.\Generated_Source\PSoC4/MessageTimer.c **** 
 902:.\Generated_Source\PSoC4/MessageTimer.c ****         return (regVal & MessageTimer_16BIT_MASK);
 903:.\Generated_Source\PSoC4/MessageTimer.c ****     #else
 904:.\Generated_Source\PSoC4/MessageTimer.c ****         return (MessageTimer_COMP_CAP_REG & MessageTimer_16BIT_MASK);
 1173              		.loc 1 904 0
 1174 0004 034B     		ldr	r3, .L76
 1175 0006 1B68     		ldr	r3, [r3]
 1176 0008 1B04     		lsl	r3, r3, #16
 1177 000a 1B0C     		lsr	r3, r3, #16
 905:.\Generated_Source\PSoC4/MessageTimer.c ****     #endif /* (MessageTimer_CY_TCPWM_4000) */
 906:.\Generated_Source\PSoC4/MessageTimer.c **** }
 1178              		.loc 1 906 0
 1179 000c 181C     		mov	r0, r3
 1180 000e BD46     		mov	sp, r7
 1181              		@ sp needed
 1182 0010 80BD     		pop	{r7, pc}
 1183              	.L77:
 1184 0012 C046     		.align	2
 1185              	.L76:
 1186 0014 0C010540 		.word	1074069772
 1187              		.cfi_endproc
 1188              	.LFE23:
 1189              		.size	MessageTimer_ReadCompare, .-MessageTimer_ReadCompare
 1190              		.section	.text.MessageTimer_WriteCompareBuf,"ax",%progbits
 1191              		.align	2
 1192              		.global	MessageTimer_WriteCompareBuf
 1193              		.code	16
 1194              		.thumb_func
 1195              		.type	MessageTimer_WriteCompareBuf, %function
 1196              	MessageTimer_WriteCompareBuf:
 1197              	.LFB24:
 907:.\Generated_Source\PSoC4/MessageTimer.c **** 
 908:.\Generated_Source\PSoC4/MessageTimer.c **** 
 909:.\Generated_Source\PSoC4/MessageTimer.c **** /*******************************************************************************
 910:.\Generated_Source\PSoC4/MessageTimer.c **** * Function Name: MessageTimer_WriteCompareBuf
 911:.\Generated_Source\PSoC4/MessageTimer.c **** ********************************************************************************
 912:.\Generated_Source\PSoC4/MessageTimer.c **** *
ARM GAS  C:\Users\Sam\AppData\Local\Temp\ccTX1UXg.s 			page 38


 913:.\Generated_Source\PSoC4/MessageTimer.c **** * Summary:
 914:.\Generated_Source\PSoC4/MessageTimer.c **** *  Writes the 16 bit compare buffer register with the new compare value. Not
 915:.\Generated_Source\PSoC4/MessageTimer.c **** *  applicable for Timer/Counter with Capture or in Quadrature Decoder modes.
 916:.\Generated_Source\PSoC4/MessageTimer.c **** *
 917:.\Generated_Source\PSoC4/MessageTimer.c **** * Parameters:
 918:.\Generated_Source\PSoC4/MessageTimer.c **** *  compareBuf: Compare value
 919:.\Generated_Source\PSoC4/MessageTimer.c **** *
 920:.\Generated_Source\PSoC4/MessageTimer.c **** * Return:
 921:.\Generated_Source\PSoC4/MessageTimer.c **** *  None
 922:.\Generated_Source\PSoC4/MessageTimer.c **** *
 923:.\Generated_Source\PSoC4/MessageTimer.c **** *******************************************************************************/
 924:.\Generated_Source\PSoC4/MessageTimer.c **** void MessageTimer_WriteCompareBuf(uint32 compareBuf)
 925:.\Generated_Source\PSoC4/MessageTimer.c **** {
 1198              		.loc 1 925 0
 1199              		.cfi_startproc
 1200 0000 80B5     		push	{r7, lr}
 1201              		.cfi_def_cfa_offset 8
 1202              		.cfi_offset 7, -8
 1203              		.cfi_offset 14, -4
 1204 0002 82B0     		sub	sp, sp, #8
 1205              		.cfi_def_cfa_offset 16
 1206 0004 00AF     		add	r7, sp, #0
 1207              		.cfi_def_cfa_register 7
 1208 0006 7860     		str	r0, [r7, #4]
 926:.\Generated_Source\PSoC4/MessageTimer.c ****     #if (MessageTimer_CY_TCPWM_4000)
 927:.\Generated_Source\PSoC4/MessageTimer.c ****         uint32 currentMode;
 928:.\Generated_Source\PSoC4/MessageTimer.c ****     #endif /* (MessageTimer_CY_TCPWM_4000) */
 929:.\Generated_Source\PSoC4/MessageTimer.c **** 
 930:.\Generated_Source\PSoC4/MessageTimer.c ****     #if (MessageTimer_CY_TCPWM_4000)
 931:.\Generated_Source\PSoC4/MessageTimer.c ****         currentMode = ((MessageTimer_CONTROL_REG & MessageTimer_UPDOWN_MASK) >> MessageTimer_UPDOWN
 932:.\Generated_Source\PSoC4/MessageTimer.c **** 
 933:.\Generated_Source\PSoC4/MessageTimer.c ****         if (((uint32)MessageTimer__COUNT_DOWN == currentMode) && (0xFFFFu != compareBuf))
 934:.\Generated_Source\PSoC4/MessageTimer.c ****         {
 935:.\Generated_Source\PSoC4/MessageTimer.c ****             compareBuf++;
 936:.\Generated_Source\PSoC4/MessageTimer.c ****         }
 937:.\Generated_Source\PSoC4/MessageTimer.c ****         else if (((uint32)MessageTimer__COUNT_UP == currentMode) && (0u != compareBuf))
 938:.\Generated_Source\PSoC4/MessageTimer.c ****         {
 939:.\Generated_Source\PSoC4/MessageTimer.c ****             compareBuf --;
 940:.\Generated_Source\PSoC4/MessageTimer.c ****         }
 941:.\Generated_Source\PSoC4/MessageTimer.c ****         else
 942:.\Generated_Source\PSoC4/MessageTimer.c ****         {
 943:.\Generated_Source\PSoC4/MessageTimer.c ****         }
 944:.\Generated_Source\PSoC4/MessageTimer.c ****     #endif /* (MessageTimer_CY_TCPWM_4000) */
 945:.\Generated_Source\PSoC4/MessageTimer.c ****     
 946:.\Generated_Source\PSoC4/MessageTimer.c ****     MessageTimer_COMP_CAP_BUF_REG = (compareBuf & MessageTimer_16BIT_MASK);
 1209              		.loc 1 946 0
 1210 0008 034B     		ldr	r3, .L79
 1211 000a 7A68     		ldr	r2, [r7, #4]
 1212 000c 1204     		lsl	r2, r2, #16
 1213 000e 120C     		lsr	r2, r2, #16
 1214 0010 1A60     		str	r2, [r3]
 947:.\Generated_Source\PSoC4/MessageTimer.c **** }
 1215              		.loc 1 947 0
 1216 0012 BD46     		mov	sp, r7
 1217 0014 02B0     		add	sp, sp, #8
 1218              		@ sp needed
 1219 0016 80BD     		pop	{r7, pc}
ARM GAS  C:\Users\Sam\AppData\Local\Temp\ccTX1UXg.s 			page 39


 1220              	.L80:
 1221              		.align	2
 1222              	.L79:
 1223 0018 10010540 		.word	1074069776
 1224              		.cfi_endproc
 1225              	.LFE24:
 1226              		.size	MessageTimer_WriteCompareBuf, .-MessageTimer_WriteCompareBuf
 1227              		.section	.text.MessageTimer_ReadCompareBuf,"ax",%progbits
 1228              		.align	2
 1229              		.global	MessageTimer_ReadCompareBuf
 1230              		.code	16
 1231              		.thumb_func
 1232              		.type	MessageTimer_ReadCompareBuf, %function
 1233              	MessageTimer_ReadCompareBuf:
 1234              	.LFB25:
 948:.\Generated_Source\PSoC4/MessageTimer.c **** 
 949:.\Generated_Source\PSoC4/MessageTimer.c **** 
 950:.\Generated_Source\PSoC4/MessageTimer.c **** /*******************************************************************************
 951:.\Generated_Source\PSoC4/MessageTimer.c **** * Function Name: MessageTimer_ReadCompareBuf
 952:.\Generated_Source\PSoC4/MessageTimer.c **** ********************************************************************************
 953:.\Generated_Source\PSoC4/MessageTimer.c **** *
 954:.\Generated_Source\PSoC4/MessageTimer.c **** * Summary:
 955:.\Generated_Source\PSoC4/MessageTimer.c **** *  Reads the compare buffer register. Not applicable for Timer/Counter with
 956:.\Generated_Source\PSoC4/MessageTimer.c **** *  Capture or in Quadrature Decoder modes.
 957:.\Generated_Source\PSoC4/MessageTimer.c **** *
 958:.\Generated_Source\PSoC4/MessageTimer.c **** * Parameters:
 959:.\Generated_Source\PSoC4/MessageTimer.c **** *  None
 960:.\Generated_Source\PSoC4/MessageTimer.c **** *
 961:.\Generated_Source\PSoC4/MessageTimer.c **** * Return:
 962:.\Generated_Source\PSoC4/MessageTimer.c **** *  Compare buffer value
 963:.\Generated_Source\PSoC4/MessageTimer.c **** *
 964:.\Generated_Source\PSoC4/MessageTimer.c **** *******************************************************************************/
 965:.\Generated_Source\PSoC4/MessageTimer.c **** uint32 MessageTimer_ReadCompareBuf(void)
 966:.\Generated_Source\PSoC4/MessageTimer.c **** {
 1235              		.loc 1 966 0
 1236              		.cfi_startproc
 1237 0000 80B5     		push	{r7, lr}
 1238              		.cfi_def_cfa_offset 8
 1239              		.cfi_offset 7, -8
 1240              		.cfi_offset 14, -4
 1241 0002 00AF     		add	r7, sp, #0
 1242              		.cfi_def_cfa_register 7
 967:.\Generated_Source\PSoC4/MessageTimer.c ****     #if (MessageTimer_CY_TCPWM_4000)
 968:.\Generated_Source\PSoC4/MessageTimer.c ****         uint32 currentMode;
 969:.\Generated_Source\PSoC4/MessageTimer.c ****         uint32 regVal;
 970:.\Generated_Source\PSoC4/MessageTimer.c ****     #endif /* (MessageTimer_CY_TCPWM_4000) */
 971:.\Generated_Source\PSoC4/MessageTimer.c **** 
 972:.\Generated_Source\PSoC4/MessageTimer.c ****     #if (MessageTimer_CY_TCPWM_4000)
 973:.\Generated_Source\PSoC4/MessageTimer.c ****         currentMode = ((MessageTimer_CONTROL_REG & MessageTimer_UPDOWN_MASK) >> MessageTimer_UPDOWN
 974:.\Generated_Source\PSoC4/MessageTimer.c **** 
 975:.\Generated_Source\PSoC4/MessageTimer.c ****         regVal = MessageTimer_COMP_CAP_BUF_REG;
 976:.\Generated_Source\PSoC4/MessageTimer.c ****         
 977:.\Generated_Source\PSoC4/MessageTimer.c ****         if (((uint32)MessageTimer__COUNT_DOWN == currentMode) && (0u != regVal))
 978:.\Generated_Source\PSoC4/MessageTimer.c ****         {
 979:.\Generated_Source\PSoC4/MessageTimer.c ****             regVal--;
 980:.\Generated_Source\PSoC4/MessageTimer.c ****         }
 981:.\Generated_Source\PSoC4/MessageTimer.c ****         else if (((uint32)MessageTimer__COUNT_UP == currentMode) && (0xFFFFu != regVal))
ARM GAS  C:\Users\Sam\AppData\Local\Temp\ccTX1UXg.s 			page 40


 982:.\Generated_Source\PSoC4/MessageTimer.c ****         {
 983:.\Generated_Source\PSoC4/MessageTimer.c ****             regVal++;
 984:.\Generated_Source\PSoC4/MessageTimer.c ****         }
 985:.\Generated_Source\PSoC4/MessageTimer.c ****         else
 986:.\Generated_Source\PSoC4/MessageTimer.c ****         {
 987:.\Generated_Source\PSoC4/MessageTimer.c ****         }
 988:.\Generated_Source\PSoC4/MessageTimer.c **** 
 989:.\Generated_Source\PSoC4/MessageTimer.c ****         return (regVal & MessageTimer_16BIT_MASK);
 990:.\Generated_Source\PSoC4/MessageTimer.c ****     #else
 991:.\Generated_Source\PSoC4/MessageTimer.c ****         return (MessageTimer_COMP_CAP_BUF_REG & MessageTimer_16BIT_MASK);
 1243              		.loc 1 991 0
 1244 0004 034B     		ldr	r3, .L83
 1245 0006 1B68     		ldr	r3, [r3]
 1246 0008 1B04     		lsl	r3, r3, #16
 1247 000a 1B0C     		lsr	r3, r3, #16
 992:.\Generated_Source\PSoC4/MessageTimer.c ****     #endif /* (MessageTimer_CY_TCPWM_4000) */
 993:.\Generated_Source\PSoC4/MessageTimer.c **** }
 1248              		.loc 1 993 0
 1249 000c 181C     		mov	r0, r3
 1250 000e BD46     		mov	sp, r7
 1251              		@ sp needed
 1252 0010 80BD     		pop	{r7, pc}
 1253              	.L84:
 1254 0012 C046     		.align	2
 1255              	.L83:
 1256 0014 10010540 		.word	1074069776
 1257              		.cfi_endproc
 1258              	.LFE25:
 1259              		.size	MessageTimer_ReadCompareBuf, .-MessageTimer_ReadCompareBuf
 1260              		.section	.text.MessageTimer_ReadCapture,"ax",%progbits
 1261              		.align	2
 1262              		.global	MessageTimer_ReadCapture
 1263              		.code	16
 1264              		.thumb_func
 1265              		.type	MessageTimer_ReadCapture, %function
 1266              	MessageTimer_ReadCapture:
 1267              	.LFB26:
 994:.\Generated_Source\PSoC4/MessageTimer.c **** 
 995:.\Generated_Source\PSoC4/MessageTimer.c **** 
 996:.\Generated_Source\PSoC4/MessageTimer.c **** /*******************************************************************************
 997:.\Generated_Source\PSoC4/MessageTimer.c **** * Function Name: MessageTimer_ReadCapture
 998:.\Generated_Source\PSoC4/MessageTimer.c **** ********************************************************************************
 999:.\Generated_Source\PSoC4/MessageTimer.c **** *
1000:.\Generated_Source\PSoC4/MessageTimer.c **** * Summary:
1001:.\Generated_Source\PSoC4/MessageTimer.c **** *  Reads the captured counter value. This API is applicable only for
1002:.\Generated_Source\PSoC4/MessageTimer.c **** *  Timer/Counter with the capture mode and Quadrature Decoder modes.
1003:.\Generated_Source\PSoC4/MessageTimer.c **** *
1004:.\Generated_Source\PSoC4/MessageTimer.c **** * Parameters:
1005:.\Generated_Source\PSoC4/MessageTimer.c **** *  None
1006:.\Generated_Source\PSoC4/MessageTimer.c **** *
1007:.\Generated_Source\PSoC4/MessageTimer.c **** * Return:
1008:.\Generated_Source\PSoC4/MessageTimer.c **** *  Capture value
1009:.\Generated_Source\PSoC4/MessageTimer.c **** *
1010:.\Generated_Source\PSoC4/MessageTimer.c **** *******************************************************************************/
1011:.\Generated_Source\PSoC4/MessageTimer.c **** uint32 MessageTimer_ReadCapture(void)
1012:.\Generated_Source\PSoC4/MessageTimer.c **** {
 1268              		.loc 1 1012 0
ARM GAS  C:\Users\Sam\AppData\Local\Temp\ccTX1UXg.s 			page 41


 1269              		.cfi_startproc
 1270 0000 80B5     		push	{r7, lr}
 1271              		.cfi_def_cfa_offset 8
 1272              		.cfi_offset 7, -8
 1273              		.cfi_offset 14, -4
 1274 0002 00AF     		add	r7, sp, #0
 1275              		.cfi_def_cfa_register 7
1013:.\Generated_Source\PSoC4/MessageTimer.c ****     return (MessageTimer_COMP_CAP_REG & MessageTimer_16BIT_MASK);
 1276              		.loc 1 1013 0
 1277 0004 034B     		ldr	r3, .L87
 1278 0006 1B68     		ldr	r3, [r3]
 1279 0008 1B04     		lsl	r3, r3, #16
 1280 000a 1B0C     		lsr	r3, r3, #16
1014:.\Generated_Source\PSoC4/MessageTimer.c **** }
 1281              		.loc 1 1014 0
 1282 000c 181C     		mov	r0, r3
 1283 000e BD46     		mov	sp, r7
 1284              		@ sp needed
 1285 0010 80BD     		pop	{r7, pc}
 1286              	.L88:
 1287 0012 C046     		.align	2
 1288              	.L87:
 1289 0014 0C010540 		.word	1074069772
 1290              		.cfi_endproc
 1291              	.LFE26:
 1292              		.size	MessageTimer_ReadCapture, .-MessageTimer_ReadCapture
 1293              		.section	.text.MessageTimer_ReadCaptureBuf,"ax",%progbits
 1294              		.align	2
 1295              		.global	MessageTimer_ReadCaptureBuf
 1296              		.code	16
 1297              		.thumb_func
 1298              		.type	MessageTimer_ReadCaptureBuf, %function
 1299              	MessageTimer_ReadCaptureBuf:
 1300              	.LFB27:
1015:.\Generated_Source\PSoC4/MessageTimer.c **** 
1016:.\Generated_Source\PSoC4/MessageTimer.c **** 
1017:.\Generated_Source\PSoC4/MessageTimer.c **** /*******************************************************************************
1018:.\Generated_Source\PSoC4/MessageTimer.c **** * Function Name: MessageTimer_ReadCaptureBuf
1019:.\Generated_Source\PSoC4/MessageTimer.c **** ********************************************************************************
1020:.\Generated_Source\PSoC4/MessageTimer.c **** *
1021:.\Generated_Source\PSoC4/MessageTimer.c **** * Summary:
1022:.\Generated_Source\PSoC4/MessageTimer.c **** *  Reads the capture buffer register. This API is applicable only for
1023:.\Generated_Source\PSoC4/MessageTimer.c **** *  Timer/Counter with the capture mode and Quadrature Decoder modes.
1024:.\Generated_Source\PSoC4/MessageTimer.c **** *
1025:.\Generated_Source\PSoC4/MessageTimer.c **** * Parameters:
1026:.\Generated_Source\PSoC4/MessageTimer.c **** *  None
1027:.\Generated_Source\PSoC4/MessageTimer.c **** *
1028:.\Generated_Source\PSoC4/MessageTimer.c **** * Return:
1029:.\Generated_Source\PSoC4/MessageTimer.c **** *  Capture buffer value
1030:.\Generated_Source\PSoC4/MessageTimer.c **** *
1031:.\Generated_Source\PSoC4/MessageTimer.c **** *******************************************************************************/
1032:.\Generated_Source\PSoC4/MessageTimer.c **** uint32 MessageTimer_ReadCaptureBuf(void)
1033:.\Generated_Source\PSoC4/MessageTimer.c **** {
 1301              		.loc 1 1033 0
 1302              		.cfi_startproc
 1303 0000 80B5     		push	{r7, lr}
 1304              		.cfi_def_cfa_offset 8
ARM GAS  C:\Users\Sam\AppData\Local\Temp\ccTX1UXg.s 			page 42


 1305              		.cfi_offset 7, -8
 1306              		.cfi_offset 14, -4
 1307 0002 00AF     		add	r7, sp, #0
 1308              		.cfi_def_cfa_register 7
1034:.\Generated_Source\PSoC4/MessageTimer.c ****     return (MessageTimer_COMP_CAP_BUF_REG & MessageTimer_16BIT_MASK);
 1309              		.loc 1 1034 0
 1310 0004 034B     		ldr	r3, .L91
 1311 0006 1B68     		ldr	r3, [r3]
 1312 0008 1B04     		lsl	r3, r3, #16
 1313 000a 1B0C     		lsr	r3, r3, #16
1035:.\Generated_Source\PSoC4/MessageTimer.c **** }
 1314              		.loc 1 1035 0
 1315 000c 181C     		mov	r0, r3
 1316 000e BD46     		mov	sp, r7
 1317              		@ sp needed
 1318 0010 80BD     		pop	{r7, pc}
 1319              	.L92:
 1320 0012 C046     		.align	2
 1321              	.L91:
 1322 0014 10010540 		.word	1074069776
 1323              		.cfi_endproc
 1324              	.LFE27:
 1325              		.size	MessageTimer_ReadCaptureBuf, .-MessageTimer_ReadCaptureBuf
 1326              		.section	.text.MessageTimer_SetCaptureMode,"ax",%progbits
 1327              		.align	2
 1328              		.global	MessageTimer_SetCaptureMode
 1329              		.code	16
 1330              		.thumb_func
 1331              		.type	MessageTimer_SetCaptureMode, %function
 1332              	MessageTimer_SetCaptureMode:
 1333              	.LFB28:
1036:.\Generated_Source\PSoC4/MessageTimer.c **** 
1037:.\Generated_Source\PSoC4/MessageTimer.c **** 
1038:.\Generated_Source\PSoC4/MessageTimer.c **** /*******************************************************************************
1039:.\Generated_Source\PSoC4/MessageTimer.c **** * Function Name: MessageTimer_SetCaptureMode
1040:.\Generated_Source\PSoC4/MessageTimer.c **** ********************************************************************************
1041:.\Generated_Source\PSoC4/MessageTimer.c **** *
1042:.\Generated_Source\PSoC4/MessageTimer.c **** * Summary:
1043:.\Generated_Source\PSoC4/MessageTimer.c **** *  Sets the capture trigger mode. For PWM mode this is the switch input.
1044:.\Generated_Source\PSoC4/MessageTimer.c **** *  This input is not applicable to the Timer/Counter without Capture and
1045:.\Generated_Source\PSoC4/MessageTimer.c **** *  Quadrature Decoder modes.
1046:.\Generated_Source\PSoC4/MessageTimer.c **** *
1047:.\Generated_Source\PSoC4/MessageTimer.c **** * Parameters:
1048:.\Generated_Source\PSoC4/MessageTimer.c **** *  triggerMode: Enumerated trigger mode value
1049:.\Generated_Source\PSoC4/MessageTimer.c **** *   Values:
1050:.\Generated_Source\PSoC4/MessageTimer.c **** *     - MessageTimer_TRIG_LEVEL     - Level
1051:.\Generated_Source\PSoC4/MessageTimer.c **** *     - MessageTimer_TRIG_RISING    - Rising edge
1052:.\Generated_Source\PSoC4/MessageTimer.c **** *     - MessageTimer_TRIG_FALLING   - Falling edge
1053:.\Generated_Source\PSoC4/MessageTimer.c **** *     - MessageTimer_TRIG_BOTH      - Both rising and falling edge
1054:.\Generated_Source\PSoC4/MessageTimer.c **** *
1055:.\Generated_Source\PSoC4/MessageTimer.c **** * Return:
1056:.\Generated_Source\PSoC4/MessageTimer.c **** *  None
1057:.\Generated_Source\PSoC4/MessageTimer.c **** *
1058:.\Generated_Source\PSoC4/MessageTimer.c **** *******************************************************************************/
1059:.\Generated_Source\PSoC4/MessageTimer.c **** void MessageTimer_SetCaptureMode(uint32 triggerMode)
1060:.\Generated_Source\PSoC4/MessageTimer.c **** {
 1334              		.loc 1 1060 0
ARM GAS  C:\Users\Sam\AppData\Local\Temp\ccTX1UXg.s 			page 43


 1335              		.cfi_startproc
 1336 0000 90B5     		push	{r4, r7, lr}
 1337              		.cfi_def_cfa_offset 12
 1338              		.cfi_offset 4, -12
 1339              		.cfi_offset 7, -8
 1340              		.cfi_offset 14, -4
 1341 0002 85B0     		sub	sp, sp, #20
 1342              		.cfi_def_cfa_offset 32
 1343 0004 00AF     		add	r7, sp, #0
 1344              		.cfi_def_cfa_register 7
 1345 0006 7860     		str	r0, [r7, #4]
1061:.\Generated_Source\PSoC4/MessageTimer.c ****     uint8 enableInterrupts;
1062:.\Generated_Source\PSoC4/MessageTimer.c **** 
1063:.\Generated_Source\PSoC4/MessageTimer.c ****     enableInterrupts = CyEnterCriticalSection();
 1346              		.loc 1 1063 0
 1347 0008 3C1C     		mov	r4, r7
 1348 000a 0F34     		add	r4, r4, #15
 1349 000c FFF7FEFF 		bl	CyEnterCriticalSection
 1350 0010 031C     		mov	r3, r0
 1351 0012 2370     		strb	r3, [r4]
1064:.\Generated_Source\PSoC4/MessageTimer.c **** 
1065:.\Generated_Source\PSoC4/MessageTimer.c ****     MessageTimer_TRIG_CONTROL1_REG &= (uint32)~MessageTimer_CAPTURE_MASK;
 1352              		.loc 1 1065 0
 1353 0014 0A4B     		ldr	r3, .L94
 1354 0016 0A4A     		ldr	r2, .L94
 1355 0018 1268     		ldr	r2, [r2]
 1356 001a 0321     		mov	r1, #3
 1357 001c 8A43     		bic	r2, r1
 1358 001e 1A60     		str	r2, [r3]
1066:.\Generated_Source\PSoC4/MessageTimer.c ****     MessageTimer_TRIG_CONTROL1_REG |= triggerMode;
 1359              		.loc 1 1066 0
 1360 0020 074B     		ldr	r3, .L94
 1361 0022 074A     		ldr	r2, .L94
 1362 0024 1168     		ldr	r1, [r2]
 1363 0026 7A68     		ldr	r2, [r7, #4]
 1364 0028 0A43     		orr	r2, r1
 1365 002a 1A60     		str	r2, [r3]
1067:.\Generated_Source\PSoC4/MessageTimer.c **** 
1068:.\Generated_Source\PSoC4/MessageTimer.c ****     CyExitCriticalSection(enableInterrupts);
 1366              		.loc 1 1068 0
 1367 002c 3B1C     		mov	r3, r7
 1368 002e 0F33     		add	r3, r3, #15
 1369 0030 1B78     		ldrb	r3, [r3]
 1370 0032 181C     		mov	r0, r3
 1371 0034 FFF7FEFF 		bl	CyExitCriticalSection
1069:.\Generated_Source\PSoC4/MessageTimer.c **** }
 1372              		.loc 1 1069 0
 1373 0038 BD46     		mov	sp, r7
 1374 003a 05B0     		add	sp, sp, #20
 1375              		@ sp needed
 1376 003c 90BD     		pop	{r4, r7, pc}
 1377              	.L95:
 1378 003e C046     		.align	2
 1379              	.L94:
 1380 0040 24010540 		.word	1074069796
 1381              		.cfi_endproc
 1382              	.LFE28:
ARM GAS  C:\Users\Sam\AppData\Local\Temp\ccTX1UXg.s 			page 44


 1383              		.size	MessageTimer_SetCaptureMode, .-MessageTimer_SetCaptureMode
 1384              		.section	.text.MessageTimer_SetReloadMode,"ax",%progbits
 1385              		.align	2
 1386              		.global	MessageTimer_SetReloadMode
 1387              		.code	16
 1388              		.thumb_func
 1389              		.type	MessageTimer_SetReloadMode, %function
 1390              	MessageTimer_SetReloadMode:
 1391              	.LFB29:
1070:.\Generated_Source\PSoC4/MessageTimer.c **** 
1071:.\Generated_Source\PSoC4/MessageTimer.c **** 
1072:.\Generated_Source\PSoC4/MessageTimer.c **** /*******************************************************************************
1073:.\Generated_Source\PSoC4/MessageTimer.c **** * Function Name: MessageTimer_SetReloadMode
1074:.\Generated_Source\PSoC4/MessageTimer.c **** ********************************************************************************
1075:.\Generated_Source\PSoC4/MessageTimer.c **** *
1076:.\Generated_Source\PSoC4/MessageTimer.c **** * Summary:
1077:.\Generated_Source\PSoC4/MessageTimer.c **** *  Sets the reload trigger mode. For Quadrature Decoder mode this is the index
1078:.\Generated_Source\PSoC4/MessageTimer.c **** *  input.
1079:.\Generated_Source\PSoC4/MessageTimer.c **** *
1080:.\Generated_Source\PSoC4/MessageTimer.c **** * Parameters:
1081:.\Generated_Source\PSoC4/MessageTimer.c **** *  triggerMode: Enumerated trigger mode value
1082:.\Generated_Source\PSoC4/MessageTimer.c **** *   Values:
1083:.\Generated_Source\PSoC4/MessageTimer.c **** *     - MessageTimer_TRIG_LEVEL     - Level
1084:.\Generated_Source\PSoC4/MessageTimer.c **** *     - MessageTimer_TRIG_RISING    - Rising edge
1085:.\Generated_Source\PSoC4/MessageTimer.c **** *     - MessageTimer_TRIG_FALLING   - Falling edge
1086:.\Generated_Source\PSoC4/MessageTimer.c **** *     - MessageTimer_TRIG_BOTH      - Both rising and falling edge
1087:.\Generated_Source\PSoC4/MessageTimer.c **** *
1088:.\Generated_Source\PSoC4/MessageTimer.c **** * Return:
1089:.\Generated_Source\PSoC4/MessageTimer.c **** *  None
1090:.\Generated_Source\PSoC4/MessageTimer.c **** *
1091:.\Generated_Source\PSoC4/MessageTimer.c **** *******************************************************************************/
1092:.\Generated_Source\PSoC4/MessageTimer.c **** void MessageTimer_SetReloadMode(uint32 triggerMode)
1093:.\Generated_Source\PSoC4/MessageTimer.c **** {
 1392              		.loc 1 1093 0
 1393              		.cfi_startproc
 1394 0000 90B5     		push	{r4, r7, lr}
 1395              		.cfi_def_cfa_offset 12
 1396              		.cfi_offset 4, -12
 1397              		.cfi_offset 7, -8
 1398              		.cfi_offset 14, -4
 1399 0002 85B0     		sub	sp, sp, #20
 1400              		.cfi_def_cfa_offset 32
 1401 0004 00AF     		add	r7, sp, #0
 1402              		.cfi_def_cfa_register 7
 1403 0006 7860     		str	r0, [r7, #4]
1094:.\Generated_Source\PSoC4/MessageTimer.c ****     uint8 enableInterrupts;
1095:.\Generated_Source\PSoC4/MessageTimer.c **** 
1096:.\Generated_Source\PSoC4/MessageTimer.c ****     enableInterrupts = CyEnterCriticalSection();
 1404              		.loc 1 1096 0
 1405 0008 3C1C     		mov	r4, r7
 1406 000a 0F34     		add	r4, r4, #15
 1407 000c FFF7FEFF 		bl	CyEnterCriticalSection
 1408 0010 031C     		mov	r3, r0
 1409 0012 2370     		strb	r3, [r4]
1097:.\Generated_Source\PSoC4/MessageTimer.c **** 
1098:.\Generated_Source\PSoC4/MessageTimer.c ****     MessageTimer_TRIG_CONTROL1_REG &= (uint32)~MessageTimer_RELOAD_MASK;
 1410              		.loc 1 1098 0
ARM GAS  C:\Users\Sam\AppData\Local\Temp\ccTX1UXg.s 			page 45


 1411 0014 0A4B     		ldr	r3, .L97
 1412 0016 0A4A     		ldr	r2, .L97
 1413 0018 1268     		ldr	r2, [r2]
 1414 001a 3021     		mov	r1, #48
 1415 001c 8A43     		bic	r2, r1
 1416 001e 1A60     		str	r2, [r3]
1099:.\Generated_Source\PSoC4/MessageTimer.c ****     MessageTimer_TRIG_CONTROL1_REG |= ((uint32)(triggerMode << MessageTimer_RELOAD_SHIFT));
 1417              		.loc 1 1099 0
 1418 0020 074B     		ldr	r3, .L97
 1419 0022 074A     		ldr	r2, .L97
 1420 0024 1168     		ldr	r1, [r2]
 1421 0026 7A68     		ldr	r2, [r7, #4]
 1422 0028 1201     		lsl	r2, r2, #4
 1423 002a 0A43     		orr	r2, r1
 1424 002c 1A60     		str	r2, [r3]
1100:.\Generated_Source\PSoC4/MessageTimer.c **** 
1101:.\Generated_Source\PSoC4/MessageTimer.c ****     CyExitCriticalSection(enableInterrupts);
 1425              		.loc 1 1101 0
 1426 002e 3B1C     		mov	r3, r7
 1427 0030 0F33     		add	r3, r3, #15
 1428 0032 1B78     		ldrb	r3, [r3]
 1429 0034 181C     		mov	r0, r3
 1430 0036 FFF7FEFF 		bl	CyExitCriticalSection
1102:.\Generated_Source\PSoC4/MessageTimer.c **** }
 1431              		.loc 1 1102 0
 1432 003a BD46     		mov	sp, r7
 1433 003c 05B0     		add	sp, sp, #20
 1434              		@ sp needed
 1435 003e 90BD     		pop	{r4, r7, pc}
 1436              	.L98:
 1437              		.align	2
 1438              	.L97:
 1439 0040 24010540 		.word	1074069796
 1440              		.cfi_endproc
 1441              	.LFE29:
 1442              		.size	MessageTimer_SetReloadMode, .-MessageTimer_SetReloadMode
 1443              		.section	.text.MessageTimer_SetStartMode,"ax",%progbits
 1444              		.align	2
 1445              		.global	MessageTimer_SetStartMode
 1446              		.code	16
 1447              		.thumb_func
 1448              		.type	MessageTimer_SetStartMode, %function
 1449              	MessageTimer_SetStartMode:
 1450              	.LFB30:
1103:.\Generated_Source\PSoC4/MessageTimer.c **** 
1104:.\Generated_Source\PSoC4/MessageTimer.c **** 
1105:.\Generated_Source\PSoC4/MessageTimer.c **** /*******************************************************************************
1106:.\Generated_Source\PSoC4/MessageTimer.c **** * Function Name: MessageTimer_SetStartMode
1107:.\Generated_Source\PSoC4/MessageTimer.c **** ********************************************************************************
1108:.\Generated_Source\PSoC4/MessageTimer.c **** *
1109:.\Generated_Source\PSoC4/MessageTimer.c **** * Summary:
1110:.\Generated_Source\PSoC4/MessageTimer.c **** *  Sets the start trigger mode. For Quadrature Decoder mode this is the
1111:.\Generated_Source\PSoC4/MessageTimer.c **** *  phiB input.
1112:.\Generated_Source\PSoC4/MessageTimer.c **** *
1113:.\Generated_Source\PSoC4/MessageTimer.c **** * Parameters:
1114:.\Generated_Source\PSoC4/MessageTimer.c **** *  triggerMode: Enumerated trigger mode value
1115:.\Generated_Source\PSoC4/MessageTimer.c **** *   Values:
ARM GAS  C:\Users\Sam\AppData\Local\Temp\ccTX1UXg.s 			page 46


1116:.\Generated_Source\PSoC4/MessageTimer.c **** *     - MessageTimer_TRIG_LEVEL     - Level
1117:.\Generated_Source\PSoC4/MessageTimer.c **** *     - MessageTimer_TRIG_RISING    - Rising edge
1118:.\Generated_Source\PSoC4/MessageTimer.c **** *     - MessageTimer_TRIG_FALLING   - Falling edge
1119:.\Generated_Source\PSoC4/MessageTimer.c **** *     - MessageTimer_TRIG_BOTH      - Both rising and falling edge
1120:.\Generated_Source\PSoC4/MessageTimer.c **** *
1121:.\Generated_Source\PSoC4/MessageTimer.c **** * Return:
1122:.\Generated_Source\PSoC4/MessageTimer.c **** *  None
1123:.\Generated_Source\PSoC4/MessageTimer.c **** *
1124:.\Generated_Source\PSoC4/MessageTimer.c **** *******************************************************************************/
1125:.\Generated_Source\PSoC4/MessageTimer.c **** void MessageTimer_SetStartMode(uint32 triggerMode)
1126:.\Generated_Source\PSoC4/MessageTimer.c **** {
 1451              		.loc 1 1126 0
 1452              		.cfi_startproc
 1453 0000 90B5     		push	{r4, r7, lr}
 1454              		.cfi_def_cfa_offset 12
 1455              		.cfi_offset 4, -12
 1456              		.cfi_offset 7, -8
 1457              		.cfi_offset 14, -4
 1458 0002 85B0     		sub	sp, sp, #20
 1459              		.cfi_def_cfa_offset 32
 1460 0004 00AF     		add	r7, sp, #0
 1461              		.cfi_def_cfa_register 7
 1462 0006 7860     		str	r0, [r7, #4]
1127:.\Generated_Source\PSoC4/MessageTimer.c ****     uint8 enableInterrupts;
1128:.\Generated_Source\PSoC4/MessageTimer.c **** 
1129:.\Generated_Source\PSoC4/MessageTimer.c ****     enableInterrupts = CyEnterCriticalSection();
 1463              		.loc 1 1129 0
 1464 0008 3C1C     		mov	r4, r7
 1465 000a 0F34     		add	r4, r4, #15
 1466 000c FFF7FEFF 		bl	CyEnterCriticalSection
 1467 0010 031C     		mov	r3, r0
 1468 0012 2370     		strb	r3, [r4]
1130:.\Generated_Source\PSoC4/MessageTimer.c **** 
1131:.\Generated_Source\PSoC4/MessageTimer.c ****     MessageTimer_TRIG_CONTROL1_REG &= (uint32)~MessageTimer_START_MASK;
 1469              		.loc 1 1131 0
 1470 0014 0A4B     		ldr	r3, .L100
 1471 0016 0A4A     		ldr	r2, .L100
 1472 0018 1168     		ldr	r1, [r2]
 1473 001a 0A4A     		ldr	r2, .L100+4
 1474 001c 0A40     		and	r2, r1
 1475 001e 1A60     		str	r2, [r3]
1132:.\Generated_Source\PSoC4/MessageTimer.c ****     MessageTimer_TRIG_CONTROL1_REG |= ((uint32)(triggerMode << MessageTimer_START_SHIFT));
 1476              		.loc 1 1132 0
 1477 0020 074B     		ldr	r3, .L100
 1478 0022 074A     		ldr	r2, .L100
 1479 0024 1168     		ldr	r1, [r2]
 1480 0026 7A68     		ldr	r2, [r7, #4]
 1481 0028 1202     		lsl	r2, r2, #8
 1482 002a 0A43     		orr	r2, r1
 1483 002c 1A60     		str	r2, [r3]
1133:.\Generated_Source\PSoC4/MessageTimer.c **** 
1134:.\Generated_Source\PSoC4/MessageTimer.c ****     CyExitCriticalSection(enableInterrupts);
 1484              		.loc 1 1134 0
 1485 002e 3B1C     		mov	r3, r7
 1486 0030 0F33     		add	r3, r3, #15
 1487 0032 1B78     		ldrb	r3, [r3]
 1488 0034 181C     		mov	r0, r3
ARM GAS  C:\Users\Sam\AppData\Local\Temp\ccTX1UXg.s 			page 47


 1489 0036 FFF7FEFF 		bl	CyExitCriticalSection
1135:.\Generated_Source\PSoC4/MessageTimer.c **** }
 1490              		.loc 1 1135 0
 1491 003a BD46     		mov	sp, r7
 1492 003c 05B0     		add	sp, sp, #20
 1493              		@ sp needed
 1494 003e 90BD     		pop	{r4, r7, pc}
 1495              	.L101:
 1496              		.align	2
 1497              	.L100:
 1498 0040 24010540 		.word	1074069796
 1499 0044 FFFCFFFF 		.word	-769
 1500              		.cfi_endproc
 1501              	.LFE30:
 1502              		.size	MessageTimer_SetStartMode, .-MessageTimer_SetStartMode
 1503              		.section	.text.MessageTimer_SetStopMode,"ax",%progbits
 1504              		.align	2
 1505              		.global	MessageTimer_SetStopMode
 1506              		.code	16
 1507              		.thumb_func
 1508              		.type	MessageTimer_SetStopMode, %function
 1509              	MessageTimer_SetStopMode:
 1510              	.LFB31:
1136:.\Generated_Source\PSoC4/MessageTimer.c **** 
1137:.\Generated_Source\PSoC4/MessageTimer.c **** 
1138:.\Generated_Source\PSoC4/MessageTimer.c **** /*******************************************************************************
1139:.\Generated_Source\PSoC4/MessageTimer.c **** * Function Name: MessageTimer_SetStopMode
1140:.\Generated_Source\PSoC4/MessageTimer.c **** ********************************************************************************
1141:.\Generated_Source\PSoC4/MessageTimer.c **** *
1142:.\Generated_Source\PSoC4/MessageTimer.c **** * Summary:
1143:.\Generated_Source\PSoC4/MessageTimer.c **** *  Sets the stop trigger mode. For PWM mode this is the kill input.
1144:.\Generated_Source\PSoC4/MessageTimer.c **** *
1145:.\Generated_Source\PSoC4/MessageTimer.c **** * Parameters:
1146:.\Generated_Source\PSoC4/MessageTimer.c **** *  triggerMode: Enumerated trigger mode value
1147:.\Generated_Source\PSoC4/MessageTimer.c **** *   Values:
1148:.\Generated_Source\PSoC4/MessageTimer.c **** *     - MessageTimer_TRIG_LEVEL     - Level
1149:.\Generated_Source\PSoC4/MessageTimer.c **** *     - MessageTimer_TRIG_RISING    - Rising edge
1150:.\Generated_Source\PSoC4/MessageTimer.c **** *     - MessageTimer_TRIG_FALLING   - Falling edge
1151:.\Generated_Source\PSoC4/MessageTimer.c **** *     - MessageTimer_TRIG_BOTH      - Both rising and falling edge
1152:.\Generated_Source\PSoC4/MessageTimer.c **** *
1153:.\Generated_Source\PSoC4/MessageTimer.c **** * Return:
1154:.\Generated_Source\PSoC4/MessageTimer.c **** *  None
1155:.\Generated_Source\PSoC4/MessageTimer.c **** *
1156:.\Generated_Source\PSoC4/MessageTimer.c **** *******************************************************************************/
1157:.\Generated_Source\PSoC4/MessageTimer.c **** void MessageTimer_SetStopMode(uint32 triggerMode)
1158:.\Generated_Source\PSoC4/MessageTimer.c **** {
 1511              		.loc 1 1158 0
 1512              		.cfi_startproc
 1513 0000 90B5     		push	{r4, r7, lr}
 1514              		.cfi_def_cfa_offset 12
 1515              		.cfi_offset 4, -12
 1516              		.cfi_offset 7, -8
 1517              		.cfi_offset 14, -4
 1518 0002 85B0     		sub	sp, sp, #20
 1519              		.cfi_def_cfa_offset 32
 1520 0004 00AF     		add	r7, sp, #0
 1521              		.cfi_def_cfa_register 7
ARM GAS  C:\Users\Sam\AppData\Local\Temp\ccTX1UXg.s 			page 48


 1522 0006 7860     		str	r0, [r7, #4]
1159:.\Generated_Source\PSoC4/MessageTimer.c ****     uint8 enableInterrupts;
1160:.\Generated_Source\PSoC4/MessageTimer.c **** 
1161:.\Generated_Source\PSoC4/MessageTimer.c ****     enableInterrupts = CyEnterCriticalSection();
 1523              		.loc 1 1161 0
 1524 0008 3C1C     		mov	r4, r7
 1525 000a 0F34     		add	r4, r4, #15
 1526 000c FFF7FEFF 		bl	CyEnterCriticalSection
 1527 0010 031C     		mov	r3, r0
 1528 0012 2370     		strb	r3, [r4]
1162:.\Generated_Source\PSoC4/MessageTimer.c **** 
1163:.\Generated_Source\PSoC4/MessageTimer.c ****     MessageTimer_TRIG_CONTROL1_REG &= (uint32)~MessageTimer_STOP_MASK;
 1529              		.loc 1 1163 0
 1530 0014 0A4B     		ldr	r3, .L103
 1531 0016 0A4A     		ldr	r2, .L103
 1532 0018 1268     		ldr	r2, [r2]
 1533 001a C021     		mov	r1, #192
 1534 001c 8A43     		bic	r2, r1
 1535 001e 1A60     		str	r2, [r3]
1164:.\Generated_Source\PSoC4/MessageTimer.c ****     MessageTimer_TRIG_CONTROL1_REG |= ((uint32)(triggerMode << MessageTimer_STOP_SHIFT));
 1536              		.loc 1 1164 0
 1537 0020 074B     		ldr	r3, .L103
 1538 0022 074A     		ldr	r2, .L103
 1539 0024 1168     		ldr	r1, [r2]
 1540 0026 7A68     		ldr	r2, [r7, #4]
 1541 0028 9201     		lsl	r2, r2, #6
 1542 002a 0A43     		orr	r2, r1
 1543 002c 1A60     		str	r2, [r3]
1165:.\Generated_Source\PSoC4/MessageTimer.c **** 
1166:.\Generated_Source\PSoC4/MessageTimer.c ****     CyExitCriticalSection(enableInterrupts);
 1544              		.loc 1 1166 0
 1545 002e 3B1C     		mov	r3, r7
 1546 0030 0F33     		add	r3, r3, #15
 1547 0032 1B78     		ldrb	r3, [r3]
 1548 0034 181C     		mov	r0, r3
 1549 0036 FFF7FEFF 		bl	CyExitCriticalSection
1167:.\Generated_Source\PSoC4/MessageTimer.c **** }
 1550              		.loc 1 1167 0
 1551 003a BD46     		mov	sp, r7
 1552 003c 05B0     		add	sp, sp, #20
 1553              		@ sp needed
 1554 003e 90BD     		pop	{r4, r7, pc}
 1555              	.L104:
 1556              		.align	2
 1557              	.L103:
 1558 0040 24010540 		.word	1074069796
 1559              		.cfi_endproc
 1560              	.LFE31:
 1561              		.size	MessageTimer_SetStopMode, .-MessageTimer_SetStopMode
 1562              		.section	.text.MessageTimer_SetCountMode,"ax",%progbits
 1563              		.align	2
 1564              		.global	MessageTimer_SetCountMode
 1565              		.code	16
 1566              		.thumb_func
 1567              		.type	MessageTimer_SetCountMode, %function
 1568              	MessageTimer_SetCountMode:
 1569              	.LFB32:
ARM GAS  C:\Users\Sam\AppData\Local\Temp\ccTX1UXg.s 			page 49


1168:.\Generated_Source\PSoC4/MessageTimer.c **** 
1169:.\Generated_Source\PSoC4/MessageTimer.c **** 
1170:.\Generated_Source\PSoC4/MessageTimer.c **** /*******************************************************************************
1171:.\Generated_Source\PSoC4/MessageTimer.c **** * Function Name: MessageTimer_SetCountMode
1172:.\Generated_Source\PSoC4/MessageTimer.c **** ********************************************************************************
1173:.\Generated_Source\PSoC4/MessageTimer.c **** *
1174:.\Generated_Source\PSoC4/MessageTimer.c **** * Summary:
1175:.\Generated_Source\PSoC4/MessageTimer.c **** *  Sets the count trigger mode. For Quadrature Decoder mode this is the phiA
1176:.\Generated_Source\PSoC4/MessageTimer.c **** *  input.
1177:.\Generated_Source\PSoC4/MessageTimer.c **** *
1178:.\Generated_Source\PSoC4/MessageTimer.c **** * Parameters:
1179:.\Generated_Source\PSoC4/MessageTimer.c **** *  triggerMode: Enumerated trigger mode value
1180:.\Generated_Source\PSoC4/MessageTimer.c **** *   Values:
1181:.\Generated_Source\PSoC4/MessageTimer.c **** *     - MessageTimer_TRIG_LEVEL     - Level
1182:.\Generated_Source\PSoC4/MessageTimer.c **** *     - MessageTimer_TRIG_RISING    - Rising edge
1183:.\Generated_Source\PSoC4/MessageTimer.c **** *     - MessageTimer_TRIG_FALLING   - Falling edge
1184:.\Generated_Source\PSoC4/MessageTimer.c **** *     - MessageTimer_TRIG_BOTH      - Both rising and falling edge
1185:.\Generated_Source\PSoC4/MessageTimer.c **** *
1186:.\Generated_Source\PSoC4/MessageTimer.c **** * Return:
1187:.\Generated_Source\PSoC4/MessageTimer.c **** *  None
1188:.\Generated_Source\PSoC4/MessageTimer.c **** *
1189:.\Generated_Source\PSoC4/MessageTimer.c **** *******************************************************************************/
1190:.\Generated_Source\PSoC4/MessageTimer.c **** void MessageTimer_SetCountMode(uint32 triggerMode)
1191:.\Generated_Source\PSoC4/MessageTimer.c **** {
 1570              		.loc 1 1191 0
 1571              		.cfi_startproc
 1572 0000 90B5     		push	{r4, r7, lr}
 1573              		.cfi_def_cfa_offset 12
 1574              		.cfi_offset 4, -12
 1575              		.cfi_offset 7, -8
 1576              		.cfi_offset 14, -4
 1577 0002 85B0     		sub	sp, sp, #20
 1578              		.cfi_def_cfa_offset 32
 1579 0004 00AF     		add	r7, sp, #0
 1580              		.cfi_def_cfa_register 7
 1581 0006 7860     		str	r0, [r7, #4]
1192:.\Generated_Source\PSoC4/MessageTimer.c ****     uint8 enableInterrupts;
1193:.\Generated_Source\PSoC4/MessageTimer.c **** 
1194:.\Generated_Source\PSoC4/MessageTimer.c ****     enableInterrupts = CyEnterCriticalSection();
 1582              		.loc 1 1194 0
 1583 0008 3C1C     		mov	r4, r7
 1584 000a 0F34     		add	r4, r4, #15
 1585 000c FFF7FEFF 		bl	CyEnterCriticalSection
 1586 0010 031C     		mov	r3, r0
 1587 0012 2370     		strb	r3, [r4]
1195:.\Generated_Source\PSoC4/MessageTimer.c **** 
1196:.\Generated_Source\PSoC4/MessageTimer.c ****     MessageTimer_TRIG_CONTROL1_REG &= (uint32)~MessageTimer_COUNT_MASK;
 1588              		.loc 1 1196 0
 1589 0014 0A4B     		ldr	r3, .L106
 1590 0016 0A4A     		ldr	r2, .L106
 1591 0018 1268     		ldr	r2, [r2]
 1592 001a 0C21     		mov	r1, #12
 1593 001c 8A43     		bic	r2, r1
 1594 001e 1A60     		str	r2, [r3]
1197:.\Generated_Source\PSoC4/MessageTimer.c ****     MessageTimer_TRIG_CONTROL1_REG |= ((uint32)(triggerMode << MessageTimer_COUNT_SHIFT));
 1595              		.loc 1 1197 0
 1596 0020 074B     		ldr	r3, .L106
ARM GAS  C:\Users\Sam\AppData\Local\Temp\ccTX1UXg.s 			page 50


 1597 0022 074A     		ldr	r2, .L106
 1598 0024 1168     		ldr	r1, [r2]
 1599 0026 7A68     		ldr	r2, [r7, #4]
 1600 0028 9200     		lsl	r2, r2, #2
 1601 002a 0A43     		orr	r2, r1
 1602 002c 1A60     		str	r2, [r3]
1198:.\Generated_Source\PSoC4/MessageTimer.c **** 
1199:.\Generated_Source\PSoC4/MessageTimer.c ****     CyExitCriticalSection(enableInterrupts);
 1603              		.loc 1 1199 0
 1604 002e 3B1C     		mov	r3, r7
 1605 0030 0F33     		add	r3, r3, #15
 1606 0032 1B78     		ldrb	r3, [r3]
 1607 0034 181C     		mov	r0, r3
 1608 0036 FFF7FEFF 		bl	CyExitCriticalSection
1200:.\Generated_Source\PSoC4/MessageTimer.c **** }
 1609              		.loc 1 1200 0
 1610 003a BD46     		mov	sp, r7
 1611 003c 05B0     		add	sp, sp, #20
 1612              		@ sp needed
 1613 003e 90BD     		pop	{r4, r7, pc}
 1614              	.L107:
 1615              		.align	2
 1616              	.L106:
 1617 0040 24010540 		.word	1074069796
 1618              		.cfi_endproc
 1619              	.LFE32:
 1620              		.size	MessageTimer_SetCountMode, .-MessageTimer_SetCountMode
 1621              		.section	.text.MessageTimer_TriggerCommand,"ax",%progbits
 1622              		.align	2
 1623              		.global	MessageTimer_TriggerCommand
 1624              		.code	16
 1625              		.thumb_func
 1626              		.type	MessageTimer_TriggerCommand, %function
 1627              	MessageTimer_TriggerCommand:
 1628              	.LFB33:
1201:.\Generated_Source\PSoC4/MessageTimer.c **** 
1202:.\Generated_Source\PSoC4/MessageTimer.c **** 
1203:.\Generated_Source\PSoC4/MessageTimer.c **** /*******************************************************************************
1204:.\Generated_Source\PSoC4/MessageTimer.c **** * Function Name: MessageTimer_TriggerCommand
1205:.\Generated_Source\PSoC4/MessageTimer.c **** ********************************************************************************
1206:.\Generated_Source\PSoC4/MessageTimer.c **** *
1207:.\Generated_Source\PSoC4/MessageTimer.c **** * Summary:
1208:.\Generated_Source\PSoC4/MessageTimer.c **** *  Triggers the designated command to occur on the designated TCPWM instances.
1209:.\Generated_Source\PSoC4/MessageTimer.c **** *  The mask can be used to apply this command simultaneously to more than one
1210:.\Generated_Source\PSoC4/MessageTimer.c **** *  instance.  This allows multiple TCPWM instances to be synchronized.
1211:.\Generated_Source\PSoC4/MessageTimer.c **** *
1212:.\Generated_Source\PSoC4/MessageTimer.c **** * Parameters:
1213:.\Generated_Source\PSoC4/MessageTimer.c **** *  mask: A combination of mask bits for each instance of the TCPWM that the
1214:.\Generated_Source\PSoC4/MessageTimer.c **** *        command should apply to.  This function from one instance can be used
1215:.\Generated_Source\PSoC4/MessageTimer.c **** *        to apply the command to any of the instances in the design.
1216:.\Generated_Source\PSoC4/MessageTimer.c **** *        The mask value for a specific instance is available with the MASK
1217:.\Generated_Source\PSoC4/MessageTimer.c **** *        define.
1218:.\Generated_Source\PSoC4/MessageTimer.c **** *  command: Enumerated command values. Capture command only applicable for
1219:.\Generated_Source\PSoC4/MessageTimer.c **** *           Timer/Counter with Capture and PWM modes.
1220:.\Generated_Source\PSoC4/MessageTimer.c **** *   Values:
1221:.\Generated_Source\PSoC4/MessageTimer.c **** *     - MessageTimer_CMD_CAPTURE    - Trigger Capture command
1222:.\Generated_Source\PSoC4/MessageTimer.c **** *     - MessageTimer_CMD_RELOAD     - Trigger Reload command
ARM GAS  C:\Users\Sam\AppData\Local\Temp\ccTX1UXg.s 			page 51


1223:.\Generated_Source\PSoC4/MessageTimer.c **** *     - MessageTimer_CMD_STOP       - Trigger Stop command
1224:.\Generated_Source\PSoC4/MessageTimer.c **** *     - MessageTimer_CMD_START      - Trigger Start command
1225:.\Generated_Source\PSoC4/MessageTimer.c **** *
1226:.\Generated_Source\PSoC4/MessageTimer.c **** * Return:
1227:.\Generated_Source\PSoC4/MessageTimer.c **** *  None
1228:.\Generated_Source\PSoC4/MessageTimer.c **** *
1229:.\Generated_Source\PSoC4/MessageTimer.c **** *******************************************************************************/
1230:.\Generated_Source\PSoC4/MessageTimer.c **** void MessageTimer_TriggerCommand(uint32 mask, uint32 command)
1231:.\Generated_Source\PSoC4/MessageTimer.c **** {
 1629              		.loc 1 1231 0
 1630              		.cfi_startproc
 1631 0000 90B5     		push	{r4, r7, lr}
 1632              		.cfi_def_cfa_offset 12
 1633              		.cfi_offset 4, -12
 1634              		.cfi_offset 7, -8
 1635              		.cfi_offset 14, -4
 1636 0002 85B0     		sub	sp, sp, #20
 1637              		.cfi_def_cfa_offset 32
 1638 0004 00AF     		add	r7, sp, #0
 1639              		.cfi_def_cfa_register 7
 1640 0006 7860     		str	r0, [r7, #4]
 1641 0008 3960     		str	r1, [r7]
1232:.\Generated_Source\PSoC4/MessageTimer.c ****     uint8 enableInterrupts;
1233:.\Generated_Source\PSoC4/MessageTimer.c **** 
1234:.\Generated_Source\PSoC4/MessageTimer.c ****     enableInterrupts = CyEnterCriticalSection();
 1642              		.loc 1 1234 0
 1643 000a 3C1C     		mov	r4, r7
 1644 000c 0F34     		add	r4, r4, #15
 1645 000e FFF7FEFF 		bl	CyEnterCriticalSection
 1646 0012 031C     		mov	r3, r0
 1647 0014 2370     		strb	r3, [r4]
1235:.\Generated_Source\PSoC4/MessageTimer.c **** 
1236:.\Generated_Source\PSoC4/MessageTimer.c ****     MessageTimer_COMMAND_REG = ((uint32)(mask << command));
 1648              		.loc 1 1236 0
 1649 0016 084B     		ldr	r3, .L109
 1650 0018 3A68     		ldr	r2, [r7]
 1651 001a 7968     		ldr	r1, [r7, #4]
 1652 001c 081C     		mov	r0, r1
 1653 001e 9040     		lsl	r0, r0, r2
 1654 0020 021C     		mov	r2, r0
 1655 0022 1A60     		str	r2, [r3]
1237:.\Generated_Source\PSoC4/MessageTimer.c **** 
1238:.\Generated_Source\PSoC4/MessageTimer.c ****     CyExitCriticalSection(enableInterrupts);
 1656              		.loc 1 1238 0
 1657 0024 3B1C     		mov	r3, r7
 1658 0026 0F33     		add	r3, r3, #15
 1659 0028 1B78     		ldrb	r3, [r3]
 1660 002a 181C     		mov	r0, r3
 1661 002c FFF7FEFF 		bl	CyExitCriticalSection
1239:.\Generated_Source\PSoC4/MessageTimer.c **** }
 1662              		.loc 1 1239 0
 1663 0030 BD46     		mov	sp, r7
 1664 0032 05B0     		add	sp, sp, #20
 1665              		@ sp needed
 1666 0034 90BD     		pop	{r4, r7, pc}
 1667              	.L110:
 1668 0036 C046     		.align	2
ARM GAS  C:\Users\Sam\AppData\Local\Temp\ccTX1UXg.s 			page 52


 1669              	.L109:
 1670 0038 08000540 		.word	1074069512
 1671              		.cfi_endproc
 1672              	.LFE33:
 1673              		.size	MessageTimer_TriggerCommand, .-MessageTimer_TriggerCommand
 1674              		.section	.text.MessageTimer_ReadStatus,"ax",%progbits
 1675              		.align	2
 1676              		.global	MessageTimer_ReadStatus
 1677              		.code	16
 1678              		.thumb_func
 1679              		.type	MessageTimer_ReadStatus, %function
 1680              	MessageTimer_ReadStatus:
 1681              	.LFB34:
1240:.\Generated_Source\PSoC4/MessageTimer.c **** 
1241:.\Generated_Source\PSoC4/MessageTimer.c **** 
1242:.\Generated_Source\PSoC4/MessageTimer.c **** /*******************************************************************************
1243:.\Generated_Source\PSoC4/MessageTimer.c **** * Function Name: MessageTimer_ReadStatus
1244:.\Generated_Source\PSoC4/MessageTimer.c **** ********************************************************************************
1245:.\Generated_Source\PSoC4/MessageTimer.c **** *
1246:.\Generated_Source\PSoC4/MessageTimer.c **** * Summary:
1247:.\Generated_Source\PSoC4/MessageTimer.c **** *  Reads the status of the MessageTimer.
1248:.\Generated_Source\PSoC4/MessageTimer.c **** *
1249:.\Generated_Source\PSoC4/MessageTimer.c **** * Parameters:
1250:.\Generated_Source\PSoC4/MessageTimer.c **** *  None
1251:.\Generated_Source\PSoC4/MessageTimer.c **** *
1252:.\Generated_Source\PSoC4/MessageTimer.c **** * Return:
1253:.\Generated_Source\PSoC4/MessageTimer.c **** *  Status
1254:.\Generated_Source\PSoC4/MessageTimer.c **** *   Values:
1255:.\Generated_Source\PSoC4/MessageTimer.c **** *     - MessageTimer_STATUS_DOWN    - Set if counting down
1256:.\Generated_Source\PSoC4/MessageTimer.c **** *     - MessageTimer_STATUS_RUNNING - Set if counter is running
1257:.\Generated_Source\PSoC4/MessageTimer.c **** *
1258:.\Generated_Source\PSoC4/MessageTimer.c **** *******************************************************************************/
1259:.\Generated_Source\PSoC4/MessageTimer.c **** uint32 MessageTimer_ReadStatus(void)
1260:.\Generated_Source\PSoC4/MessageTimer.c **** {
 1682              		.loc 1 1260 0
 1683              		.cfi_startproc
 1684 0000 80B5     		push	{r7, lr}
 1685              		.cfi_def_cfa_offset 8
 1686              		.cfi_offset 7, -8
 1687              		.cfi_offset 14, -4
 1688 0002 00AF     		add	r7, sp, #0
 1689              		.cfi_def_cfa_register 7
1261:.\Generated_Source\PSoC4/MessageTimer.c ****     return ((MessageTimer_STATUS_REG >> MessageTimer_RUNNING_STATUS_SHIFT) |
 1690              		.loc 1 1261 0
 1691 0004 054B     		ldr	r3, .L113
 1692 0006 1B68     		ldr	r3, [r3]
 1693 0008 9A0F     		lsr	r2, r3, #30
1262:.\Generated_Source\PSoC4/MessageTimer.c ****             (MessageTimer_STATUS_REG & MessageTimer_STATUS_DOWN));
 1694              		.loc 1 1262 0
 1695 000a 044B     		ldr	r3, .L113
 1696 000c 1968     		ldr	r1, [r3]
 1697 000e 0123     		mov	r3, #1
 1698 0010 0B40     		and	r3, r1
1261:.\Generated_Source\PSoC4/MessageTimer.c ****     return ((MessageTimer_STATUS_REG >> MessageTimer_RUNNING_STATUS_SHIFT) |
 1699              		.loc 1 1261 0
 1700 0012 1343     		orr	r3, r2
1263:.\Generated_Source\PSoC4/MessageTimer.c **** }
ARM GAS  C:\Users\Sam\AppData\Local\Temp\ccTX1UXg.s 			page 53


 1701              		.loc 1 1263 0
 1702 0014 181C     		mov	r0, r3
 1703 0016 BD46     		mov	sp, r7
 1704              		@ sp needed
 1705 0018 80BD     		pop	{r7, pc}
 1706              	.L114:
 1707 001a C046     		.align	2
 1708              	.L113:
 1709 001c 04010540 		.word	1074069764
 1710              		.cfi_endproc
 1711              	.LFE34:
 1712              		.size	MessageTimer_ReadStatus, .-MessageTimer_ReadStatus
 1713              		.section	.text.MessageTimer_SetInterruptMode,"ax",%progbits
 1714              		.align	2
 1715              		.global	MessageTimer_SetInterruptMode
 1716              		.code	16
 1717              		.thumb_func
 1718              		.type	MessageTimer_SetInterruptMode, %function
 1719              	MessageTimer_SetInterruptMode:
 1720              	.LFB35:
1264:.\Generated_Source\PSoC4/MessageTimer.c **** 
1265:.\Generated_Source\PSoC4/MessageTimer.c **** 
1266:.\Generated_Source\PSoC4/MessageTimer.c **** /*******************************************************************************
1267:.\Generated_Source\PSoC4/MessageTimer.c **** * Function Name: MessageTimer_SetInterruptMode
1268:.\Generated_Source\PSoC4/MessageTimer.c **** ********************************************************************************
1269:.\Generated_Source\PSoC4/MessageTimer.c **** *
1270:.\Generated_Source\PSoC4/MessageTimer.c **** * Summary:
1271:.\Generated_Source\PSoC4/MessageTimer.c **** *  Sets the interrupt mask to control which interrupt
1272:.\Generated_Source\PSoC4/MessageTimer.c **** *  requests generate the interrupt signal.
1273:.\Generated_Source\PSoC4/MessageTimer.c **** *
1274:.\Generated_Source\PSoC4/MessageTimer.c **** * Parameters:
1275:.\Generated_Source\PSoC4/MessageTimer.c **** *   interruptMask: Mask of bits to be enabled
1276:.\Generated_Source\PSoC4/MessageTimer.c **** *   Values:
1277:.\Generated_Source\PSoC4/MessageTimer.c **** *     - MessageTimer_INTR_MASK_TC       - Terminal count mask
1278:.\Generated_Source\PSoC4/MessageTimer.c **** *     - MessageTimer_INTR_MASK_CC_MATCH - Compare count / capture mask
1279:.\Generated_Source\PSoC4/MessageTimer.c **** *
1280:.\Generated_Source\PSoC4/MessageTimer.c **** * Return:
1281:.\Generated_Source\PSoC4/MessageTimer.c **** *  None
1282:.\Generated_Source\PSoC4/MessageTimer.c **** *
1283:.\Generated_Source\PSoC4/MessageTimer.c **** *******************************************************************************/
1284:.\Generated_Source\PSoC4/MessageTimer.c **** void MessageTimer_SetInterruptMode(uint32 interruptMask)
1285:.\Generated_Source\PSoC4/MessageTimer.c **** {
 1721              		.loc 1 1285 0
 1722              		.cfi_startproc
 1723 0000 80B5     		push	{r7, lr}
 1724              		.cfi_def_cfa_offset 8
 1725              		.cfi_offset 7, -8
 1726              		.cfi_offset 14, -4
 1727 0002 82B0     		sub	sp, sp, #8
 1728              		.cfi_def_cfa_offset 16
 1729 0004 00AF     		add	r7, sp, #0
 1730              		.cfi_def_cfa_register 7
 1731 0006 7860     		str	r0, [r7, #4]
1286:.\Generated_Source\PSoC4/MessageTimer.c ****     MessageTimer_INTERRUPT_MASK_REG =  interruptMask;
 1732              		.loc 1 1286 0
 1733 0008 024B     		ldr	r3, .L116
 1734 000a 7A68     		ldr	r2, [r7, #4]
ARM GAS  C:\Users\Sam\AppData\Local\Temp\ccTX1UXg.s 			page 54


 1735 000c 1A60     		str	r2, [r3]
1287:.\Generated_Source\PSoC4/MessageTimer.c **** }
 1736              		.loc 1 1287 0
 1737 000e BD46     		mov	sp, r7
 1738 0010 02B0     		add	sp, sp, #8
 1739              		@ sp needed
 1740 0012 80BD     		pop	{r7, pc}
 1741              	.L117:
 1742              		.align	2
 1743              	.L116:
 1744 0014 38010540 		.word	1074069816
 1745              		.cfi_endproc
 1746              	.LFE35:
 1747              		.size	MessageTimer_SetInterruptMode, .-MessageTimer_SetInterruptMode
 1748              		.section	.text.MessageTimer_GetInterruptSourceMasked,"ax",%progbits
 1749              		.align	2
 1750              		.global	MessageTimer_GetInterruptSourceMasked
 1751              		.code	16
 1752              		.thumb_func
 1753              		.type	MessageTimer_GetInterruptSourceMasked, %function
 1754              	MessageTimer_GetInterruptSourceMasked:
 1755              	.LFB36:
1288:.\Generated_Source\PSoC4/MessageTimer.c **** 
1289:.\Generated_Source\PSoC4/MessageTimer.c **** 
1290:.\Generated_Source\PSoC4/MessageTimer.c **** /*******************************************************************************
1291:.\Generated_Source\PSoC4/MessageTimer.c **** * Function Name: MessageTimer_GetInterruptSourceMasked
1292:.\Generated_Source\PSoC4/MessageTimer.c **** ********************************************************************************
1293:.\Generated_Source\PSoC4/MessageTimer.c **** *
1294:.\Generated_Source\PSoC4/MessageTimer.c **** * Summary:
1295:.\Generated_Source\PSoC4/MessageTimer.c **** *  Gets the interrupt requests masked by the interrupt mask.
1296:.\Generated_Source\PSoC4/MessageTimer.c **** *
1297:.\Generated_Source\PSoC4/MessageTimer.c **** * Parameters:
1298:.\Generated_Source\PSoC4/MessageTimer.c **** *   None
1299:.\Generated_Source\PSoC4/MessageTimer.c **** *
1300:.\Generated_Source\PSoC4/MessageTimer.c **** * Return:
1301:.\Generated_Source\PSoC4/MessageTimer.c **** *  Masked interrupt source
1302:.\Generated_Source\PSoC4/MessageTimer.c **** *   Values:
1303:.\Generated_Source\PSoC4/MessageTimer.c **** *     - MessageTimer_INTR_MASK_TC       - Terminal count mask
1304:.\Generated_Source\PSoC4/MessageTimer.c **** *     - MessageTimer_INTR_MASK_CC_MATCH - Compare count / capture mask
1305:.\Generated_Source\PSoC4/MessageTimer.c **** *
1306:.\Generated_Source\PSoC4/MessageTimer.c **** *******************************************************************************/
1307:.\Generated_Source\PSoC4/MessageTimer.c **** uint32 MessageTimer_GetInterruptSourceMasked(void)
1308:.\Generated_Source\PSoC4/MessageTimer.c **** {
 1756              		.loc 1 1308 0
 1757              		.cfi_startproc
 1758 0000 80B5     		push	{r7, lr}
 1759              		.cfi_def_cfa_offset 8
 1760              		.cfi_offset 7, -8
 1761              		.cfi_offset 14, -4
 1762 0002 00AF     		add	r7, sp, #0
 1763              		.cfi_def_cfa_register 7
1309:.\Generated_Source\PSoC4/MessageTimer.c ****     return (MessageTimer_INTERRUPT_MASKED_REG);
 1764              		.loc 1 1309 0
 1765 0004 024B     		ldr	r3, .L120
 1766 0006 1B68     		ldr	r3, [r3]
1310:.\Generated_Source\PSoC4/MessageTimer.c **** }
 1767              		.loc 1 1310 0
ARM GAS  C:\Users\Sam\AppData\Local\Temp\ccTX1UXg.s 			page 55


 1768 0008 181C     		mov	r0, r3
 1769 000a BD46     		mov	sp, r7
 1770              		@ sp needed
 1771 000c 80BD     		pop	{r7, pc}
 1772              	.L121:
 1773 000e C046     		.align	2
 1774              	.L120:
 1775 0010 3C010540 		.word	1074069820
 1776              		.cfi_endproc
 1777              	.LFE36:
 1778              		.size	MessageTimer_GetInterruptSourceMasked, .-MessageTimer_GetInterruptSourceMasked
 1779              		.section	.text.MessageTimer_GetInterruptSource,"ax",%progbits
 1780              		.align	2
 1781              		.global	MessageTimer_GetInterruptSource
 1782              		.code	16
 1783              		.thumb_func
 1784              		.type	MessageTimer_GetInterruptSource, %function
 1785              	MessageTimer_GetInterruptSource:
 1786              	.LFB37:
1311:.\Generated_Source\PSoC4/MessageTimer.c **** 
1312:.\Generated_Source\PSoC4/MessageTimer.c **** 
1313:.\Generated_Source\PSoC4/MessageTimer.c **** /*******************************************************************************
1314:.\Generated_Source\PSoC4/MessageTimer.c **** * Function Name: MessageTimer_GetInterruptSource
1315:.\Generated_Source\PSoC4/MessageTimer.c **** ********************************************************************************
1316:.\Generated_Source\PSoC4/MessageTimer.c **** *
1317:.\Generated_Source\PSoC4/MessageTimer.c **** * Summary:
1318:.\Generated_Source\PSoC4/MessageTimer.c **** *  Gets the interrupt requests (without masking).
1319:.\Generated_Source\PSoC4/MessageTimer.c **** *
1320:.\Generated_Source\PSoC4/MessageTimer.c **** * Parameters:
1321:.\Generated_Source\PSoC4/MessageTimer.c **** *  None
1322:.\Generated_Source\PSoC4/MessageTimer.c **** *
1323:.\Generated_Source\PSoC4/MessageTimer.c **** * Return:
1324:.\Generated_Source\PSoC4/MessageTimer.c **** *  Interrupt request value
1325:.\Generated_Source\PSoC4/MessageTimer.c **** *   Values:
1326:.\Generated_Source\PSoC4/MessageTimer.c **** *     - MessageTimer_INTR_MASK_TC       - Terminal count mask
1327:.\Generated_Source\PSoC4/MessageTimer.c **** *     - MessageTimer_INTR_MASK_CC_MATCH - Compare count / capture mask
1328:.\Generated_Source\PSoC4/MessageTimer.c **** *
1329:.\Generated_Source\PSoC4/MessageTimer.c **** *******************************************************************************/
1330:.\Generated_Source\PSoC4/MessageTimer.c **** uint32 MessageTimer_GetInterruptSource(void)
1331:.\Generated_Source\PSoC4/MessageTimer.c **** {
 1787              		.loc 1 1331 0
 1788              		.cfi_startproc
 1789 0000 80B5     		push	{r7, lr}
 1790              		.cfi_def_cfa_offset 8
 1791              		.cfi_offset 7, -8
 1792              		.cfi_offset 14, -4
 1793 0002 00AF     		add	r7, sp, #0
 1794              		.cfi_def_cfa_register 7
1332:.\Generated_Source\PSoC4/MessageTimer.c ****     return (MessageTimer_INTERRUPT_REQ_REG);
 1795              		.loc 1 1332 0
 1796 0004 024B     		ldr	r3, .L124
 1797 0006 1B68     		ldr	r3, [r3]
1333:.\Generated_Source\PSoC4/MessageTimer.c **** }
 1798              		.loc 1 1333 0
 1799 0008 181C     		mov	r0, r3
 1800 000a BD46     		mov	sp, r7
 1801              		@ sp needed
ARM GAS  C:\Users\Sam\AppData\Local\Temp\ccTX1UXg.s 			page 56


 1802 000c 80BD     		pop	{r7, pc}
 1803              	.L125:
 1804 000e C046     		.align	2
 1805              	.L124:
 1806 0010 30010540 		.word	1074069808
 1807              		.cfi_endproc
 1808              	.LFE37:
 1809              		.size	MessageTimer_GetInterruptSource, .-MessageTimer_GetInterruptSource
 1810              		.section	.text.MessageTimer_ClearInterrupt,"ax",%progbits
 1811              		.align	2
 1812              		.global	MessageTimer_ClearInterrupt
 1813              		.code	16
 1814              		.thumb_func
 1815              		.type	MessageTimer_ClearInterrupt, %function
 1816              	MessageTimer_ClearInterrupt:
 1817              	.LFB38:
1334:.\Generated_Source\PSoC4/MessageTimer.c **** 
1335:.\Generated_Source\PSoC4/MessageTimer.c **** 
1336:.\Generated_Source\PSoC4/MessageTimer.c **** /*******************************************************************************
1337:.\Generated_Source\PSoC4/MessageTimer.c **** * Function Name: MessageTimer_ClearInterrupt
1338:.\Generated_Source\PSoC4/MessageTimer.c **** ********************************************************************************
1339:.\Generated_Source\PSoC4/MessageTimer.c **** *
1340:.\Generated_Source\PSoC4/MessageTimer.c **** * Summary:
1341:.\Generated_Source\PSoC4/MessageTimer.c **** *  Clears the interrupt request.
1342:.\Generated_Source\PSoC4/MessageTimer.c **** *
1343:.\Generated_Source\PSoC4/MessageTimer.c **** * Parameters:
1344:.\Generated_Source\PSoC4/MessageTimer.c **** *   interruptMask: Mask of interrupts to clear
1345:.\Generated_Source\PSoC4/MessageTimer.c **** *   Values:
1346:.\Generated_Source\PSoC4/MessageTimer.c **** *     - MessageTimer_INTR_MASK_TC       - Terminal count mask
1347:.\Generated_Source\PSoC4/MessageTimer.c **** *     - MessageTimer_INTR_MASK_CC_MATCH - Compare count / capture mask
1348:.\Generated_Source\PSoC4/MessageTimer.c **** *
1349:.\Generated_Source\PSoC4/MessageTimer.c **** * Return:
1350:.\Generated_Source\PSoC4/MessageTimer.c **** *  None
1351:.\Generated_Source\PSoC4/MessageTimer.c **** *
1352:.\Generated_Source\PSoC4/MessageTimer.c **** *******************************************************************************/
1353:.\Generated_Source\PSoC4/MessageTimer.c **** void MessageTimer_ClearInterrupt(uint32 interruptMask)
1354:.\Generated_Source\PSoC4/MessageTimer.c **** {
 1818              		.loc 1 1354 0
 1819              		.cfi_startproc
 1820 0000 80B5     		push	{r7, lr}
 1821              		.cfi_def_cfa_offset 8
 1822              		.cfi_offset 7, -8
 1823              		.cfi_offset 14, -4
 1824 0002 82B0     		sub	sp, sp, #8
 1825              		.cfi_def_cfa_offset 16
 1826 0004 00AF     		add	r7, sp, #0
 1827              		.cfi_def_cfa_register 7
 1828 0006 7860     		str	r0, [r7, #4]
1355:.\Generated_Source\PSoC4/MessageTimer.c ****     MessageTimer_INTERRUPT_REQ_REG = interruptMask;
 1829              		.loc 1 1355 0
 1830 0008 024B     		ldr	r3, .L127
 1831 000a 7A68     		ldr	r2, [r7, #4]
 1832 000c 1A60     		str	r2, [r3]
1356:.\Generated_Source\PSoC4/MessageTimer.c **** }
 1833              		.loc 1 1356 0
 1834 000e BD46     		mov	sp, r7
 1835 0010 02B0     		add	sp, sp, #8
ARM GAS  C:\Users\Sam\AppData\Local\Temp\ccTX1UXg.s 			page 57


 1836              		@ sp needed
 1837 0012 80BD     		pop	{r7, pc}
 1838              	.L128:
 1839              		.align	2
 1840              	.L127:
 1841 0014 30010540 		.word	1074069808
 1842              		.cfi_endproc
 1843              	.LFE38:
 1844              		.size	MessageTimer_ClearInterrupt, .-MessageTimer_ClearInterrupt
 1845              		.section	.text.MessageTimer_SetInterrupt,"ax",%progbits
 1846              		.align	2
 1847              		.global	MessageTimer_SetInterrupt
 1848              		.code	16
 1849              		.thumb_func
 1850              		.type	MessageTimer_SetInterrupt, %function
 1851              	MessageTimer_SetInterrupt:
 1852              	.LFB39:
1357:.\Generated_Source\PSoC4/MessageTimer.c **** 
1358:.\Generated_Source\PSoC4/MessageTimer.c **** 
1359:.\Generated_Source\PSoC4/MessageTimer.c **** /*******************************************************************************
1360:.\Generated_Source\PSoC4/MessageTimer.c **** * Function Name: MessageTimer_SetInterrupt
1361:.\Generated_Source\PSoC4/MessageTimer.c **** ********************************************************************************
1362:.\Generated_Source\PSoC4/MessageTimer.c **** *
1363:.\Generated_Source\PSoC4/MessageTimer.c **** * Summary:
1364:.\Generated_Source\PSoC4/MessageTimer.c **** *  Sets a software interrupt request.
1365:.\Generated_Source\PSoC4/MessageTimer.c **** *
1366:.\Generated_Source\PSoC4/MessageTimer.c **** * Parameters:
1367:.\Generated_Source\PSoC4/MessageTimer.c **** *   interruptMask: Mask of interrupts to set
1368:.\Generated_Source\PSoC4/MessageTimer.c **** *   Values:
1369:.\Generated_Source\PSoC4/MessageTimer.c **** *     - MessageTimer_INTR_MASK_TC       - Terminal count mask
1370:.\Generated_Source\PSoC4/MessageTimer.c **** *     - MessageTimer_INTR_MASK_CC_MATCH - Compare count / capture mask
1371:.\Generated_Source\PSoC4/MessageTimer.c **** *
1372:.\Generated_Source\PSoC4/MessageTimer.c **** * Return:
1373:.\Generated_Source\PSoC4/MessageTimer.c **** *  None
1374:.\Generated_Source\PSoC4/MessageTimer.c **** *
1375:.\Generated_Source\PSoC4/MessageTimer.c **** *******************************************************************************/
1376:.\Generated_Source\PSoC4/MessageTimer.c **** void MessageTimer_SetInterrupt(uint32 interruptMask)
1377:.\Generated_Source\PSoC4/MessageTimer.c **** {
 1853              		.loc 1 1377 0
 1854              		.cfi_startproc
 1855 0000 80B5     		push	{r7, lr}
 1856              		.cfi_def_cfa_offset 8
 1857              		.cfi_offset 7, -8
 1858              		.cfi_offset 14, -4
 1859 0002 82B0     		sub	sp, sp, #8
 1860              		.cfi_def_cfa_offset 16
 1861 0004 00AF     		add	r7, sp, #0
 1862              		.cfi_def_cfa_register 7
 1863 0006 7860     		str	r0, [r7, #4]
1378:.\Generated_Source\PSoC4/MessageTimer.c ****     MessageTimer_INTERRUPT_SET_REG = interruptMask;
 1864              		.loc 1 1378 0
 1865 0008 024B     		ldr	r3, .L130
 1866 000a 7A68     		ldr	r2, [r7, #4]
 1867 000c 1A60     		str	r2, [r3]
1379:.\Generated_Source\PSoC4/MessageTimer.c **** }
 1868              		.loc 1 1379 0
 1869 000e BD46     		mov	sp, r7
ARM GAS  C:\Users\Sam\AppData\Local\Temp\ccTX1UXg.s 			page 58


 1870 0010 02B0     		add	sp, sp, #8
 1871              		@ sp needed
 1872 0012 80BD     		pop	{r7, pc}
 1873              	.L131:
 1874              		.align	2
 1875              	.L130:
 1876 0014 34010540 		.word	1074069812
 1877              		.cfi_endproc
 1878              	.LFE39:
 1879              		.size	MessageTimer_SetInterrupt, .-MessageTimer_SetInterrupt
 1880              		.text
 1881              	.Letext0:
 1882              		.file 2 ".\\Generated_Source\\PSoC4\\cytypes.h"