ARM GAS  C:\Users\Sam\AppData\Local\Temp\ccYsdH5V.s 			page 1


   1              		.cpu cortex-m0
   2              		.fpu softvfp
   3              		.eabi_attribute 20, 1
   4              		.eabi_attribute 21, 1
   5              		.eabi_attribute 23, 3
   6              		.eabi_attribute 24, 1
   7              		.eabi_attribute 25, 1
   8              		.eabi_attribute 26, 1
   9              		.eabi_attribute 30, 6
  10              		.eabi_attribute 34, 0
  11              		.eabi_attribute 18, 4
  12              		.code	16
  13              		.file	"MotorCurrentADC.c"
  14              		.text
  15              	.Ltext0:
  16              		.cfi_sections	.debug_frame
  17              		.global	MotorCurrentADC_initVar
  18              		.bss
  19              		.type	MotorCurrentADC_initVar, %object
  20              		.size	MotorCurrentADC_initVar, 1
  21              	MotorCurrentADC_initVar:
  22 0000 00       		.space	1
  23              		.comm	MotorCurrentADC_offset,2,4
  24              		.comm	MotorCurrentADC_countsPer10Volt,4,4
  25              		.section	.rodata
  26              		.align	2
  27              		.type	MotorCurrentADC_channelsConfig, %object
  28              		.size	MotorCurrentADC_channelsConfig, 4
  29              	MotorCurrentADC_channelsConfig:
  30 0000 00000000 		.space	4
  31              		.section	.text.MotorCurrentADC_Start,"ax",%progbits
  32              		.align	2
  33              		.global	MotorCurrentADC_Start
  34              		.code	16
  35              		.thumb_func
  36              		.type	MotorCurrentADC_Start, %function
  37              	MotorCurrentADC_Start:
  38              	.LFB0:
  39              		.file 1 ".\\Generated_Source\\PSoC4\\MotorCurrentADC.c"
   1:.\Generated_Source\PSoC4/MotorCurrentADC.c **** /*******************************************************************************
   2:.\Generated_Source\PSoC4/MotorCurrentADC.c **** * File Name: MotorCurrentADC.c
   3:.\Generated_Source\PSoC4/MotorCurrentADC.c **** * Version 2.0
   4:.\Generated_Source\PSoC4/MotorCurrentADC.c **** *
   5:.\Generated_Source\PSoC4/MotorCurrentADC.c **** * Description:
   6:.\Generated_Source\PSoC4/MotorCurrentADC.c **** *  This file provides the source code to the API for the Sequencing Successive
   7:.\Generated_Source\PSoC4/MotorCurrentADC.c **** *  Approximation ADC Component Component.
   8:.\Generated_Source\PSoC4/MotorCurrentADC.c **** *
   9:.\Generated_Source\PSoC4/MotorCurrentADC.c **** * Note:
  10:.\Generated_Source\PSoC4/MotorCurrentADC.c **** *
  11:.\Generated_Source\PSoC4/MotorCurrentADC.c **** ********************************************************************************
  12:.\Generated_Source\PSoC4/MotorCurrentADC.c **** * Copyright 2008-2014, Cypress Semiconductor Corporation.  All rights reserved.
  13:.\Generated_Source\PSoC4/MotorCurrentADC.c **** * You may use this file only in accordance with the license, terms, conditions,
  14:.\Generated_Source\PSoC4/MotorCurrentADC.c **** * disclaimers, and limitations in the end user license agreement accompanying
  15:.\Generated_Source\PSoC4/MotorCurrentADC.c **** * the software package with which this file was provided.
  16:.\Generated_Source\PSoC4/MotorCurrentADC.c **** *******************************************************************************/
  17:.\Generated_Source\PSoC4/MotorCurrentADC.c **** 
  18:.\Generated_Source\PSoC4/MotorCurrentADC.c **** #include "MotorCurrentADC.h"
ARM GAS  C:\Users\Sam\AppData\Local\Temp\ccYsdH5V.s 			page 2


  19:.\Generated_Source\PSoC4/MotorCurrentADC.c **** 
  20:.\Generated_Source\PSoC4/MotorCurrentADC.c **** 
  21:.\Generated_Source\PSoC4/MotorCurrentADC.c **** /***************************************
  22:.\Generated_Source\PSoC4/MotorCurrentADC.c **** * Global data allocation
  23:.\Generated_Source\PSoC4/MotorCurrentADC.c **** ***************************************/
  24:.\Generated_Source\PSoC4/MotorCurrentADC.c **** uint8 MotorCurrentADC_initVar = 0u;
  25:.\Generated_Source\PSoC4/MotorCurrentADC.c **** volatile int16 MotorCurrentADC_offset[MotorCurrentADC_TOTAL_CHANNELS_NUM];
  26:.\Generated_Source\PSoC4/MotorCurrentADC.c **** volatile int32 MotorCurrentADC_countsPer10Volt[MotorCurrentADC_TOTAL_CHANNELS_NUM];   /* Gain compe
  27:.\Generated_Source\PSoC4/MotorCurrentADC.c **** 
  28:.\Generated_Source\PSoC4/MotorCurrentADC.c **** 
  29:.\Generated_Source\PSoC4/MotorCurrentADC.c **** /***************************************
  30:.\Generated_Source\PSoC4/MotorCurrentADC.c **** * Local data allocation
  31:.\Generated_Source\PSoC4/MotorCurrentADC.c **** ***************************************/
  32:.\Generated_Source\PSoC4/MotorCurrentADC.c **** /* Channels configuration generated by customiser */
  33:.\Generated_Source\PSoC4/MotorCurrentADC.c **** static const uint32 CYCODE MotorCurrentADC_channelsConfig[] = { 0x00000000u };
  34:.\Generated_Source\PSoC4/MotorCurrentADC.c **** 
  35:.\Generated_Source\PSoC4/MotorCurrentADC.c **** 
  36:.\Generated_Source\PSoC4/MotorCurrentADC.c **** /*******************************************************************************
  37:.\Generated_Source\PSoC4/MotorCurrentADC.c **** * Function Name: MotorCurrentADC_Start
  38:.\Generated_Source\PSoC4/MotorCurrentADC.c **** ********************************************************************************
  39:.\Generated_Source\PSoC4/MotorCurrentADC.c **** *
  40:.\Generated_Source\PSoC4/MotorCurrentADC.c **** * Summary:
  41:.\Generated_Source\PSoC4/MotorCurrentADC.c **** *  Performs all required initialization for this component
  42:.\Generated_Source\PSoC4/MotorCurrentADC.c **** *  and enables the power. The power will be set to the appropriate
  43:.\Generated_Source\PSoC4/MotorCurrentADC.c **** *  power based on the clock frequency.
  44:.\Generated_Source\PSoC4/MotorCurrentADC.c **** *
  45:.\Generated_Source\PSoC4/MotorCurrentADC.c **** * Parameters:
  46:.\Generated_Source\PSoC4/MotorCurrentADC.c **** *  None.
  47:.\Generated_Source\PSoC4/MotorCurrentADC.c **** *
  48:.\Generated_Source\PSoC4/MotorCurrentADC.c **** * Return:
  49:.\Generated_Source\PSoC4/MotorCurrentADC.c **** *  None.
  50:.\Generated_Source\PSoC4/MotorCurrentADC.c **** *
  51:.\Generated_Source\PSoC4/MotorCurrentADC.c **** * Global variables:
  52:.\Generated_Source\PSoC4/MotorCurrentADC.c **** *  The MotorCurrentADC_initVar variable is used to indicate when/if initial
  53:.\Generated_Source\PSoC4/MotorCurrentADC.c **** *  configuration of this component has happened. The variable is initialized to
  54:.\Generated_Source\PSoC4/MotorCurrentADC.c **** *  zero and set to 1 the first time ADC_Start() is called. This allows for
  55:.\Generated_Source\PSoC4/MotorCurrentADC.c **** *  component Re-Start without re-initialization in all subsequent calls to the
  56:.\Generated_Source\PSoC4/MotorCurrentADC.c **** *  MotorCurrentADC_Start() routine.
  57:.\Generated_Source\PSoC4/MotorCurrentADC.c **** *  If re-initialization of the component is required the variable should be set
  58:.\Generated_Source\PSoC4/MotorCurrentADC.c **** *  to zero before call of MotorCurrentADC_Start() routine, or the user may call
  59:.\Generated_Source\PSoC4/MotorCurrentADC.c **** *  MotorCurrentADC_Init() and MotorCurrentADC_Enable() as done in the
  60:.\Generated_Source\PSoC4/MotorCurrentADC.c **** *  MotorCurrentADC_Start() routine.
  61:.\Generated_Source\PSoC4/MotorCurrentADC.c **** *
  62:.\Generated_Source\PSoC4/MotorCurrentADC.c **** *******************************************************************************/
  63:.\Generated_Source\PSoC4/MotorCurrentADC.c **** void MotorCurrentADC_Start(void)
  64:.\Generated_Source\PSoC4/MotorCurrentADC.c **** {
  40              		.loc 1 64 0
  41              		.cfi_startproc
  42 0000 80B5     		push	{r7, lr}
  43              		.cfi_def_cfa_offset 8
  44              		.cfi_offset 7, -8
  45              		.cfi_offset 14, -4
  46 0002 00AF     		add	r7, sp, #0
  47              		.cfi_def_cfa_register 7
  65:.\Generated_Source\PSoC4/MotorCurrentADC.c ****     /* If not Initialized then initialize all required hardware and software */
  66:.\Generated_Source\PSoC4/MotorCurrentADC.c ****     if(MotorCurrentADC_initVar == 0u)
  48              		.loc 1 66 0
ARM GAS  C:\Users\Sam\AppData\Local\Temp\ccYsdH5V.s 			page 3


  49 0004 064B     		ldr	r3, .L3
  50 0006 1B78     		ldrb	r3, [r3]
  51 0008 002B     		cmp	r3, #0
  52 000a 04D1     		bne	.L2
  67:.\Generated_Source\PSoC4/MotorCurrentADC.c ****     {
  68:.\Generated_Source\PSoC4/MotorCurrentADC.c ****         MotorCurrentADC_Init();
  53              		.loc 1 68 0
  54 000c FFF7FEFF 		bl	MotorCurrentADC_Init
  69:.\Generated_Source\PSoC4/MotorCurrentADC.c ****         MotorCurrentADC_initVar = 1u;
  55              		.loc 1 69 0
  56 0010 034B     		ldr	r3, .L3
  57 0012 0122     		mov	r2, #1
  58 0014 1A70     		strb	r2, [r3]
  59              	.L2:
  70:.\Generated_Source\PSoC4/MotorCurrentADC.c ****     }
  71:.\Generated_Source\PSoC4/MotorCurrentADC.c ****     MotorCurrentADC_Enable();
  60              		.loc 1 71 0
  61 0016 FFF7FEFF 		bl	MotorCurrentADC_Enable
  72:.\Generated_Source\PSoC4/MotorCurrentADC.c **** }
  62              		.loc 1 72 0
  63 001a BD46     		mov	sp, r7
  64              		@ sp needed
  65 001c 80BD     		pop	{r7, pc}
  66              	.L4:
  67 001e C046     		.align	2
  68              	.L3:
  69 0020 00000000 		.word	MotorCurrentADC_initVar
  70              		.cfi_endproc
  71              	.LFE0:
  72              		.size	MotorCurrentADC_Start, .-MotorCurrentADC_Start
  73              		.global	__aeabi_idiv
  74              		.section	.text.MotorCurrentADC_Init,"ax",%progbits
  75              		.align	2
  76              		.global	MotorCurrentADC_Init
  77              		.code	16
  78              		.thumb_func
  79              		.type	MotorCurrentADC_Init, %function
  80              	MotorCurrentADC_Init:
  81              	.LFB1:
  73:.\Generated_Source\PSoC4/MotorCurrentADC.c **** 
  74:.\Generated_Source\PSoC4/MotorCurrentADC.c **** 
  75:.\Generated_Source\PSoC4/MotorCurrentADC.c **** /*******************************************************************************
  76:.\Generated_Source\PSoC4/MotorCurrentADC.c **** * Function Name: MotorCurrentADC_Init
  77:.\Generated_Source\PSoC4/MotorCurrentADC.c **** ********************************************************************************
  78:.\Generated_Source\PSoC4/MotorCurrentADC.c **** *
  79:.\Generated_Source\PSoC4/MotorCurrentADC.c **** * Summary:
  80:.\Generated_Source\PSoC4/MotorCurrentADC.c **** *  Initialize component's parameters to the parameters set by user in the
  81:.\Generated_Source\PSoC4/MotorCurrentADC.c **** *  customizer of the component placed onto schematic. Usually called in
  82:.\Generated_Source\PSoC4/MotorCurrentADC.c **** *  MotorCurrentADC_Start().
  83:.\Generated_Source\PSoC4/MotorCurrentADC.c **** *
  84:.\Generated_Source\PSoC4/MotorCurrentADC.c **** * Parameters:
  85:.\Generated_Source\PSoC4/MotorCurrentADC.c **** *  None.
  86:.\Generated_Source\PSoC4/MotorCurrentADC.c **** *
  87:.\Generated_Source\PSoC4/MotorCurrentADC.c **** * Return:
  88:.\Generated_Source\PSoC4/MotorCurrentADC.c **** *  None.
  89:.\Generated_Source\PSoC4/MotorCurrentADC.c **** *
  90:.\Generated_Source\PSoC4/MotorCurrentADC.c **** * Global variables:
ARM GAS  C:\Users\Sam\AppData\Local\Temp\ccYsdH5V.s 			page 4


  91:.\Generated_Source\PSoC4/MotorCurrentADC.c **** *  The MotorCurrentADC_offset variable is initialized.
  92:.\Generated_Source\PSoC4/MotorCurrentADC.c **** *
  93:.\Generated_Source\PSoC4/MotorCurrentADC.c **** *******************************************************************************/
  94:.\Generated_Source\PSoC4/MotorCurrentADC.c **** void MotorCurrentADC_Init(void)
  95:.\Generated_Source\PSoC4/MotorCurrentADC.c **** {
  82              		.loc 1 95 0
  83              		.cfi_startproc
  84 0000 90B5     		push	{r4, r7, lr}
  85              		.cfi_def_cfa_offset 12
  86              		.cfi_offset 4, -12
  87              		.cfi_offset 7, -8
  88              		.cfi_offset 14, -4
  89 0002 85B0     		sub	sp, sp, #20
  90              		.cfi_def_cfa_offset 32
  91 0004 00AF     		add	r7, sp, #0
  92              		.cfi_def_cfa_register 7
  96:.\Generated_Source\PSoC4/MotorCurrentADC.c ****     uint32 chNum;
  97:.\Generated_Source\PSoC4/MotorCurrentADC.c ****     uint32 tmpRegVal;
  98:.\Generated_Source\PSoC4/MotorCurrentADC.c ****     int32 counts;
  99:.\Generated_Source\PSoC4/MotorCurrentADC.c **** 
 100:.\Generated_Source\PSoC4/MotorCurrentADC.c ****     #if(MotorCurrentADC_TOTAL_CHANNELS_NUM > 1u)
 101:.\Generated_Source\PSoC4/MotorCurrentADC.c ****         static const uint8 CYCODE MotorCurrentADC_InputsPlacement[] =
 102:.\Generated_Source\PSoC4/MotorCurrentADC.c ****         {
 103:.\Generated_Source\PSoC4/MotorCurrentADC.c ****             (uint8)(MotorCurrentADC_cy_psoc4_sarmux_8__CH_0_PORT << 4u) |
 104:.\Generated_Source\PSoC4/MotorCurrentADC.c ****             (uint8)MotorCurrentADC_cy_psoc4_sarmux_8__CH_0_PIN
 105:.\Generated_Source\PSoC4/MotorCurrentADC.c ****             ,(uint8)(MotorCurrentADC_cy_psoc4_sarmux_8__CH_1_PORT << 4u) |
 106:.\Generated_Source\PSoC4/MotorCurrentADC.c ****              (uint8)MotorCurrentADC_cy_psoc4_sarmux_8__CH_1_PIN
 107:.\Generated_Source\PSoC4/MotorCurrentADC.c ****             #if(MotorCurrentADC_TOTAL_CHANNELS_NUM > 2u)
 108:.\Generated_Source\PSoC4/MotorCurrentADC.c ****                 ,(uint8)(MotorCurrentADC_cy_psoc4_sarmux_8__CH_2_PORT << 4u) |
 109:.\Generated_Source\PSoC4/MotorCurrentADC.c ****                  (uint8)MotorCurrentADC_cy_psoc4_sarmux_8__CH_2_PIN
 110:.\Generated_Source\PSoC4/MotorCurrentADC.c ****             #endif /* End MotorCurrentADC_TOTAL_CHANNELS_NUM > 2u */
 111:.\Generated_Source\PSoC4/MotorCurrentADC.c ****             #if(MotorCurrentADC_TOTAL_CHANNELS_NUM > 3u)
 112:.\Generated_Source\PSoC4/MotorCurrentADC.c ****                 ,(uint8)(MotorCurrentADC_cy_psoc4_sarmux_8__CH_3_PORT << 4u) |
 113:.\Generated_Source\PSoC4/MotorCurrentADC.c ****                  (uint8)MotorCurrentADC_cy_psoc4_sarmux_8__CH_3_PIN
 114:.\Generated_Source\PSoC4/MotorCurrentADC.c ****             #endif /* End MotorCurrentADC_TOTAL_CHANNELS_NUM > 3u */
 115:.\Generated_Source\PSoC4/MotorCurrentADC.c ****             #if(MotorCurrentADC_TOTAL_CHANNELS_NUM > 4u)
 116:.\Generated_Source\PSoC4/MotorCurrentADC.c ****                 ,(uint8)(MotorCurrentADC_cy_psoc4_sarmux_8__CH_4_PORT << 4u) |
 117:.\Generated_Source\PSoC4/MotorCurrentADC.c ****                  (uint8)MotorCurrentADC_cy_psoc4_sarmux_8__CH_4_PIN
 118:.\Generated_Source\PSoC4/MotorCurrentADC.c ****             #endif /* End MotorCurrentADC_TOTAL_CHANNELS_NUM > 4u */
 119:.\Generated_Source\PSoC4/MotorCurrentADC.c ****             #if(MotorCurrentADC_TOTAL_CHANNELS_NUM > 5u)
 120:.\Generated_Source\PSoC4/MotorCurrentADC.c ****                 ,(uint8)(MotorCurrentADC_cy_psoc4_sarmux_8__CH_5_PORT << 4u) |
 121:.\Generated_Source\PSoC4/MotorCurrentADC.c ****                  (uint8)MotorCurrentADC_cy_psoc4_sarmux_8__CH_5_PIN
 122:.\Generated_Source\PSoC4/MotorCurrentADC.c ****             #endif /* End MotorCurrentADC_TOTAL_CHANNELS_NUM > 5u */
 123:.\Generated_Source\PSoC4/MotorCurrentADC.c ****             #if(MotorCurrentADC_TOTAL_CHANNELS_NUM > 6u)
 124:.\Generated_Source\PSoC4/MotorCurrentADC.c ****                 ,(uint8)(MotorCurrentADC_cy_psoc4_sarmux_8__CH_6_PORT << 4u) |
 125:.\Generated_Source\PSoC4/MotorCurrentADC.c ****                  (uint8)MotorCurrentADC_cy_psoc4_sarmux_8__CH_6_PIN
 126:.\Generated_Source\PSoC4/MotorCurrentADC.c ****             #endif /* End MotorCurrentADC_TOTAL_CHANNELS_NUM > 6u */
 127:.\Generated_Source\PSoC4/MotorCurrentADC.c ****             #if(MotorCurrentADC_TOTAL_CHANNELS_NUM > 7u)
 128:.\Generated_Source\PSoC4/MotorCurrentADC.c ****                 ,(uint8)(MotorCurrentADC_cy_psoc4_sarmux_8__CH_7_PORT << 4u) |
 129:.\Generated_Source\PSoC4/MotorCurrentADC.c ****                  (uint8)MotorCurrentADC_cy_psoc4_sarmux_8__CH_7_PIN
 130:.\Generated_Source\PSoC4/MotorCurrentADC.c ****             #endif /* End MotorCurrentADC_TOTAL_CHANNELS_NUM > 7u */
 131:.\Generated_Source\PSoC4/MotorCurrentADC.c ****             #if(MotorCurrentADC_TOTAL_CHANNELS_NUM > 8u)
 132:.\Generated_Source\PSoC4/MotorCurrentADC.c ****                 ,(uint8)(MotorCurrentADC_cy_psoc4_sarmux_8__CH_8_PORT << 4u) |
 133:.\Generated_Source\PSoC4/MotorCurrentADC.c ****                  (uint8)MotorCurrentADC_cy_psoc4_sarmux_8__CH_8_PIN
 134:.\Generated_Source\PSoC4/MotorCurrentADC.c ****             #endif /* End MotorCurrentADC_TOTAL_CHANNELS_NUM > 8u */
 135:.\Generated_Source\PSoC4/MotorCurrentADC.c ****         };
 136:.\Generated_Source\PSoC4/MotorCurrentADC.c ****     #endif /* End MotorCurrentADC_TOTAL_CHANNELS_NUM > 1u */
ARM GAS  C:\Users\Sam\AppData\Local\Temp\ccYsdH5V.s 			page 5


 137:.\Generated_Source\PSoC4/MotorCurrentADC.c **** 
 138:.\Generated_Source\PSoC4/MotorCurrentADC.c ****     #if(MotorCurrentADC_IRQ_REMOVE == 0u)
 139:.\Generated_Source\PSoC4/MotorCurrentADC.c ****         /* Start and set interrupt vector */
 140:.\Generated_Source\PSoC4/MotorCurrentADC.c ****         CyIntSetPriority(MotorCurrentADC_INTC_NUMBER, MotorCurrentADC_INTC_PRIOR_NUMBER);
  93              		.loc 1 140 0
  94 0006 0E20     		mov	r0, #14
  95 0008 0321     		mov	r1, #3
  96 000a FFF7FEFF 		bl	CyIntSetPriority
 141:.\Generated_Source\PSoC4/MotorCurrentADC.c ****         (void)CyIntSetVector(MotorCurrentADC_INTC_NUMBER, &MotorCurrentADC_ISR);
  97              		.loc 1 141 0
  98 000e 4E4B     		ldr	r3, .L14
  99 0010 0E20     		mov	r0, #14
 100 0012 191C     		mov	r1, r3
 101 0014 FFF7FEFF 		bl	CyIntSetVector
 142:.\Generated_Source\PSoC4/MotorCurrentADC.c ****     #endif   /* End MotorCurrentADC_IRQ_REMOVE */
 143:.\Generated_Source\PSoC4/MotorCurrentADC.c **** 
 144:.\Generated_Source\PSoC4/MotorCurrentADC.c ****     /* Init SAR and MUX registers */
 145:.\Generated_Source\PSoC4/MotorCurrentADC.c ****     MotorCurrentADC_SAR_CHAN_EN_REG = MotorCurrentADC_DEFAULT_EN_CHANNELS;
 102              		.loc 1 145 0
 103 0018 4C4B     		ldr	r3, .L14+4
 104 001a 0122     		mov	r2, #1
 105 001c 1A60     		str	r2, [r3]
 146:.\Generated_Source\PSoC4/MotorCurrentADC.c ****     MotorCurrentADC_SAR_CTRL_REG = MotorCurrentADC_DEFAULT_CTRL_REG_CFG;
 106              		.loc 1 146 0
 107 001e 4C4B     		ldr	r3, .L14+8
 108 0020 4C4A     		ldr	r2, .L14+12
 109 0022 1A60     		str	r2, [r3]
 147:.\Generated_Source\PSoC4/MotorCurrentADC.c ****     MotorCurrentADC_SAR_SAMPLE_CTRL_REG = MotorCurrentADC_DEFAULT_SAMPLE_CTRL_REG_CFG;
 110              		.loc 1 147 0
 111 0024 4C4B     		ldr	r3, .L14+16
 112 0026 4D4A     		ldr	r2, .L14+20
 113 0028 1A60     		str	r2, [r3]
 148:.\Generated_Source\PSoC4/MotorCurrentADC.c ****     MotorCurrentADC_SAR_RANGE_THRES_REG = MotorCurrentADC_DEFAULT_RANGE_THRES_REG_CFG;
 114              		.loc 1 148 0
 115 002a 4D4B     		ldr	r3, .L14+24
 116 002c 4D4A     		ldr	r2, .L14+28
 117 002e 1A60     		str	r2, [r3]
 149:.\Generated_Source\PSoC4/MotorCurrentADC.c ****     MotorCurrentADC_SAR_RANGE_COND_REG  = MotorCurrentADC_COMPARE_MODE;
 118              		.loc 1 149 0
 119 0030 4D4B     		ldr	r3, .L14+32
 120 0032 0022     		mov	r2, #0
 121 0034 1A60     		str	r2, [r3]
 150:.\Generated_Source\PSoC4/MotorCurrentADC.c ****     MotorCurrentADC_SAR_SAMPLE_TIME01_REG = MotorCurrentADC_DEFAULT_SAMPLE_TIME01_REG_CFG;
 122              		.loc 1 150 0
 123 0036 4D4B     		ldr	r3, .L14+36
 124 0038 4D4A     		ldr	r2, .L14+40
 125 003a 1A60     		str	r2, [r3]
 151:.\Generated_Source\PSoC4/MotorCurrentADC.c ****     MotorCurrentADC_SAR_SAMPLE_TIME23_REG = MotorCurrentADC_DEFAULT_SAMPLE_TIME23_REG_CFG;
 126              		.loc 1 151 0
 127 003c 4D4B     		ldr	r3, .L14+44
 128 003e 4C4A     		ldr	r2, .L14+40
 129 0040 1A60     		str	r2, [r3]
 152:.\Generated_Source\PSoC4/MotorCurrentADC.c ****     
 153:.\Generated_Source\PSoC4/MotorCurrentADC.c ****     /* Connect Vm to VSSA when even one channel is single-ended or multiple channels configured */
 154:.\Generated_Source\PSoC4/MotorCurrentADC.c ****     #if(MotorCurrentADC_DEFAULT_MUX_SWITCH0 != 0u)
 155:.\Generated_Source\PSoC4/MotorCurrentADC.c ****         MotorCurrentADC_MUX_SWITCH0_REG |= MotorCurrentADC_DEFAULT_MUX_SWITCH0;
 130              		.loc 1 155 0
ARM GAS  C:\Users\Sam\AppData\Local\Temp\ccYsdH5V.s 			page 6


 131 0042 4D4B     		ldr	r3, .L14+48
 132 0044 4C4A     		ldr	r2, .L14+48
 133 0046 1268     		ldr	r2, [r2]
 134 0048 8021     		mov	r1, #128
 135 004a 4902     		lsl	r1, r1, #9
 136 004c 0A43     		orr	r2, r1
 137 004e 1A60     		str	r2, [r3]
 156:.\Generated_Source\PSoC4/MotorCurrentADC.c ****         /* Set MUX_HW_CTRL_VSSA in MUX_SWITCH_HW_CTRL when multiple channels enabled */
 157:.\Generated_Source\PSoC4/MotorCurrentADC.c ****         #if(MotorCurrentADC_TOTAL_CHANNELS_NUM > 1u)
 158:.\Generated_Source\PSoC4/MotorCurrentADC.c ****             MotorCurrentADC_MUX_SWITCH_HW_CTRL_REG |= MotorCurrentADC_DEFAULT_MUX_SWITCH0;
 159:.\Generated_Source\PSoC4/MotorCurrentADC.c ****         #endif /* MotorCurrentADC_TOTAL_CHANNELS_NUM > 1u */
 160:.\Generated_Source\PSoC4/MotorCurrentADC.c ****     #endif /*MotorCurrentADC_CHANNELS_MODE !=0 */
 161:.\Generated_Source\PSoC4/MotorCurrentADC.c **** 
 162:.\Generated_Source\PSoC4/MotorCurrentADC.c ****     MotorCurrentADC_SAR_SATURATE_INTR_MASK_REG = 0u;
 138              		.loc 1 162 0
 139 0050 4A4B     		ldr	r3, .L14+52
 140 0052 0022     		mov	r2, #0
 141 0054 1A60     		str	r2, [r3]
 163:.\Generated_Source\PSoC4/MotorCurrentADC.c ****     MotorCurrentADC_SAR_RANGE_INTR_MASK_REG = 0u;
 142              		.loc 1 163 0
 143 0056 4A4B     		ldr	r3, .L14+56
 144 0058 0022     		mov	r2, #0
 145 005a 1A60     		str	r2, [r3]
 164:.\Generated_Source\PSoC4/MotorCurrentADC.c ****     MotorCurrentADC_SAR_INTR_MASK_REG = MotorCurrentADC_SAR_INTR_MASK;
 146              		.loc 1 164 0
 147 005c 494B     		ldr	r3, .L14+60
 148 005e 0122     		mov	r2, #1
 149 0060 1A60     		str	r2, [r3]
 165:.\Generated_Source\PSoC4/MotorCurrentADC.c **** 
 166:.\Generated_Source\PSoC4/MotorCurrentADC.c ****     #if(MotorCurrentADC_CY_SAR_IP_VER == MotorCurrentADC_CY_SAR_IP_PSOC4)
 167:.\Generated_Source\PSoC4/MotorCurrentADC.c ****         MotorCurrentADC_ANA_TRIM_REG = MotorCurrentADC_TRIM_COEF;
 150              		.loc 1 167 0
 151 0062 494B     		ldr	r3, .L14+64
 152 0064 0222     		mov	r2, #2
 153 0066 1A60     		str	r2, [r3]
 168:.\Generated_Source\PSoC4/MotorCurrentADC.c ****     #endif /* (MotorCurrentADC_CY_SAR_IP_VER == MotorCurrentADC_CY_SAR_IP_PSOC4) */
 169:.\Generated_Source\PSoC4/MotorCurrentADC.c **** 
 170:.\Generated_Source\PSoC4/MotorCurrentADC.c ****     /* Read and modify default configuration based on characterization */
 171:.\Generated_Source\PSoC4/MotorCurrentADC.c ****     tmpRegVal = MotorCurrentADC_SAR_DFT_CTRL_REG;
 154              		.loc 1 171 0
 155 0068 484B     		ldr	r3, .L14+68
 156 006a 1B68     		ldr	r3, [r3]
 157 006c 7B60     		str	r3, [r7, #4]
 172:.\Generated_Source\PSoC4/MotorCurrentADC.c ****     tmpRegVal &= (uint32)~MotorCurrentADC_DCEN;
 158              		.loc 1 172 0
 159 006e 7A68     		ldr	r2, [r7, #4]
 160 0070 474B     		ldr	r3, .L14+72
 161 0072 1340     		and	r3, r2
 162 0074 7B60     		str	r3, [r7, #4]
 173:.\Generated_Source\PSoC4/MotorCurrentADC.c ****     
 174:.\Generated_Source\PSoC4/MotorCurrentADC.c ****     #if(MotorCurrentADC_CY_SAR_IP_VER == MotorCurrentADC_CY_SAR_IP_PSOC4)
 175:.\Generated_Source\PSoC4/MotorCurrentADC.c ****         #if(MotorCurrentADC_NOMINAL_CLOCK_FREQ > (MotorCurrentADC_MAX_FREQUENCY / 2))
 176:.\Generated_Source\PSoC4/MotorCurrentADC.c ****             tmpRegVal |= MotorCurrentADC_SEL_CSEL_DFT_CHAR;
 177:.\Generated_Source\PSoC4/MotorCurrentADC.c ****         #else  /* clock speed < 9 Mhz */
 178:.\Generated_Source\PSoC4/MotorCurrentADC.c ****             tmpRegVal |= MotorCurrentADC_DLY_INC;
 163              		.loc 1 178 0
 164 0076 7B68     		ldr	r3, [r7, #4]
ARM GAS  C:\Users\Sam\AppData\Local\Temp\ccYsdH5V.s 			page 7


 165 0078 0122     		mov	r2, #1
 166 007a 1343     		orr	r3, r2
 167 007c 7B60     		str	r3, [r7, #4]
 179:.\Generated_Source\PSoC4/MotorCurrentADC.c ****         #endif /* clock speed > 9 Mhz */
 180:.\Generated_Source\PSoC4/MotorCurrentADC.c ****     #else
 181:.\Generated_Source\PSoC4/MotorCurrentADC.c ****         #if ((MotorCurrentADC_DEFAULT_VREF_SEL == MotorCurrentADC__INTERNAL1024) || \
 182:.\Generated_Source\PSoC4/MotorCurrentADC.c ****              (MotorCurrentADC_DEFAULT_VREF_SEL == MotorCurrentADC__INTERNALVREF))
 183:.\Generated_Source\PSoC4/MotorCurrentADC.c ****             tmpRegVal |= MotorCurrentADC_DLY_INC;
 184:.\Generated_Source\PSoC4/MotorCurrentADC.c ****         #else
 185:.\Generated_Source\PSoC4/MotorCurrentADC.c ****             tmpRegVal |= MotorCurrentADC_DCEN;
 186:.\Generated_Source\PSoC4/MotorCurrentADC.c ****             tmpRegVal &= (uint32)~MotorCurrentADC_DLY_INC;
 187:.\Generated_Source\PSoC4/MotorCurrentADC.c ****         #endif /* ((MotorCurrentADC_DEFAULT_VREF_SEL == MotorCurrentADC__INTERNAL1024) || \
 188:.\Generated_Source\PSoC4/MotorCurrentADC.c ****                    (MotorCurrentADC_DEFAULT_VREF_SEL == MotorCurrentADC__INTERNALVREF)) */
 189:.\Generated_Source\PSoC4/MotorCurrentADC.c ****     #endif /* (MotorCurrentADC_CY_SAR_IP_VER == MotorCurrentADC_CY_SAR_IP_PSOC4) */
 190:.\Generated_Source\PSoC4/MotorCurrentADC.c ****     
 191:.\Generated_Source\PSoC4/MotorCurrentADC.c ****     MotorCurrentADC_SAR_DFT_CTRL_REG = tmpRegVal;
 168              		.loc 1 191 0
 169 007e 434B     		ldr	r3, .L14+68
 170 0080 7A68     		ldr	r2, [r7, #4]
 171 0082 1A60     		str	r2, [r3]
 192:.\Generated_Source\PSoC4/MotorCurrentADC.c **** 
 193:.\Generated_Source\PSoC4/MotorCurrentADC.c ****     #if(MotorCurrentADC_MAX_RESOLUTION != MotorCurrentADC_RESOLUTION_12)
 194:.\Generated_Source\PSoC4/MotorCurrentADC.c ****         MotorCurrentADC_WOUNDING_REG = MotorCurrentADC_ALT_WOUNDING;
 195:.\Generated_Source\PSoC4/MotorCurrentADC.c ****     #endif /* MotorCurrentADC_MAX_RESOLUTION != MotorCurrentADC_RESOLUTION_12 */
 196:.\Generated_Source\PSoC4/MotorCurrentADC.c **** 
 197:.\Generated_Source\PSoC4/MotorCurrentADC.c ****     for(chNum = 0u; chNum < MotorCurrentADC_TOTAL_CHANNELS_NUM; chNum++)
 172              		.loc 1 197 0
 173 0084 0023     		mov	r3, #0
 174 0086 FB60     		str	r3, [r7, #12]
 175 0088 57E0     		b	.L6
 176              	.L13:
 198:.\Generated_Source\PSoC4/MotorCurrentADC.c ****     {
 199:.\Generated_Source\PSoC4/MotorCurrentADC.c ****         tmpRegVal = (MotorCurrentADC_channelsConfig[chNum] & MotorCurrentADC_CHANNEL_CONFIG_MASK);
 177              		.loc 1 199 0
 178 008a 0022     		mov	r2, #0
 179 008c DC23     		mov	r3, #220
 180 008e 9B01     		lsl	r3, r3, #6
 181 0090 1340     		and	r3, r2
 182 0092 7B60     		str	r3, [r7, #4]
 200:.\Generated_Source\PSoC4/MotorCurrentADC.c ****         #if(MotorCurrentADC_TOTAL_CHANNELS_NUM > 1u)
 201:.\Generated_Source\PSoC4/MotorCurrentADC.c ****             tmpRegVal |= MotorCurrentADC_InputsPlacement[chNum];
 202:.\Generated_Source\PSoC4/MotorCurrentADC.c ****         #endif /* End MotorCurrentADC_TOTAL_CHANNELS_NUM > 1u */
 203:.\Generated_Source\PSoC4/MotorCurrentADC.c ****         
 204:.\Generated_Source\PSoC4/MotorCurrentADC.c ****         
 205:.\Generated_Source\PSoC4/MotorCurrentADC.c ****         /* When the part is limited to 10-bit then the SUB_RESOLUTION bit
 206:.\Generated_Source\PSoC4/MotorCurrentADC.c ****         *  will be ignored and the RESOLUTION bit selects between 10-bit
 207:.\Generated_Source\PSoC4/MotorCurrentADC.c ****         *  (0) and 8-bit (1) resolution.
 208:.\Generated_Source\PSoC4/MotorCurrentADC.c ****         */
 209:.\Generated_Source\PSoC4/MotorCurrentADC.c ****         #if((MotorCurrentADC_MAX_RESOLUTION != MotorCurrentADC_RESOLUTION_12) && \
 210:.\Generated_Source\PSoC4/MotorCurrentADC.c ****             (MotorCurrentADC_ALT_WOUNDING == MotorCurrentADC_WOUNDING_10BIT))
 211:.\Generated_Source\PSoC4/MotorCurrentADC.c ****             tmpRegVal &= (uint32)(~MotorCurrentADC_ALT_RESOLUTION_ON);
 212:.\Generated_Source\PSoC4/MotorCurrentADC.c ****         #endif /* MotorCurrentADC_MAX_RESOLUTION != MotorCurrentADC_RESOLUTION_12 */
 213:.\Generated_Source\PSoC4/MotorCurrentADC.c **** 
 214:.\Generated_Source\PSoC4/MotorCurrentADC.c ****         #if(MotorCurrentADC_INJ_CHANNEL_ENABLED)
 215:.\Generated_Source\PSoC4/MotorCurrentADC.c ****         if(chNum < MotorCurrentADC_SEQUENCED_CHANNELS_NUM)
 216:.\Generated_Source\PSoC4/MotorCurrentADC.c ****         #endif /* MotorCurrentADC_INJ_CHANNEL_ENABLED */
 217:.\Generated_Source\PSoC4/MotorCurrentADC.c ****         {
ARM GAS  C:\Users\Sam\AppData\Local\Temp\ccYsdH5V.s 			page 8


 218:.\Generated_Source\PSoC4/MotorCurrentADC.c ****             CY_SET_REG32((reg32 *)(MotorCurrentADC_SAR_CHAN_CONFIG_IND + (uint32)(chNum << 2)), tmp
 183              		.loc 1 218 0
 184 0094 FB68     		ldr	r3, [r7, #12]
 185 0096 9B00     		lsl	r3, r3, #2
 186 0098 3E4A     		ldr	r2, .L14+76
 187 009a 9B18     		add	r3, r3, r2
 188 009c 7A68     		ldr	r2, [r7, #4]
 189 009e 1A60     		str	r2, [r3]
 219:.\Generated_Source\PSoC4/MotorCurrentADC.c **** 
 220:.\Generated_Source\PSoC4/MotorCurrentADC.c ****             if((MotorCurrentADC_channelsConfig[chNum] & MotorCurrentADC_IS_SATURATE_EN_MASK) != 0u)
 190              		.loc 1 220 0
 191 00a0 0022     		mov	r2, #0
 192 00a2 0123     		mov	r3, #1
 193 00a4 1340     		and	r3, r2
 194 00a6 0AD0     		beq	.L7
 221:.\Generated_Source\PSoC4/MotorCurrentADC.c ****             {
 222:.\Generated_Source\PSoC4/MotorCurrentADC.c ****                 MotorCurrentADC_SAR_SATURATE_INTR_MASK_REG |= (uint16)((uint16)1 << chNum);
 195              		.loc 1 222 0
 196 00a8 344B     		ldr	r3, .L14+52
 197 00aa 344A     		ldr	r2, .L14+52
 198 00ac 1168     		ldr	r1, [r2]
 199 00ae FA68     		ldr	r2, [r7, #12]
 200 00b0 0120     		mov	r0, #1
 201 00b2 041C     		mov	r4, r0
 202 00b4 9440     		lsl	r4, r4, r2
 203 00b6 221C     		mov	r2, r4
 204 00b8 92B2     		uxth	r2, r2
 205 00ba 0A43     		orr	r2, r1
 206 00bc 1A60     		str	r2, [r3]
 207              	.L7:
 223:.\Generated_Source\PSoC4/MotorCurrentADC.c ****             }
 224:.\Generated_Source\PSoC4/MotorCurrentADC.c **** 
 225:.\Generated_Source\PSoC4/MotorCurrentADC.c ****             if((MotorCurrentADC_channelsConfig[chNum] & MotorCurrentADC_IS_RANGE_CTRL_EN_MASK) != 0
 208              		.loc 1 225 0
 209 00be 0022     		mov	r2, #0
 210 00c0 0223     		mov	r3, #2
 211 00c2 1340     		and	r3, r2
 212 00c4 0AD0     		beq	.L8
 226:.\Generated_Source\PSoC4/MotorCurrentADC.c ****             {
 227:.\Generated_Source\PSoC4/MotorCurrentADC.c ****                 MotorCurrentADC_SAR_RANGE_INTR_MASK_REG |= (uint16)((uint16)1 << chNum);
 213              		.loc 1 227 0
 214 00c6 2E4B     		ldr	r3, .L14+56
 215 00c8 2D4A     		ldr	r2, .L14+56
 216 00ca 1168     		ldr	r1, [r2]
 217 00cc FA68     		ldr	r2, [r7, #12]
 218 00ce 0120     		mov	r0, #1
 219 00d0 041C     		mov	r4, r0
 220 00d2 9440     		lsl	r4, r4, r2
 221 00d4 221C     		mov	r2, r4
 222 00d6 92B2     		uxth	r2, r2
 223 00d8 0A43     		orr	r2, r1
 224 00da 1A60     		str	r2, [r3]
 225              	.L8:
 228:.\Generated_Source\PSoC4/MotorCurrentADC.c ****             }
 229:.\Generated_Source\PSoC4/MotorCurrentADC.c ****         }
 230:.\Generated_Source\PSoC4/MotorCurrentADC.c ****         #if(MotorCurrentADC_INJ_CHANNEL_ENABLED)
 231:.\Generated_Source\PSoC4/MotorCurrentADC.c ****             else
ARM GAS  C:\Users\Sam\AppData\Local\Temp\ccYsdH5V.s 			page 9


 232:.\Generated_Source\PSoC4/MotorCurrentADC.c ****             {
 233:.\Generated_Source\PSoC4/MotorCurrentADC.c ****                 CY_SET_REG32(MotorCurrentADC_SAR_INJ_CHAN_CONFIG_PTR, tmpRegVal | MotorCurrentADC_I
 234:.\Generated_Source\PSoC4/MotorCurrentADC.c **** 
 235:.\Generated_Source\PSoC4/MotorCurrentADC.c ****                 if((MotorCurrentADC_channelsConfig[chNum] & MotorCurrentADC_IS_SATURATE_EN_MASK) !=
 236:.\Generated_Source\PSoC4/MotorCurrentADC.c ****                 {
 237:.\Generated_Source\PSoC4/MotorCurrentADC.c ****                     MotorCurrentADC_SAR_INTR_MASK_REG |= MotorCurrentADC_INJ_SATURATE_MASK;
 238:.\Generated_Source\PSoC4/MotorCurrentADC.c ****                 }
 239:.\Generated_Source\PSoC4/MotorCurrentADC.c **** 
 240:.\Generated_Source\PSoC4/MotorCurrentADC.c ****                 if((MotorCurrentADC_channelsConfig[chNum] & MotorCurrentADC_IS_RANGE_CTRL_EN_MASK) 
 241:.\Generated_Source\PSoC4/MotorCurrentADC.c ****                 {
 242:.\Generated_Source\PSoC4/MotorCurrentADC.c ****                     MotorCurrentADC_SAR_INTR_MASK_REG |= MotorCurrentADC_INJ_RANGE_MASK;
 243:.\Generated_Source\PSoC4/MotorCurrentADC.c ****                 }
 244:.\Generated_Source\PSoC4/MotorCurrentADC.c ****             }
 245:.\Generated_Source\PSoC4/MotorCurrentADC.c ****         #endif /* MotorCurrentADC_INJ_CHANNEL_ENABLED */
 246:.\Generated_Source\PSoC4/MotorCurrentADC.c **** 
 247:.\Generated_Source\PSoC4/MotorCurrentADC.c ****         if((MotorCurrentADC_channelsConfig[chNum] & MotorCurrentADC_ALT_RESOLUTION_ON) != 0u)
 226              		.loc 1 247 0
 227 00dc 0022     		mov	r2, #0
 228 00de 8023     		mov	r3, #128
 229 00e0 9B00     		lsl	r3, r3, #2
 230 00e2 1340     		and	r3, r2
 231 00e4 03D0     		beq	.L9
 248:.\Generated_Source\PSoC4/MotorCurrentADC.c ****         {
 249:.\Generated_Source\PSoC4/MotorCurrentADC.c ****                counts = (int32)MotorCurrentADC_DEFAULT_MAX_WRK_ALT;
 232              		.loc 1 249 0
 233 00e6 8023     		mov	r3, #128
 234 00e8 5B00     		lsl	r3, r3, #1
 235 00ea BB60     		str	r3, [r7, #8]
 236 00ec 02E0     		b	.L10
 237              	.L9:
 250:.\Generated_Source\PSoC4/MotorCurrentADC.c ****         }
 251:.\Generated_Source\PSoC4/MotorCurrentADC.c ****         else
 252:.\Generated_Source\PSoC4/MotorCurrentADC.c ****         {
 253:.\Generated_Source\PSoC4/MotorCurrentADC.c ****                counts = (int32)MotorCurrentADC_SAR_WRK_MAX_12BIT;
 238              		.loc 1 253 0
 239 00ee 8023     		mov	r3, #128
 240 00f0 5B01     		lsl	r3, r3, #5
 241 00f2 BB60     		str	r3, [r7, #8]
 242              	.L10:
 254:.\Generated_Source\PSoC4/MotorCurrentADC.c ****         }
 255:.\Generated_Source\PSoC4/MotorCurrentADC.c **** 
 256:.\Generated_Source\PSoC4/MotorCurrentADC.c ****         if((MotorCurrentADC_channelsConfig[chNum] & MotorCurrentADC_DIFFERENTIAL_EN) == 0u)
 243              		.loc 1 256 0
 244 00f4 0022     		mov	r2, #0
 245 00f6 8023     		mov	r3, #128
 246 00f8 5B00     		lsl	r3, r3, #1
 247 00fa 1340     		and	r3, r2
 248 00fc 05D1     		bne	.L11
 257:.\Generated_Source\PSoC4/MotorCurrentADC.c ****         {
 258:.\Generated_Source\PSoC4/MotorCurrentADC.c ****             #if((MotorCurrentADC_DEFAULT_SE_RESULT_FORMAT_SEL == MotorCurrentADC__FSIGNED) && \
 259:.\Generated_Source\PSoC4/MotorCurrentADC.c ****                 (MotorCurrentADC_DEFAULT_NEG_INPUT_SEL == MotorCurrentADC__VREF))
 260:.\Generated_Source\PSoC4/MotorCurrentADC.c ****                 /* Set offset to the minus half scale to convert results to unsigned format */
 261:.\Generated_Source\PSoC4/MotorCurrentADC.c ****                 MotorCurrentADC_offset[chNum] = (int16)(counts / -2);
 262:.\Generated_Source\PSoC4/MotorCurrentADC.c ****             #else
 263:.\Generated_Source\PSoC4/MotorCurrentADC.c ****                 MotorCurrentADC_offset[chNum] = 0;
 249              		.loc 1 263 0
 250 00fe 264B     		ldr	r3, .L14+80
ARM GAS  C:\Users\Sam\AppData\Local\Temp\ccYsdH5V.s 			page 10


 251 0100 FA68     		ldr	r2, [r7, #12]
 252 0102 5200     		lsl	r2, r2, #1
 253 0104 0021     		mov	r1, #0
 254 0106 D152     		strh	r1, [r2, r3]
 255 0108 04E0     		b	.L12
 256              	.L11:
 264:.\Generated_Source\PSoC4/MotorCurrentADC.c ****             #endif /* end DEFAULT_SE_RESULT_FORMAT_SEL == MotorCurrentADC__FSIGNED */
 265:.\Generated_Source\PSoC4/MotorCurrentADC.c ****         }
 266:.\Generated_Source\PSoC4/MotorCurrentADC.c ****         else    /* Differential channel */
 267:.\Generated_Source\PSoC4/MotorCurrentADC.c ****         {
 268:.\Generated_Source\PSoC4/MotorCurrentADC.c ****             #if(MotorCurrentADC_DEFAULT_DIFF_RESULT_FORMAT_SEL == MotorCurrentADC__FUNSIGNED)
 269:.\Generated_Source\PSoC4/MotorCurrentADC.c ****                 /* Set offset to the half scale to convert results to signed format */
 270:.\Generated_Source\PSoC4/MotorCurrentADC.c ****                 MotorCurrentADC_offset[chNum] = (int16)(counts / 2);
 271:.\Generated_Source\PSoC4/MotorCurrentADC.c ****             #else
 272:.\Generated_Source\PSoC4/MotorCurrentADC.c ****                 MotorCurrentADC_offset[chNum] = 0;
 257              		.loc 1 272 0
 258 010a 234B     		ldr	r3, .L14+80
 259 010c FA68     		ldr	r2, [r7, #12]
 260 010e 5200     		lsl	r2, r2, #1
 261 0110 0021     		mov	r1, #0
 262 0112 D152     		strh	r1, [r2, r3]
 263              	.L12:
 273:.\Generated_Source\PSoC4/MotorCurrentADC.c ****             #endif /* end MotorCurrentADC_DEFAULT_DIFF_RESULT_FORMAT_SEL == MotorCurrentADC__FUNSIG
 274:.\Generated_Source\PSoC4/MotorCurrentADC.c ****         }
 275:.\Generated_Source\PSoC4/MotorCurrentADC.c ****         /* Calculate gain in counts per 10 volts with rounding */
 276:.\Generated_Source\PSoC4/MotorCurrentADC.c ****         MotorCurrentADC_countsPer10Volt[chNum] = (int16)(((counts * MotorCurrentADC_10MV_COUNTS) +
 264              		.loc 1 276 0
 265 0114 BB68     		ldr	r3, [r7, #8]
 266 0116 214A     		ldr	r2, .L14+84
 267 0118 5343     		mul	r3, r2
 268 011a 214A     		ldr	r2, .L14+88
 269 011c 9B18     		add	r3, r3, r2
 277:.\Generated_Source\PSoC4/MotorCurrentADC.c ****                             MotorCurrentADC_DEFAULT_VREF_MV_VALUE) / (MotorCurrentADC_DEFAULT_VREF_
 270              		.loc 1 277 0
 271 011e 181C     		mov	r0, r3
 272 0120 1E49     		ldr	r1, .L14+84
 273 0122 FFF7FEFF 		bl	__aeabi_idiv
 274 0126 031C     		mov	r3, r0
 276:.\Generated_Source\PSoC4/MotorCurrentADC.c ****         MotorCurrentADC_countsPer10Volt[chNum] = (int16)(((counts * MotorCurrentADC_10MV_COUNTS) +
 275              		.loc 1 276 0
 276 0128 9BB2     		uxth	r3, r3
 277 012a 19B2     		sxth	r1, r3
 278 012c 1D4B     		ldr	r3, .L14+92
 279 012e FA68     		ldr	r2, [r7, #12]
 280 0130 9200     		lsl	r2, r2, #2
 281 0132 D150     		str	r1, [r2, r3]
 197:.\Generated_Source\PSoC4/MotorCurrentADC.c ****     for(chNum = 0u; chNum < MotorCurrentADC_TOTAL_CHANNELS_NUM; chNum++)
 282              		.loc 1 197 0
 283 0134 FB68     		ldr	r3, [r7, #12]
 284 0136 0133     		add	r3, r3, #1
 285 0138 FB60     		str	r3, [r7, #12]
 286              	.L6:
 197:.\Generated_Source\PSoC4/MotorCurrentADC.c ****     for(chNum = 0u; chNum < MotorCurrentADC_TOTAL_CHANNELS_NUM; chNum++)
 287              		.loc 1 197 0 is_stmt 0 discriminator 1
 288 013a FB68     		ldr	r3, [r7, #12]
 289 013c 002B     		cmp	r3, #0
 290 013e A4D0     		beq	.L13
ARM GAS  C:\Users\Sam\AppData\Local\Temp\ccYsdH5V.s 			page 11


 278:.\Generated_Source\PSoC4/MotorCurrentADC.c ****     }
 279:.\Generated_Source\PSoC4/MotorCurrentADC.c **** }
 291              		.loc 1 279 0 is_stmt 1
 292 0140 BD46     		mov	sp, r7
 293 0142 05B0     		add	sp, sp, #20
 294              		@ sp needed
 295 0144 90BD     		pop	{r4, r7, pc}
 296              	.L15:
 297 0146 C046     		.align	2
 298              	.L14:
 299 0148 00000000 		.word	MotorCurrentADC_ISR
 300 014c 20001A40 		.word	1075445792
 301 0150 00001A40 		.word	1075445760
 302 0154 70020053 		.word	1392509552
 303 0158 04001A40 		.word	1075445764
 304 015c AC000080 		.word	-2147483476
 305 0160 18001A40 		.word	1075445784
 306 0164 0000FF07 		.word	134152192
 307 0168 1C001A40 		.word	1075445788
 308 016c 10001A40 		.word	1075445776
 309 0170 04000400 		.word	262148
 310 0174 14001A40 		.word	1075445780
 311 0178 00031A40 		.word	1075446528
 312 017c 28021A40 		.word	1075446312
 313 0180 38021A40 		.word	1075446328
 314 0184 18021A40 		.word	1075446296
 315 0188 000F1A40 		.word	1075449600
 316 018c 30001A40 		.word	1075445808
 317 0190 FFFFFFDF 		.word	-536870913
 318 0194 80001A40 		.word	1075445888
 319 0198 00000000 		.word	MotorCurrentADC_offset
 320 019c 10270000 		.word	10000
 321 01a0 88130000 		.word	5000
 322 01a4 00000000 		.word	MotorCurrentADC_countsPer10Volt
 323              		.cfi_endproc
 324              	.LFE1:
 325              		.size	MotorCurrentADC_Init, .-MotorCurrentADC_Init
 326              		.section	.text.MotorCurrentADC_Enable,"ax",%progbits
 327              		.align	2
 328              		.global	MotorCurrentADC_Enable
 329              		.code	16
 330              		.thumb_func
 331              		.type	MotorCurrentADC_Enable, %function
 332              	MotorCurrentADC_Enable:
 333              	.LFB2:
 280:.\Generated_Source\PSoC4/MotorCurrentADC.c **** 
 281:.\Generated_Source\PSoC4/MotorCurrentADC.c **** /*******************************************************************************
 282:.\Generated_Source\PSoC4/MotorCurrentADC.c **** * Function Name: ADC_SAR_1_Enable
 283:.\Generated_Source\PSoC4/MotorCurrentADC.c **** ********************************************************************************
 284:.\Generated_Source\PSoC4/MotorCurrentADC.c **** *
 285:.\Generated_Source\PSoC4/MotorCurrentADC.c **** * Summary:
 286:.\Generated_Source\PSoC4/MotorCurrentADC.c **** *  Enables the clock and analog power for SAR ADC.
 287:.\Generated_Source\PSoC4/MotorCurrentADC.c **** *
 288:.\Generated_Source\PSoC4/MotorCurrentADC.c **** * Parameters:
 289:.\Generated_Source\PSoC4/MotorCurrentADC.c **** *  None.
 290:.\Generated_Source\PSoC4/MotorCurrentADC.c **** *
 291:.\Generated_Source\PSoC4/MotorCurrentADC.c **** * Return:
ARM GAS  C:\Users\Sam\AppData\Local\Temp\ccYsdH5V.s 			page 12


 292:.\Generated_Source\PSoC4/MotorCurrentADC.c **** *  None.
 293:.\Generated_Source\PSoC4/MotorCurrentADC.c **** *
 294:.\Generated_Source\PSoC4/MotorCurrentADC.c **** *******************************************************************************/
 295:.\Generated_Source\PSoC4/MotorCurrentADC.c **** void MotorCurrentADC_Enable(void)
 296:.\Generated_Source\PSoC4/MotorCurrentADC.c **** {
 334              		.loc 1 296 0
 335              		.cfi_startproc
 336 0000 80B5     		push	{r7, lr}
 337              		.cfi_def_cfa_offset 8
 338              		.cfi_offset 7, -8
 339              		.cfi_offset 14, -4
 340 0002 00AF     		add	r7, sp, #0
 341              		.cfi_def_cfa_register 7
 297:.\Generated_Source\PSoC4/MotorCurrentADC.c ****     if (0u == (MotorCurrentADC_SAR_CTRL_REG & MotorCurrentADC_ENABLE))
 342              		.loc 1 297 0
 343 0004 074B     		ldr	r3, .L18
 344 0006 1B68     		ldr	r3, [r3]
 345 0008 002B     		cmp	r3, #0
 346 000a 09DB     		blt	.L16
 298:.\Generated_Source\PSoC4/MotorCurrentADC.c ****     {
 299:.\Generated_Source\PSoC4/MotorCurrentADC.c ****         #if(MotorCurrentADC_CY_SAR_IP_VER != MotorCurrentADC_CY_SAR_IP_PSOC4)
 300:.\Generated_Source\PSoC4/MotorCurrentADC.c **** 
 301:.\Generated_Source\PSoC4/MotorCurrentADC.c ****             while (0u != (MotorCurrentADC_SAR_STATUS_REG & MotorCurrentADC_STATUS_BUSY))
 302:.\Generated_Source\PSoC4/MotorCurrentADC.c ****             {
 303:.\Generated_Source\PSoC4/MotorCurrentADC.c ****                 /* wait for SAR to go idle for to avoid deadlock */
 304:.\Generated_Source\PSoC4/MotorCurrentADC.c ****             }
 305:.\Generated_Source\PSoC4/MotorCurrentADC.c ****         #endif /* (MotorCurrentADC_CY_SAR_IP_VER != MotorCurrentADC_CY_SAR_IP_PSOC4) */
 306:.\Generated_Source\PSoC4/MotorCurrentADC.c ****         
 307:.\Generated_Source\PSoC4/MotorCurrentADC.c ****         MotorCurrentADC_SAR_CTRL_REG |= MotorCurrentADC_ENABLE;
 347              		.loc 1 307 0
 348 000c 054B     		ldr	r3, .L18
 349 000e 054A     		ldr	r2, .L18
 350 0010 1268     		ldr	r2, [r2]
 351 0012 8021     		mov	r1, #128
 352 0014 0906     		lsl	r1, r1, #24
 353 0016 0A43     		orr	r2, r1
 354 0018 1A60     		str	r2, [r3]
 308:.\Generated_Source\PSoC4/MotorCurrentADC.c ****         
 309:.\Generated_Source\PSoC4/MotorCurrentADC.c ****         /* The block is ready to use 10 us after the enable signal is set high. */
 310:.\Generated_Source\PSoC4/MotorCurrentADC.c ****         CyDelayUs(MotorCurrentADC_10US_DELAY);         
 355              		.loc 1 310 0
 356 001a 0A20     		mov	r0, #10
 357 001c FFF7FEFF 		bl	CyDelayUs
 358              	.L16:
 311:.\Generated_Source\PSoC4/MotorCurrentADC.c ****     }
 312:.\Generated_Source\PSoC4/MotorCurrentADC.c **** }
 359              		.loc 1 312 0
 360 0020 BD46     		mov	sp, r7
 361              		@ sp needed
 362 0022 80BD     		pop	{r7, pc}
 363              	.L19:
 364              		.align	2
 365              	.L18:
 366 0024 00001A40 		.word	1075445760
 367              		.cfi_endproc
 368              	.LFE2:
 369              		.size	MotorCurrentADC_Enable, .-MotorCurrentADC_Enable
ARM GAS  C:\Users\Sam\AppData\Local\Temp\ccYsdH5V.s 			page 13


 370              		.section	.text.MotorCurrentADC_Stop,"ax",%progbits
 371              		.align	2
 372              		.global	MotorCurrentADC_Stop
 373              		.code	16
 374              		.thumb_func
 375              		.type	MotorCurrentADC_Stop, %function
 376              	MotorCurrentADC_Stop:
 377              	.LFB3:
 313:.\Generated_Source\PSoC4/MotorCurrentADC.c **** 
 314:.\Generated_Source\PSoC4/MotorCurrentADC.c **** 
 315:.\Generated_Source\PSoC4/MotorCurrentADC.c **** /*******************************************************************************
 316:.\Generated_Source\PSoC4/MotorCurrentADC.c **** * Function Name: MotorCurrentADC_Stop
 317:.\Generated_Source\PSoC4/MotorCurrentADC.c **** ********************************************************************************
 318:.\Generated_Source\PSoC4/MotorCurrentADC.c **** *
 319:.\Generated_Source\PSoC4/MotorCurrentADC.c **** * Summary:
 320:.\Generated_Source\PSoC4/MotorCurrentADC.c **** *  This function stops ADC conversions and puts the ADC into its lowest power
 321:.\Generated_Source\PSoC4/MotorCurrentADC.c **** *  mode.
 322:.\Generated_Source\PSoC4/MotorCurrentADC.c **** *
 323:.\Generated_Source\PSoC4/MotorCurrentADC.c **** * Parameters:
 324:.\Generated_Source\PSoC4/MotorCurrentADC.c **** *  None.
 325:.\Generated_Source\PSoC4/MotorCurrentADC.c **** *
 326:.\Generated_Source\PSoC4/MotorCurrentADC.c **** * Return:
 327:.\Generated_Source\PSoC4/MotorCurrentADC.c **** *  None.
 328:.\Generated_Source\PSoC4/MotorCurrentADC.c **** *
 329:.\Generated_Source\PSoC4/MotorCurrentADC.c **** *******************************************************************************/
 330:.\Generated_Source\PSoC4/MotorCurrentADC.c **** void MotorCurrentADC_Stop(void)
 331:.\Generated_Source\PSoC4/MotorCurrentADC.c **** {
 378              		.loc 1 331 0
 379              		.cfi_startproc
 380 0000 80B5     		push	{r7, lr}
 381              		.cfi_def_cfa_offset 8
 382              		.cfi_offset 7, -8
 383              		.cfi_offset 14, -4
 384 0002 00AF     		add	r7, sp, #0
 385              		.cfi_def_cfa_register 7
 332:.\Generated_Source\PSoC4/MotorCurrentADC.c ****     MotorCurrentADC_SAR_CTRL_REG &= (uint32)~MotorCurrentADC_ENABLE;
 386              		.loc 1 332 0
 387 0004 034B     		ldr	r3, .L21
 388 0006 034A     		ldr	r2, .L21
 389 0008 1268     		ldr	r2, [r2]
 390 000a 5200     		lsl	r2, r2, #1
 391 000c 5208     		lsr	r2, r2, #1
 392 000e 1A60     		str	r2, [r3]
 333:.\Generated_Source\PSoC4/MotorCurrentADC.c **** }
 393              		.loc 1 333 0
 394 0010 BD46     		mov	sp, r7
 395              		@ sp needed
 396 0012 80BD     		pop	{r7, pc}
 397              	.L22:
 398              		.align	2
 399              	.L21:
 400 0014 00001A40 		.word	1075445760
 401              		.cfi_endproc
 402              	.LFE3:
 403              		.size	MotorCurrentADC_Stop, .-MotorCurrentADC_Stop
 404              		.section	.text.MotorCurrentADC_StartConvert,"ax",%progbits
 405              		.align	2
ARM GAS  C:\Users\Sam\AppData\Local\Temp\ccYsdH5V.s 			page 14


 406              		.global	MotorCurrentADC_StartConvert
 407              		.code	16
 408              		.thumb_func
 409              		.type	MotorCurrentADC_StartConvert, %function
 410              	MotorCurrentADC_StartConvert:
 411              	.LFB4:
 334:.\Generated_Source\PSoC4/MotorCurrentADC.c **** 
 335:.\Generated_Source\PSoC4/MotorCurrentADC.c **** 
 336:.\Generated_Source\PSoC4/MotorCurrentADC.c **** /*******************************************************************************
 337:.\Generated_Source\PSoC4/MotorCurrentADC.c **** * Function Name: MotorCurrentADC_StartConvert
 338:.\Generated_Source\PSoC4/MotorCurrentADC.c **** ********************************************************************************
 339:.\Generated_Source\PSoC4/MotorCurrentADC.c **** *
 340:.\Generated_Source\PSoC4/MotorCurrentADC.c **** * Summary:
 341:.\Generated_Source\PSoC4/MotorCurrentADC.c **** *  Description:
 342:.\Generated_Source\PSoC4/MotorCurrentADC.c **** *  For free running mode, this API starts the conversion process and it
 343:.\Generated_Source\PSoC4/MotorCurrentADC.c **** *  runs continuously.
 344:.\Generated_Source\PSoC4/MotorCurrentADC.c **** *
 345:.\Generated_Source\PSoC4/MotorCurrentADC.c **** *  In a triggered mode, this routine triggers every conversion by
 346:.\Generated_Source\PSoC4/MotorCurrentADC.c **** *  writing into the FW_TRIGGER bit in SAR_START_CTRL reg. In triggered mode,
 347:.\Generated_Source\PSoC4/MotorCurrentADC.c **** *  every conversion has to start by this API.
 348:.\Generated_Source\PSoC4/MotorCurrentADC.c **** *
 349:.\Generated_Source\PSoC4/MotorCurrentADC.c **** * Parameters:
 350:.\Generated_Source\PSoC4/MotorCurrentADC.c **** *  None.
 351:.\Generated_Source\PSoC4/MotorCurrentADC.c **** *
 352:.\Generated_Source\PSoC4/MotorCurrentADC.c **** * Return:
 353:.\Generated_Source\PSoC4/MotorCurrentADC.c **** *  None.
 354:.\Generated_Source\PSoC4/MotorCurrentADC.c **** *
 355:.\Generated_Source\PSoC4/MotorCurrentADC.c **** *******************************************************************************/
 356:.\Generated_Source\PSoC4/MotorCurrentADC.c **** void MotorCurrentADC_StartConvert(void)
 357:.\Generated_Source\PSoC4/MotorCurrentADC.c **** {
 412              		.loc 1 357 0
 413              		.cfi_startproc
 414 0000 80B5     		push	{r7, lr}
 415              		.cfi_def_cfa_offset 8
 416              		.cfi_offset 7, -8
 417              		.cfi_offset 14, -4
 418 0002 00AF     		add	r7, sp, #0
 419              		.cfi_def_cfa_register 7
 358:.\Generated_Source\PSoC4/MotorCurrentADC.c ****     #if(MotorCurrentADC_DEFAULT_SAMPLE_MODE_SEL == MotorCurrentADC__FREERUNNING)
 359:.\Generated_Source\PSoC4/MotorCurrentADC.c ****         MotorCurrentADC_SAR_SAMPLE_CTRL_REG |= MotorCurrentADC_CONTINUOUS_EN;
 420              		.loc 1 359 0
 421 0004 044B     		ldr	r3, .L24
 422 0006 044A     		ldr	r2, .L24
 423 0008 1268     		ldr	r2, [r2]
 424 000a 8021     		mov	r1, #128
 425 000c 4902     		lsl	r1, r1, #9
 426 000e 0A43     		orr	r2, r1
 427 0010 1A60     		str	r2, [r3]
 360:.\Generated_Source\PSoC4/MotorCurrentADC.c ****     #else /* Firmware trigger */
 361:.\Generated_Source\PSoC4/MotorCurrentADC.c ****         MotorCurrentADC_SAR_START_CTRL_REG = MotorCurrentADC_FW_TRIGGER;
 362:.\Generated_Source\PSoC4/MotorCurrentADC.c ****     #endif /* End MotorCurrentADC_DEFAULT_SAMPLE_MODE == MotorCurrentADC__FREERUNNING */
 363:.\Generated_Source\PSoC4/MotorCurrentADC.c **** 
 364:.\Generated_Source\PSoC4/MotorCurrentADC.c **** }
 428              		.loc 1 364 0
 429 0012 BD46     		mov	sp, r7
 430              		@ sp needed
 431 0014 80BD     		pop	{r7, pc}
ARM GAS  C:\Users\Sam\AppData\Local\Temp\ccYsdH5V.s 			page 15


 432              	.L25:
 433 0016 C046     		.align	2
 434              	.L24:
 435 0018 04001A40 		.word	1075445764
 436              		.cfi_endproc
 437              	.LFE4:
 438              		.size	MotorCurrentADC_StartConvert, .-MotorCurrentADC_StartConvert
 439              		.section	.text.MotorCurrentADC_StopConvert,"ax",%progbits
 440              		.align	2
 441              		.global	MotorCurrentADC_StopConvert
 442              		.code	16
 443              		.thumb_func
 444              		.type	MotorCurrentADC_StopConvert, %function
 445              	MotorCurrentADC_StopConvert:
 446              	.LFB5:
 365:.\Generated_Source\PSoC4/MotorCurrentADC.c **** 
 366:.\Generated_Source\PSoC4/MotorCurrentADC.c **** 
 367:.\Generated_Source\PSoC4/MotorCurrentADC.c **** /*******************************************************************************
 368:.\Generated_Source\PSoC4/MotorCurrentADC.c **** * Function Name: MotorCurrentADC_StopConvert
 369:.\Generated_Source\PSoC4/MotorCurrentADC.c **** ********************************************************************************
 370:.\Generated_Source\PSoC4/MotorCurrentADC.c **** *
 371:.\Generated_Source\PSoC4/MotorCurrentADC.c **** * Summary:
 372:.\Generated_Source\PSoC4/MotorCurrentADC.c **** *  Forces the ADC to stop all conversions.
 373:.\Generated_Source\PSoC4/MotorCurrentADC.c **** *
 374:.\Generated_Source\PSoC4/MotorCurrentADC.c **** * Parameters:
 375:.\Generated_Source\PSoC4/MotorCurrentADC.c **** *  None.
 376:.\Generated_Source\PSoC4/MotorCurrentADC.c **** *
 377:.\Generated_Source\PSoC4/MotorCurrentADC.c **** * Return:
 378:.\Generated_Source\PSoC4/MotorCurrentADC.c **** *  None.
 379:.\Generated_Source\PSoC4/MotorCurrentADC.c **** *
 380:.\Generated_Source\PSoC4/MotorCurrentADC.c **** *******************************************************************************/
 381:.\Generated_Source\PSoC4/MotorCurrentADC.c **** void MotorCurrentADC_StopConvert(void)
 382:.\Generated_Source\PSoC4/MotorCurrentADC.c **** {
 447              		.loc 1 382 0
 448              		.cfi_startproc
 449 0000 80B5     		push	{r7, lr}
 450              		.cfi_def_cfa_offset 8
 451              		.cfi_offset 7, -8
 452              		.cfi_offset 14, -4
 453 0002 00AF     		add	r7, sp, #0
 454              		.cfi_def_cfa_register 7
 383:.\Generated_Source\PSoC4/MotorCurrentADC.c ****     #if(MotorCurrentADC_DEFAULT_SAMPLE_MODE_SEL == MotorCurrentADC__FREERUNNING)
 384:.\Generated_Source\PSoC4/MotorCurrentADC.c ****         MotorCurrentADC_SAR_SAMPLE_CTRL_REG &= (uint32)(~MotorCurrentADC_CONTINUOUS_EN);
 455              		.loc 1 384 0
 456 0004 034B     		ldr	r3, .L27
 457 0006 034A     		ldr	r2, .L27
 458 0008 1168     		ldr	r1, [r2]
 459 000a 034A     		ldr	r2, .L27+4
 460 000c 0A40     		and	r2, r1
 461 000e 1A60     		str	r2, [r3]
 385:.\Generated_Source\PSoC4/MotorCurrentADC.c ****     #endif /* MotorCurrentADC_DEFAULT_SAMPLE_MODE == MotorCurrentADC__FREERUNNING */
 386:.\Generated_Source\PSoC4/MotorCurrentADC.c **** }
 462              		.loc 1 386 0
 463 0010 BD46     		mov	sp, r7
 464              		@ sp needed
 465 0012 80BD     		pop	{r7, pc}
 466              	.L28:
ARM GAS  C:\Users\Sam\AppData\Local\Temp\ccYsdH5V.s 			page 16


 467              		.align	2
 468              	.L27:
 469 0014 04001A40 		.word	1075445764
 470 0018 FFFFFEFF 		.word	-65537
 471              		.cfi_endproc
 472              	.LFE5:
 473              		.size	MotorCurrentADC_StopConvert, .-MotorCurrentADC_StopConvert
 474              		.section	.text.MotorCurrentADC_IsEndConversion,"ax",%progbits
 475              		.align	2
 476              		.global	MotorCurrentADC_IsEndConversion
 477              		.code	16
 478              		.thumb_func
 479              		.type	MotorCurrentADC_IsEndConversion, %function
 480              	MotorCurrentADC_IsEndConversion:
 481              	.LFB6:
 387:.\Generated_Source\PSoC4/MotorCurrentADC.c **** 
 388:.\Generated_Source\PSoC4/MotorCurrentADC.c **** 
 389:.\Generated_Source\PSoC4/MotorCurrentADC.c **** /*******************************************************************************
 390:.\Generated_Source\PSoC4/MotorCurrentADC.c **** * Function Name: MotorCurrentADC_IsEndConversion
 391:.\Generated_Source\PSoC4/MotorCurrentADC.c **** ********************************************************************************
 392:.\Generated_Source\PSoC4/MotorCurrentADC.c **** *
 393:.\Generated_Source\PSoC4/MotorCurrentADC.c **** * Summary:
 394:.\Generated_Source\PSoC4/MotorCurrentADC.c **** *  Description: Checks for ADC end of conversion for the case one
 395:.\Generated_Source\PSoC4/MotorCurrentADC.c **** *  channel and end of scan for the case of multiple channels. It acts
 396:.\Generated_Source\PSoC4/MotorCurrentADC.c **** *  as a software version of the EOC. This function provides the
 397:.\Generated_Source\PSoC4/MotorCurrentADC.c **** *  programmer with two options. In one mode this function
 398:.\Generated_Source\PSoC4/MotorCurrentADC.c **** *  immediately returns with the conversion status. In the other mode,
 399:.\Generated_Source\PSoC4/MotorCurrentADC.c **** *  the function does not return (blocking) until the conversion has
 400:.\Generated_Source\PSoC4/MotorCurrentADC.c **** *  completed.
 401:.\Generated_Source\PSoC4/MotorCurrentADC.c **** *
 402:.\Generated_Source\PSoC4/MotorCurrentADC.c **** * Parameters:
 403:.\Generated_Source\PSoC4/MotorCurrentADC.c **** *  ADC_RETURN_STATUS        -> Immediately returns conversion result status
 404:.\Generated_Source\PSoC4/MotorCurrentADC.c **** *  ADC_WAIT_FOR_RESULT      -> Does not return until ADC complete
 405:.\Generated_Source\PSoC4/MotorCurrentADC.c **** *  ADC_RETURN_STATUS_INJ    -> Immediately returns conversion result status
 406:.\Generated_Source\PSoC4/MotorCurrentADC.c **** *                              for injection channel
 407:.\Generated_Source\PSoC4/MotorCurrentADC.c **** *  ADC_WAIT_FOR_RESULT_INJ  -> Does not return until ADC completes injection
 408:.\Generated_Source\PSoC4/MotorCurrentADC.c **** *                              channel conversion
 409:.\Generated_Source\PSoC4/MotorCurrentADC.c **** *
 410:.\Generated_Source\PSoC4/MotorCurrentADC.c **** * Return:
 411:.\Generated_Source\PSoC4/MotorCurrentADC.c **** *  If a non-zero value is returned, the last conversion or scan has completed.
 412:.\Generated_Source\PSoC4/MotorCurrentADC.c **** *  If the returned value is zero, the ADC is still in the process of a scan.
 413:.\Generated_Source\PSoC4/MotorCurrentADC.c **** *
 414:.\Generated_Source\PSoC4/MotorCurrentADC.c **** *******************************************************************************/
 415:.\Generated_Source\PSoC4/MotorCurrentADC.c **** uint32 MotorCurrentADC_IsEndConversion(uint32 retMode)
 416:.\Generated_Source\PSoC4/MotorCurrentADC.c **** {
 482              		.loc 1 416 0
 483              		.cfi_startproc
 484 0000 80B5     		push	{r7, lr}
 485              		.cfi_def_cfa_offset 8
 486              		.cfi_offset 7, -8
 487              		.cfi_offset 14, -4
 488 0002 84B0     		sub	sp, sp, #16
 489              		.cfi_def_cfa_offset 24
 490 0004 00AF     		add	r7, sp, #0
 491              		.cfi_def_cfa_register 7
 492 0006 7860     		str	r0, [r7, #4]
 417:.\Generated_Source\PSoC4/MotorCurrentADC.c ****     uint32 status = 0u;
ARM GAS  C:\Users\Sam\AppData\Local\Temp\ccYsdH5V.s 			page 17


 493              		.loc 1 417 0
 494 0008 0023     		mov	r3, #0
 495 000a FB60     		str	r3, [r7, #12]
 418:.\Generated_Source\PSoC4/MotorCurrentADC.c **** 
 419:.\Generated_Source\PSoC4/MotorCurrentADC.c ****     if((retMode & (MotorCurrentADC_RETURN_STATUS | MotorCurrentADC_WAIT_FOR_RESULT)) != 0u)
 496              		.loc 1 419 0
 497 000c 7A68     		ldr	r2, [r7, #4]
 498 000e 0323     		mov	r3, #3
 499 0010 1340     		and	r3, r2
 500 0012 11D0     		beq	.L30
 501              	.L32:
 420:.\Generated_Source\PSoC4/MotorCurrentADC.c ****     {
 421:.\Generated_Source\PSoC4/MotorCurrentADC.c ****         do
 422:.\Generated_Source\PSoC4/MotorCurrentADC.c ****         {
 423:.\Generated_Source\PSoC4/MotorCurrentADC.c ****             status = MotorCurrentADC_SAR_INTR_REG & MotorCurrentADC_EOS_MASK;
 502              		.loc 1 423 0 discriminator 1
 503 0014 0B4B     		ldr	r3, .L34
 504 0016 1A68     		ldr	r2, [r3]
 505 0018 0123     		mov	r3, #1
 506 001a 1340     		and	r3, r2
 507 001c FB60     		str	r3, [r7, #12]
 424:.\Generated_Source\PSoC4/MotorCurrentADC.c ****         }while((status == 0u) && ((retMode & MotorCurrentADC_WAIT_FOR_RESULT) != 0u));
 508              		.loc 1 424 0 discriminator 1
 509 001e FB68     		ldr	r3, [r7, #12]
 510 0020 002B     		cmp	r3, #0
 511 0022 03D1     		bne	.L31
 512 0024 7A68     		ldr	r2, [r7, #4]
 513 0026 0223     		mov	r3, #2
 514 0028 1340     		and	r3, r2
 515 002a F3D1     		bne	.L32
 516              	.L31:
 425:.\Generated_Source\PSoC4/MotorCurrentADC.c **** 
 426:.\Generated_Source\PSoC4/MotorCurrentADC.c ****         if(status != 0u)
 517              		.loc 1 426 0
 518 002c FB68     		ldr	r3, [r7, #12]
 519 002e 002B     		cmp	r3, #0
 520 0030 02D0     		beq	.L30
 427:.\Generated_Source\PSoC4/MotorCurrentADC.c ****         {
 428:.\Generated_Source\PSoC4/MotorCurrentADC.c ****             /* Clear EOS bit */
 429:.\Generated_Source\PSoC4/MotorCurrentADC.c ****             MotorCurrentADC_SAR_INTR_REG = MotorCurrentADC_EOS_MASK;
 521              		.loc 1 429 0
 522 0032 044B     		ldr	r3, .L34
 523 0034 0122     		mov	r2, #1
 524 0036 1A60     		str	r2, [r3]
 525              	.L30:
 430:.\Generated_Source\PSoC4/MotorCurrentADC.c ****         }
 431:.\Generated_Source\PSoC4/MotorCurrentADC.c ****     }
 432:.\Generated_Source\PSoC4/MotorCurrentADC.c **** 
 433:.\Generated_Source\PSoC4/MotorCurrentADC.c ****     #if(MotorCurrentADC_INJ_CHANNEL_ENABLED)
 434:.\Generated_Source\PSoC4/MotorCurrentADC.c ****         if((retMode & (MotorCurrentADC_RETURN_STATUS_INJ | MotorCurrentADC_WAIT_FOR_RESULT_INJ)) !=
 435:.\Generated_Source\PSoC4/MotorCurrentADC.c ****         {
 436:.\Generated_Source\PSoC4/MotorCurrentADC.c ****             do
 437:.\Generated_Source\PSoC4/MotorCurrentADC.c ****             {
 438:.\Generated_Source\PSoC4/MotorCurrentADC.c ****                 status |= MotorCurrentADC_SAR_INTR_REG & MotorCurrentADC_INJ_EOC_MASK;
 439:.\Generated_Source\PSoC4/MotorCurrentADC.c ****             }while(((status & MotorCurrentADC_INJ_EOC_MASK) == 0u) &&
 440:.\Generated_Source\PSoC4/MotorCurrentADC.c ****                    ((retMode & MotorCurrentADC_WAIT_FOR_RESULT_INJ) != 0u));
 441:.\Generated_Source\PSoC4/MotorCurrentADC.c **** 
ARM GAS  C:\Users\Sam\AppData\Local\Temp\ccYsdH5V.s 			page 18


 442:.\Generated_Source\PSoC4/MotorCurrentADC.c ****             if((status & MotorCurrentADC_INJ_EOC_MASK) != 0u)
 443:.\Generated_Source\PSoC4/MotorCurrentADC.c ****             {
 444:.\Generated_Source\PSoC4/MotorCurrentADC.c ****                 /* Clear Injection EOS bit */
 445:.\Generated_Source\PSoC4/MotorCurrentADC.c ****                 MotorCurrentADC_SAR_INTR_REG = MotorCurrentADC_INJ_EOC_MASK;
 446:.\Generated_Source\PSoC4/MotorCurrentADC.c ****             }
 447:.\Generated_Source\PSoC4/MotorCurrentADC.c ****         }
 448:.\Generated_Source\PSoC4/MotorCurrentADC.c ****     #endif /* MotorCurrentADC_INJ_CHANNEL_ENABLED */
 449:.\Generated_Source\PSoC4/MotorCurrentADC.c **** 
 450:.\Generated_Source\PSoC4/MotorCurrentADC.c ****     return (status);
 526              		.loc 1 450 0
 527 0038 FB68     		ldr	r3, [r7, #12]
 451:.\Generated_Source\PSoC4/MotorCurrentADC.c **** }
 528              		.loc 1 451 0
 529 003a 181C     		mov	r0, r3
 530 003c BD46     		mov	sp, r7
 531 003e 04B0     		add	sp, sp, #16
 532              		@ sp needed
 533 0040 80BD     		pop	{r7, pc}
 534              	.L35:
 535 0042 C046     		.align	2
 536              	.L34:
 537 0044 10021A40 		.word	1075446288
 538              		.cfi_endproc
 539              	.LFE6:
 540              		.size	MotorCurrentADC_IsEndConversion, .-MotorCurrentADC_IsEndConversion
 541              		.section	.text.MotorCurrentADC_GetResult16,"ax",%progbits
 542              		.align	2
 543              		.global	MotorCurrentADC_GetResult16
 544              		.code	16
 545              		.thumb_func
 546              		.type	MotorCurrentADC_GetResult16, %function
 547              	MotorCurrentADC_GetResult16:
 548              	.LFB7:
 452:.\Generated_Source\PSoC4/MotorCurrentADC.c **** 
 453:.\Generated_Source\PSoC4/MotorCurrentADC.c **** 
 454:.\Generated_Source\PSoC4/MotorCurrentADC.c **** /*******************************************************************************
 455:.\Generated_Source\PSoC4/MotorCurrentADC.c **** * Function Name: MotorCurrentADC_GetResult16
 456:.\Generated_Source\PSoC4/MotorCurrentADC.c **** ********************************************************************************
 457:.\Generated_Source\PSoC4/MotorCurrentADC.c **** *
 458:.\Generated_Source\PSoC4/MotorCurrentADC.c **** * Summary:
 459:.\Generated_Source\PSoC4/MotorCurrentADC.c **** *  Gets the data available in the SAR DATA register.
 460:.\Generated_Source\PSoC4/MotorCurrentADC.c **** *
 461:.\Generated_Source\PSoC4/MotorCurrentADC.c **** * Parameters:
 462:.\Generated_Source\PSoC4/MotorCurrentADC.c **** *  chan: The ADC channel in which to return the result. The first channel
 463:.\Generated_Source\PSoC4/MotorCurrentADC.c **** *  is 0 and the injection channel if enabled is the number of valid channels.
 464:.\Generated_Source\PSoC4/MotorCurrentADC.c **** *
 465:.\Generated_Source\PSoC4/MotorCurrentADC.c **** * Return:
 466:.\Generated_Source\PSoC4/MotorCurrentADC.c **** *  Returns converted data as a signed 16-bit integer
 467:.\Generated_Source\PSoC4/MotorCurrentADC.c **** *
 468:.\Generated_Source\PSoC4/MotorCurrentADC.c **** *******************************************************************************/
 469:.\Generated_Source\PSoC4/MotorCurrentADC.c **** int16 MotorCurrentADC_GetResult16(uint32 chan)
 470:.\Generated_Source\PSoC4/MotorCurrentADC.c **** {
 549              		.loc 1 470 0
 550              		.cfi_startproc
 551 0000 80B5     		push	{r7, lr}
 552              		.cfi_def_cfa_offset 8
 553              		.cfi_offset 7, -8
ARM GAS  C:\Users\Sam\AppData\Local\Temp\ccYsdH5V.s 			page 19


 554              		.cfi_offset 14, -4
 555 0002 84B0     		sub	sp, sp, #16
 556              		.cfi_def_cfa_offset 24
 557 0004 00AF     		add	r7, sp, #0
 558              		.cfi_def_cfa_register 7
 559 0006 7860     		str	r0, [r7, #4]
 471:.\Generated_Source\PSoC4/MotorCurrentADC.c ****     uint32 result;
 472:.\Generated_Source\PSoC4/MotorCurrentADC.c **** 
 473:.\Generated_Source\PSoC4/MotorCurrentADC.c ****     /* Halt CPU in debug mode if channel is out of valid range */
 474:.\Generated_Source\PSoC4/MotorCurrentADC.c ****     CYASSERT(chan < MotorCurrentADC_TOTAL_CHANNELS_NUM);
 560              		.loc 1 474 0
 561 0008 7B68     		ldr	r3, [r7, #4]
 562 000a 002B     		cmp	r3, #0
 563 000c 02D0     		beq	.L37
 564              		.loc 1 474 0 is_stmt 0 discriminator 1
 565 000e 0020     		mov	r0, #0
 566 0010 FFF7FEFF 		bl	CyHalt
 567              	.L37:
 475:.\Generated_Source\PSoC4/MotorCurrentADC.c **** 
 476:.\Generated_Source\PSoC4/MotorCurrentADC.c ****     if(chan < MotorCurrentADC_SEQUENCED_CHANNELS_NUM)
 568              		.loc 1 476 0 is_stmt 1
 569 0014 7B68     		ldr	r3, [r7, #4]
 570 0016 002B     		cmp	r3, #0
 571 0018 08D1     		bne	.L38
 477:.\Generated_Source\PSoC4/MotorCurrentADC.c ****     {
 478:.\Generated_Source\PSoC4/MotorCurrentADC.c ****         result = CY_GET_REG32((reg32 *)(MotorCurrentADC_SAR_CHAN_RESULT_IND + (uint32)(chan << 2u))
 572              		.loc 1 478 0
 573 001a 7B68     		ldr	r3, [r7, #4]
 574 001c 9B00     		lsl	r3, r3, #2
 575 001e 084A     		ldr	r2, .L41
 576 0020 9B18     		add	r3, r3, r2
 577 0022 1B68     		ldr	r3, [r3]
 578 0024 1B04     		lsl	r3, r3, #16
 579 0026 1B0C     		lsr	r3, r3, #16
 580 0028 FB60     		str	r3, [r7, #12]
 581 002a 01E0     		b	.L39
 582              	.L38:
 479:.\Generated_Source\PSoC4/MotorCurrentADC.c ****                 MotorCurrentADC_RESULT_MASK;
 480:.\Generated_Source\PSoC4/MotorCurrentADC.c ****     }
 481:.\Generated_Source\PSoC4/MotorCurrentADC.c ****     else
 482:.\Generated_Source\PSoC4/MotorCurrentADC.c ****     {
 483:.\Generated_Source\PSoC4/MotorCurrentADC.c ****         #if(MotorCurrentADC_INJ_CHANNEL_ENABLED)
 484:.\Generated_Source\PSoC4/MotorCurrentADC.c ****             result = MotorCurrentADC_SAR_INJ_RESULT_REG & MotorCurrentADC_RESULT_MASK;
 485:.\Generated_Source\PSoC4/MotorCurrentADC.c ****         #else
 486:.\Generated_Source\PSoC4/MotorCurrentADC.c ****             result = 0u;
 583              		.loc 1 486 0
 584 002c 0023     		mov	r3, #0
 585 002e FB60     		str	r3, [r7, #12]
 586              	.L39:
 487:.\Generated_Source\PSoC4/MotorCurrentADC.c ****         #endif /* MotorCurrentADC_INJ_CHANNEL_ENABLED */
 488:.\Generated_Source\PSoC4/MotorCurrentADC.c ****     }
 489:.\Generated_Source\PSoC4/MotorCurrentADC.c **** 
 490:.\Generated_Source\PSoC4/MotorCurrentADC.c ****     return ( (int16)result );
 587              		.loc 1 490 0
 588 0030 FB68     		ldr	r3, [r7, #12]
 589 0032 9BB2     		uxth	r3, r3
 590 0034 1BB2     		sxth	r3, r3
ARM GAS  C:\Users\Sam\AppData\Local\Temp\ccYsdH5V.s 			page 20


 491:.\Generated_Source\PSoC4/MotorCurrentADC.c **** }
 591              		.loc 1 491 0
 592 0036 181C     		mov	r0, r3
 593 0038 BD46     		mov	sp, r7
 594 003a 04B0     		add	sp, sp, #16
 595              		@ sp needed
 596 003c 80BD     		pop	{r7, pc}
 597              	.L42:
 598 003e C046     		.align	2
 599              	.L41:
 600 0040 80011A40 		.word	1075446144
 601              		.cfi_endproc
 602              	.LFE7:
 603              		.size	MotorCurrentADC_GetResult16, .-MotorCurrentADC_GetResult16
 604              		.section	.text.MotorCurrentADC_SetChanMask,"ax",%progbits
 605              		.align	2
 606              		.global	MotorCurrentADC_SetChanMask
 607              		.code	16
 608              		.thumb_func
 609              		.type	MotorCurrentADC_SetChanMask, %function
 610              	MotorCurrentADC_SetChanMask:
 611              	.LFB8:
 492:.\Generated_Source\PSoC4/MotorCurrentADC.c **** 
 493:.\Generated_Source\PSoC4/MotorCurrentADC.c **** 
 494:.\Generated_Source\PSoC4/MotorCurrentADC.c **** /*******************************************************************************
 495:.\Generated_Source\PSoC4/MotorCurrentADC.c **** * Function Name: MotorCurrentADC_SetChanMask
 496:.\Generated_Source\PSoC4/MotorCurrentADC.c **** ********************************************************************************
 497:.\Generated_Source\PSoC4/MotorCurrentADC.c **** *
 498:.\Generated_Source\PSoC4/MotorCurrentADC.c **** * Summary:
 499:.\Generated_Source\PSoC4/MotorCurrentADC.c **** *  Sets the channel enable mask.
 500:.\Generated_Source\PSoC4/MotorCurrentADC.c **** *
 501:.\Generated_Source\PSoC4/MotorCurrentADC.c **** * Parameters:
 502:.\Generated_Source\PSoC4/MotorCurrentADC.c **** *  mask: Sets which channels that will be
 503:.\Generated_Source\PSoC4/MotorCurrentADC.c **** *  scanned. Setting bits for channels that do not exist will have no
 504:.\Generated_Source\PSoC4/MotorCurrentADC.c **** *  effect. For example, if only 6 channels were enabled, setting a
 505:.\Generated_Source\PSoC4/MotorCurrentADC.c **** *  mask of 0x0103 would only enable the last two channels (0 and 1).
 506:.\Generated_Source\PSoC4/MotorCurrentADC.c **** *  This API will not enable the injection channel.
 507:.\Generated_Source\PSoC4/MotorCurrentADC.c **** *  Examples: If the component is setup to sequence through 8
 508:.\Generated_Source\PSoC4/MotorCurrentADC.c **** *  channels, a mask of 0x000F would enable channels 0, 1, 2, and 3.
 509:.\Generated_Source\PSoC4/MotorCurrentADC.c **** *
 510:.\Generated_Source\PSoC4/MotorCurrentADC.c **** * Return:
 511:.\Generated_Source\PSoC4/MotorCurrentADC.c **** *  None.
 512:.\Generated_Source\PSoC4/MotorCurrentADC.c **** *
 513:.\Generated_Source\PSoC4/MotorCurrentADC.c **** *******************************************************************************/
 514:.\Generated_Source\PSoC4/MotorCurrentADC.c **** void MotorCurrentADC_SetChanMask(uint32 mask)
 515:.\Generated_Source\PSoC4/MotorCurrentADC.c **** {
 612              		.loc 1 515 0
 613              		.cfi_startproc
 614 0000 80B5     		push	{r7, lr}
 615              		.cfi_def_cfa_offset 8
 616              		.cfi_offset 7, -8
 617              		.cfi_offset 14, -4
 618 0002 82B0     		sub	sp, sp, #8
 619              		.cfi_def_cfa_offset 16
 620 0004 00AF     		add	r7, sp, #0
 621              		.cfi_def_cfa_register 7
 622 0006 7860     		str	r0, [r7, #4]
ARM GAS  C:\Users\Sam\AppData\Local\Temp\ccYsdH5V.s 			page 21


 516:.\Generated_Source\PSoC4/MotorCurrentADC.c ****     MotorCurrentADC_SAR_CHAN_EN_REG = mask & MotorCurrentADC_MAX_CHANNELS_EN_MASK;
 623              		.loc 1 516 0
 624 0008 034B     		ldr	r3, .L44
 625 000a 7968     		ldr	r1, [r7, #4]
 626 000c 0122     		mov	r2, #1
 627 000e 0A40     		and	r2, r1
 628 0010 1A60     		str	r2, [r3]
 517:.\Generated_Source\PSoC4/MotorCurrentADC.c **** }
 629              		.loc 1 517 0
 630 0012 BD46     		mov	sp, r7
 631 0014 02B0     		add	sp, sp, #8
 632              		@ sp needed
 633 0016 80BD     		pop	{r7, pc}
 634              	.L45:
 635              		.align	2
 636              	.L44:
 637 0018 20001A40 		.word	1075445792
 638              		.cfi_endproc
 639              	.LFE8:
 640              		.size	MotorCurrentADC_SetChanMask, .-MotorCurrentADC_SetChanMask
 641              		.section	.text.MotorCurrentADC_SetLowLimit,"ax",%progbits
 642              		.align	2
 643              		.global	MotorCurrentADC_SetLowLimit
 644              		.code	16
 645              		.thumb_func
 646              		.type	MotorCurrentADC_SetLowLimit, %function
 647              	MotorCurrentADC_SetLowLimit:
 648              	.LFB9:
 518:.\Generated_Source\PSoC4/MotorCurrentADC.c **** 
 519:.\Generated_Source\PSoC4/MotorCurrentADC.c **** #if(MotorCurrentADC_INJ_CHANNEL_ENABLED)
 520:.\Generated_Source\PSoC4/MotorCurrentADC.c **** 
 521:.\Generated_Source\PSoC4/MotorCurrentADC.c **** 
 522:.\Generated_Source\PSoC4/MotorCurrentADC.c ****     /*******************************************************************************
 523:.\Generated_Source\PSoC4/MotorCurrentADC.c ****     * Function Name: MotorCurrentADC_EnableInjection
 524:.\Generated_Source\PSoC4/MotorCurrentADC.c ****     ********************************************************************************
 525:.\Generated_Source\PSoC4/MotorCurrentADC.c ****     *
 526:.\Generated_Source\PSoC4/MotorCurrentADC.c ****     * Summary:
 527:.\Generated_Source\PSoC4/MotorCurrentADC.c ****     *  Enables the injection channel for the next scan only.
 528:.\Generated_Source\PSoC4/MotorCurrentADC.c ****     *
 529:.\Generated_Source\PSoC4/MotorCurrentADC.c ****     * Parameters:
 530:.\Generated_Source\PSoC4/MotorCurrentADC.c ****     *  None.
 531:.\Generated_Source\PSoC4/MotorCurrentADC.c ****     *
 532:.\Generated_Source\PSoC4/MotorCurrentADC.c ****     * Return:
 533:.\Generated_Source\PSoC4/MotorCurrentADC.c ****     *  None.
 534:.\Generated_Source\PSoC4/MotorCurrentADC.c ****     *
 535:.\Generated_Source\PSoC4/MotorCurrentADC.c ****     *******************************************************************************/
 536:.\Generated_Source\PSoC4/MotorCurrentADC.c ****     void MotorCurrentADC_EnableInjection(void)
 537:.\Generated_Source\PSoC4/MotorCurrentADC.c ****     {
 538:.\Generated_Source\PSoC4/MotorCurrentADC.c ****         MotorCurrentADC_SAR_INJ_CHAN_CONFIG_REG |= MotorCurrentADC_INJ_CHAN_EN;
 539:.\Generated_Source\PSoC4/MotorCurrentADC.c ****     }
 540:.\Generated_Source\PSoC4/MotorCurrentADC.c **** 
 541:.\Generated_Source\PSoC4/MotorCurrentADC.c **** #endif /* MotorCurrentADC_INJ_CHANNEL_ENABLED */
 542:.\Generated_Source\PSoC4/MotorCurrentADC.c **** 
 543:.\Generated_Source\PSoC4/MotorCurrentADC.c **** 
 544:.\Generated_Source\PSoC4/MotorCurrentADC.c **** /*******************************************************************************
 545:.\Generated_Source\PSoC4/MotorCurrentADC.c **** * Function Name: MotorCurrentADC_SetLowLimit
 546:.\Generated_Source\PSoC4/MotorCurrentADC.c **** ********************************************************************************
ARM GAS  C:\Users\Sam\AppData\Local\Temp\ccYsdH5V.s 			page 22


 547:.\Generated_Source\PSoC4/MotorCurrentADC.c **** *
 548:.\Generated_Source\PSoC4/MotorCurrentADC.c **** * Summary:
 549:.\Generated_Source\PSoC4/MotorCurrentADC.c **** *  Sets the low limit parameter for a limit condition.
 550:.\Generated_Source\PSoC4/MotorCurrentADC.c **** *
 551:.\Generated_Source\PSoC4/MotorCurrentADC.c **** * Parameters:
 552:.\Generated_Source\PSoC4/MotorCurrentADC.c **** *  lowLimit: The low limit for a limit condition.
 553:.\Generated_Source\PSoC4/MotorCurrentADC.c **** *
 554:.\Generated_Source\PSoC4/MotorCurrentADC.c **** * Return:
 555:.\Generated_Source\PSoC4/MotorCurrentADC.c **** *  None.
 556:.\Generated_Source\PSoC4/MotorCurrentADC.c **** *
 557:.\Generated_Source\PSoC4/MotorCurrentADC.c **** *******************************************************************************/
 558:.\Generated_Source\PSoC4/MotorCurrentADC.c **** void MotorCurrentADC_SetLowLimit(uint32 lowLimit)
 559:.\Generated_Source\PSoC4/MotorCurrentADC.c **** {
 649              		.loc 1 559 0
 650              		.cfi_startproc
 651 0000 80B5     		push	{r7, lr}
 652              		.cfi_def_cfa_offset 8
 653              		.cfi_offset 7, -8
 654              		.cfi_offset 14, -4
 655 0002 82B0     		sub	sp, sp, #8
 656              		.cfi_def_cfa_offset 16
 657 0004 00AF     		add	r7, sp, #0
 658              		.cfi_def_cfa_register 7
 659 0006 7860     		str	r0, [r7, #4]
 560:.\Generated_Source\PSoC4/MotorCurrentADC.c ****     MotorCurrentADC_SAR_RANGE_THRES_REG &= (uint32)(~MotorCurrentADC_RANGE_LOW_MASK);
 660              		.loc 1 560 0
 661 0008 084B     		ldr	r3, .L47
 662 000a 084A     		ldr	r2, .L47
 663 000c 1268     		ldr	r2, [r2]
 664 000e 120C     		lsr	r2, r2, #16
 665 0010 1204     		lsl	r2, r2, #16
 666 0012 1A60     		str	r2, [r3]
 561:.\Generated_Source\PSoC4/MotorCurrentADC.c ****     MotorCurrentADC_SAR_RANGE_THRES_REG |= lowLimit & MotorCurrentADC_RANGE_LOW_MASK;
 667              		.loc 1 561 0
 668 0014 054B     		ldr	r3, .L47
 669 0016 054A     		ldr	r2, .L47
 670 0018 1168     		ldr	r1, [r2]
 671 001a 7A68     		ldr	r2, [r7, #4]
 672 001c 1204     		lsl	r2, r2, #16
 673 001e 120C     		lsr	r2, r2, #16
 674 0020 0A43     		orr	r2, r1
 675 0022 1A60     		str	r2, [r3]
 562:.\Generated_Source\PSoC4/MotorCurrentADC.c **** }
 676              		.loc 1 562 0
 677 0024 BD46     		mov	sp, r7
 678 0026 02B0     		add	sp, sp, #8
 679              		@ sp needed
 680 0028 80BD     		pop	{r7, pc}
 681              	.L48:
 682 002a C046     		.align	2
 683              	.L47:
 684 002c 18001A40 		.word	1075445784
 685              		.cfi_endproc
 686              	.LFE9:
 687              		.size	MotorCurrentADC_SetLowLimit, .-MotorCurrentADC_SetLowLimit
 688              		.section	.text.MotorCurrentADC_SetHighLimit,"ax",%progbits
 689              		.align	2
ARM GAS  C:\Users\Sam\AppData\Local\Temp\ccYsdH5V.s 			page 23


 690              		.global	MotorCurrentADC_SetHighLimit
 691              		.code	16
 692              		.thumb_func
 693              		.type	MotorCurrentADC_SetHighLimit, %function
 694              	MotorCurrentADC_SetHighLimit:
 695              	.LFB10:
 563:.\Generated_Source\PSoC4/MotorCurrentADC.c **** 
 564:.\Generated_Source\PSoC4/MotorCurrentADC.c **** 
 565:.\Generated_Source\PSoC4/MotorCurrentADC.c **** /*******************************************************************************
 566:.\Generated_Source\PSoC4/MotorCurrentADC.c **** * Function Name: MotorCurrentADC_SetHighLimit
 567:.\Generated_Source\PSoC4/MotorCurrentADC.c **** ********************************************************************************
 568:.\Generated_Source\PSoC4/MotorCurrentADC.c **** *
 569:.\Generated_Source\PSoC4/MotorCurrentADC.c **** * Summary:
 570:.\Generated_Source\PSoC4/MotorCurrentADC.c **** *  Sets the low limit parameter for a limit condition.
 571:.\Generated_Source\PSoC4/MotorCurrentADC.c **** *
 572:.\Generated_Source\PSoC4/MotorCurrentADC.c **** * Parameters:
 573:.\Generated_Source\PSoC4/MotorCurrentADC.c **** *  highLimit: The high limit for a limit condition.
 574:.\Generated_Source\PSoC4/MotorCurrentADC.c **** *
 575:.\Generated_Source\PSoC4/MotorCurrentADC.c **** * Return:
 576:.\Generated_Source\PSoC4/MotorCurrentADC.c **** *  None.
 577:.\Generated_Source\PSoC4/MotorCurrentADC.c **** *
 578:.\Generated_Source\PSoC4/MotorCurrentADC.c **** *******************************************************************************/
 579:.\Generated_Source\PSoC4/MotorCurrentADC.c **** void MotorCurrentADC_SetHighLimit(uint32 highLimit)
 580:.\Generated_Source\PSoC4/MotorCurrentADC.c **** {
 696              		.loc 1 580 0
 697              		.cfi_startproc
 698 0000 80B5     		push	{r7, lr}
 699              		.cfi_def_cfa_offset 8
 700              		.cfi_offset 7, -8
 701              		.cfi_offset 14, -4
 702 0002 82B0     		sub	sp, sp, #8
 703              		.cfi_def_cfa_offset 16
 704 0004 00AF     		add	r7, sp, #0
 705              		.cfi_def_cfa_register 7
 706 0006 7860     		str	r0, [r7, #4]
 581:.\Generated_Source\PSoC4/MotorCurrentADC.c ****     MotorCurrentADC_SAR_RANGE_THRES_REG &= (uint32)(~MotorCurrentADC_RANGE_HIGH_MASK);
 707              		.loc 1 581 0
 708 0008 074B     		ldr	r3, .L50
 709 000a 074A     		ldr	r2, .L50
 710 000c 1268     		ldr	r2, [r2]
 711 000e 1204     		lsl	r2, r2, #16
 712 0010 120C     		lsr	r2, r2, #16
 713 0012 1A60     		str	r2, [r3]
 582:.\Generated_Source\PSoC4/MotorCurrentADC.c ****     MotorCurrentADC_SAR_RANGE_THRES_REG |= (uint32)(highLimit << MotorCurrentADC_RANGE_HIGH_OFFSET)
 714              		.loc 1 582 0
 715 0014 044B     		ldr	r3, .L50
 716 0016 044A     		ldr	r2, .L50
 717 0018 1168     		ldr	r1, [r2]
 718 001a 7A68     		ldr	r2, [r7, #4]
 719 001c 1204     		lsl	r2, r2, #16
 720 001e 0A43     		orr	r2, r1
 721 0020 1A60     		str	r2, [r3]
 583:.\Generated_Source\PSoC4/MotorCurrentADC.c **** }
 722              		.loc 1 583 0
 723 0022 BD46     		mov	sp, r7
 724 0024 02B0     		add	sp, sp, #8
 725              		@ sp needed
ARM GAS  C:\Users\Sam\AppData\Local\Temp\ccYsdH5V.s 			page 24


 726 0026 80BD     		pop	{r7, pc}
 727              	.L51:
 728              		.align	2
 729              	.L50:
 730 0028 18001A40 		.word	1075445784
 731              		.cfi_endproc
 732              	.LFE10:
 733              		.size	MotorCurrentADC_SetHighLimit, .-MotorCurrentADC_SetHighLimit
 734              		.section	.text.MotorCurrentADC_SetLimitMask,"ax",%progbits
 735              		.align	2
 736              		.global	MotorCurrentADC_SetLimitMask
 737              		.code	16
 738              		.thumb_func
 739              		.type	MotorCurrentADC_SetLimitMask, %function
 740              	MotorCurrentADC_SetLimitMask:
 741              	.LFB11:
 584:.\Generated_Source\PSoC4/MotorCurrentADC.c **** 
 585:.\Generated_Source\PSoC4/MotorCurrentADC.c **** 
 586:.\Generated_Source\PSoC4/MotorCurrentADC.c **** /*******************************************************************************
 587:.\Generated_Source\PSoC4/MotorCurrentADC.c **** * Function Name: MotorCurrentADC_SetLimitMask
 588:.\Generated_Source\PSoC4/MotorCurrentADC.c **** ********************************************************************************
 589:.\Generated_Source\PSoC4/MotorCurrentADC.c **** *
 590:.\Generated_Source\PSoC4/MotorCurrentADC.c **** * Summary:
 591:.\Generated_Source\PSoC4/MotorCurrentADC.c **** *  Sets the channel limit condition mask.
 592:.\Generated_Source\PSoC4/MotorCurrentADC.c **** *
 593:.\Generated_Source\PSoC4/MotorCurrentADC.c **** * Parameters:
 594:.\Generated_Source\PSoC4/MotorCurrentADC.c **** *  mask: Sets which channels that may cause a
 595:.\Generated_Source\PSoC4/MotorCurrentADC.c **** *  limit condition interrupt. Setting bits for channels that do not exist
 596:.\Generated_Source\PSoC4/MotorCurrentADC.c **** *  will have no effect. For example, if only 6 channels were enabled,
 597:.\Generated_Source\PSoC4/MotorCurrentADC.c **** *  setting a mask of 0x0103 would only enable the last two channels (0 and 1).
 598:.\Generated_Source\PSoC4/MotorCurrentADC.c **** *
 599:.\Generated_Source\PSoC4/MotorCurrentADC.c **** * Return:
 600:.\Generated_Source\PSoC4/MotorCurrentADC.c **** *  None.
 601:.\Generated_Source\PSoC4/MotorCurrentADC.c **** *
 602:.\Generated_Source\PSoC4/MotorCurrentADC.c **** *******************************************************************************/
 603:.\Generated_Source\PSoC4/MotorCurrentADC.c **** void MotorCurrentADC_SetLimitMask(uint32 mask)
 604:.\Generated_Source\PSoC4/MotorCurrentADC.c **** {
 742              		.loc 1 604 0
 743              		.cfi_startproc
 744 0000 80B5     		push	{r7, lr}
 745              		.cfi_def_cfa_offset 8
 746              		.cfi_offset 7, -8
 747              		.cfi_offset 14, -4
 748 0002 82B0     		sub	sp, sp, #8
 749              		.cfi_def_cfa_offset 16
 750 0004 00AF     		add	r7, sp, #0
 751              		.cfi_def_cfa_register 7
 752 0006 7860     		str	r0, [r7, #4]
 605:.\Generated_Source\PSoC4/MotorCurrentADC.c ****     MotorCurrentADC_SAR_RANGE_INTR_MASK_REG = mask & MotorCurrentADC_MAX_CHANNELS_EN_MASK;
 753              		.loc 1 605 0
 754 0008 034B     		ldr	r3, .L53
 755 000a 7968     		ldr	r1, [r7, #4]
 756 000c 0122     		mov	r2, #1
 757 000e 0A40     		and	r2, r1
 758 0010 1A60     		str	r2, [r3]
 606:.\Generated_Source\PSoC4/MotorCurrentADC.c **** }
 759              		.loc 1 606 0
ARM GAS  C:\Users\Sam\AppData\Local\Temp\ccYsdH5V.s 			page 25


 760 0012 BD46     		mov	sp, r7
 761 0014 02B0     		add	sp, sp, #8
 762              		@ sp needed
 763 0016 80BD     		pop	{r7, pc}
 764              	.L54:
 765              		.align	2
 766              	.L53:
 767 0018 38021A40 		.word	1075446328
 768              		.cfi_endproc
 769              	.LFE11:
 770              		.size	MotorCurrentADC_SetLimitMask, .-MotorCurrentADC_SetLimitMask
 771              		.section	.text.MotorCurrentADC_SetSatMask,"ax",%progbits
 772              		.align	2
 773              		.global	MotorCurrentADC_SetSatMask
 774              		.code	16
 775              		.thumb_func
 776              		.type	MotorCurrentADC_SetSatMask, %function
 777              	MotorCurrentADC_SetSatMask:
 778              	.LFB12:
 607:.\Generated_Source\PSoC4/MotorCurrentADC.c **** 
 608:.\Generated_Source\PSoC4/MotorCurrentADC.c **** 
 609:.\Generated_Source\PSoC4/MotorCurrentADC.c **** /*******************************************************************************
 610:.\Generated_Source\PSoC4/MotorCurrentADC.c **** * Function Name: MotorCurrentADC_SetSatMask
 611:.\Generated_Source\PSoC4/MotorCurrentADC.c **** ********************************************************************************
 612:.\Generated_Source\PSoC4/MotorCurrentADC.c **** *
 613:.\Generated_Source\PSoC4/MotorCurrentADC.c **** * Summary:
 614:.\Generated_Source\PSoC4/MotorCurrentADC.c **** *  Sets the channel saturation event mask.
 615:.\Generated_Source\PSoC4/MotorCurrentADC.c **** *
 616:.\Generated_Source\PSoC4/MotorCurrentADC.c **** * Parameters:
 617:.\Generated_Source\PSoC4/MotorCurrentADC.c **** *  mask: Sets which channels that may cause a
 618:.\Generated_Source\PSoC4/MotorCurrentADC.c **** *  saturation event interrupt. Setting bits for channels that do not exist
 619:.\Generated_Source\PSoC4/MotorCurrentADC.c **** *  will have no effect. For example, if only 8 channels were enabled,
 620:.\Generated_Source\PSoC4/MotorCurrentADC.c **** *  setting a mask of 0x01C0 would only enable two channels (6 and 7).
 621:.\Generated_Source\PSoC4/MotorCurrentADC.c **** *
 622:.\Generated_Source\PSoC4/MotorCurrentADC.c **** * Return:
 623:.\Generated_Source\PSoC4/MotorCurrentADC.c **** *  None.
 624:.\Generated_Source\PSoC4/MotorCurrentADC.c **** *
 625:.\Generated_Source\PSoC4/MotorCurrentADC.c **** *******************************************************************************/
 626:.\Generated_Source\PSoC4/MotorCurrentADC.c **** void MotorCurrentADC_SetSatMask(uint32 mask)
 627:.\Generated_Source\PSoC4/MotorCurrentADC.c **** {
 779              		.loc 1 627 0
 780              		.cfi_startproc
 781 0000 80B5     		push	{r7, lr}
 782              		.cfi_def_cfa_offset 8
 783              		.cfi_offset 7, -8
 784              		.cfi_offset 14, -4
 785 0002 82B0     		sub	sp, sp, #8
 786              		.cfi_def_cfa_offset 16
 787 0004 00AF     		add	r7, sp, #0
 788              		.cfi_def_cfa_register 7
 789 0006 7860     		str	r0, [r7, #4]
 628:.\Generated_Source\PSoC4/MotorCurrentADC.c ****     MotorCurrentADC_SAR_SATURATE_INTR_MASK_REG = mask & MotorCurrentADC_MAX_CHANNELS_EN_MASK;
 790              		.loc 1 628 0
 791 0008 034B     		ldr	r3, .L56
 792 000a 7968     		ldr	r1, [r7, #4]
 793 000c 0122     		mov	r2, #1
 794 000e 0A40     		and	r2, r1
ARM GAS  C:\Users\Sam\AppData\Local\Temp\ccYsdH5V.s 			page 26


 795 0010 1A60     		str	r2, [r3]
 629:.\Generated_Source\PSoC4/MotorCurrentADC.c **** }
 796              		.loc 1 629 0
 797 0012 BD46     		mov	sp, r7
 798 0014 02B0     		add	sp, sp, #8
 799              		@ sp needed
 800 0016 80BD     		pop	{r7, pc}
 801              	.L57:
 802              		.align	2
 803              	.L56:
 804 0018 28021A40 		.word	1075446312
 805              		.cfi_endproc
 806              	.LFE12:
 807              		.size	MotorCurrentADC_SetSatMask, .-MotorCurrentADC_SetSatMask
 808              		.section	.text.MotorCurrentADC_SetOffset,"ax",%progbits
 809              		.align	2
 810              		.global	MotorCurrentADC_SetOffset
 811              		.code	16
 812              		.thumb_func
 813              		.type	MotorCurrentADC_SetOffset, %function
 814              	MotorCurrentADC_SetOffset:
 815              	.LFB13:
 630:.\Generated_Source\PSoC4/MotorCurrentADC.c **** 
 631:.\Generated_Source\PSoC4/MotorCurrentADC.c **** 
 632:.\Generated_Source\PSoC4/MotorCurrentADC.c **** /*******************************************************************************
 633:.\Generated_Source\PSoC4/MotorCurrentADC.c **** * Function Name: MotorCurrentADC_SetOffset
 634:.\Generated_Source\PSoC4/MotorCurrentADC.c **** ********************************************************************************
 635:.\Generated_Source\PSoC4/MotorCurrentADC.c **** *
 636:.\Generated_Source\PSoC4/MotorCurrentADC.c **** * Summary:
 637:.\Generated_Source\PSoC4/MotorCurrentADC.c **** *   Description: Sets the ADC offset which is used by the functions
 638:.\Generated_Source\PSoC4/MotorCurrentADC.c **** *   ADC_CountsTo_uVolts, ADC_CountsTo_mVolts and ADC_CountsTo_Volts
 639:.\Generated_Source\PSoC4/MotorCurrentADC.c **** *   to substract the offset from the given reading
 640:.\Generated_Source\PSoC4/MotorCurrentADC.c **** *   before calculating the voltage conversion.
 641:.\Generated_Source\PSoC4/MotorCurrentADC.c **** *
 642:.\Generated_Source\PSoC4/MotorCurrentADC.c **** * Parameters:
 643:.\Generated_Source\PSoC4/MotorCurrentADC.c **** *  chan: ADC channel number.
 644:.\Generated_Source\PSoC4/MotorCurrentADC.c **** *  offset: This value is a measured value when the
 645:.\Generated_Source\PSoC4/MotorCurrentADC.c **** *          inputs are shorted or connected to the same input voltage.
 646:.\Generated_Source\PSoC4/MotorCurrentADC.c **** *
 647:.\Generated_Source\PSoC4/MotorCurrentADC.c **** * Return:
 648:.\Generated_Source\PSoC4/MotorCurrentADC.c **** *  None.
 649:.\Generated_Source\PSoC4/MotorCurrentADC.c **** *
 650:.\Generated_Source\PSoC4/MotorCurrentADC.c **** * Global variables:
 651:.\Generated_Source\PSoC4/MotorCurrentADC.c **** *  MotorCurrentADC_Offset:  Modified to set the user provided offset.
 652:.\Generated_Source\PSoC4/MotorCurrentADC.c **** *
 653:.\Generated_Source\PSoC4/MotorCurrentADC.c **** *******************************************************************************/
 654:.\Generated_Source\PSoC4/MotorCurrentADC.c **** void MotorCurrentADC_SetOffset(uint32 chan, int16 offset)
 655:.\Generated_Source\PSoC4/MotorCurrentADC.c **** {
 816              		.loc 1 655 0
 817              		.cfi_startproc
 818 0000 80B5     		push	{r7, lr}
 819              		.cfi_def_cfa_offset 8
 820              		.cfi_offset 7, -8
 821              		.cfi_offset 14, -4
 822 0002 82B0     		sub	sp, sp, #8
 823              		.cfi_def_cfa_offset 16
 824 0004 00AF     		add	r7, sp, #0
ARM GAS  C:\Users\Sam\AppData\Local\Temp\ccYsdH5V.s 			page 27


 825              		.cfi_def_cfa_register 7
 826 0006 7860     		str	r0, [r7, #4]
 827 0008 0A1C     		mov	r2, r1
 828 000a BB1C     		add	r3, r7, #2
 829 000c 1A80     		strh	r2, [r3]
 656:.\Generated_Source\PSoC4/MotorCurrentADC.c ****     /* Halt CPU in debug mode if channel is out of valid range */
 657:.\Generated_Source\PSoC4/MotorCurrentADC.c ****     CYASSERT(chan < MotorCurrentADC_TOTAL_CHANNELS_NUM);
 830              		.loc 1 657 0
 831 000e 7B68     		ldr	r3, [r7, #4]
 832 0010 002B     		cmp	r3, #0
 833 0012 02D0     		beq	.L59
 834              		.loc 1 657 0 is_stmt 0 discriminator 1
 835 0014 0020     		mov	r0, #0
 836 0016 FFF7FEFF 		bl	CyHalt
 837              	.L59:
 658:.\Generated_Source\PSoC4/MotorCurrentADC.c **** 
 659:.\Generated_Source\PSoC4/MotorCurrentADC.c ****     MotorCurrentADC_offset[chan] = offset;
 838              		.loc 1 659 0 is_stmt 1
 839 001a 044B     		ldr	r3, .L60
 840 001c 7A68     		ldr	r2, [r7, #4]
 841 001e 5200     		lsl	r2, r2, #1
 842 0020 B91C     		add	r1, r7, #2
 843 0022 0988     		ldrh	r1, [r1]
 844 0024 D152     		strh	r1, [r2, r3]
 660:.\Generated_Source\PSoC4/MotorCurrentADC.c **** }
 845              		.loc 1 660 0
 846 0026 BD46     		mov	sp, r7
 847 0028 02B0     		add	sp, sp, #8
 848              		@ sp needed
 849 002a 80BD     		pop	{r7, pc}
 850              	.L61:
 851              		.align	2
 852              	.L60:
 853 002c 00000000 		.word	MotorCurrentADC_offset
 854              		.cfi_endproc
 855              	.LFE13:
 856              		.size	MotorCurrentADC_SetOffset, .-MotorCurrentADC_SetOffset
 857              		.section	.text.MotorCurrentADC_SetGain,"ax",%progbits
 858              		.align	2
 859              		.global	MotorCurrentADC_SetGain
 860              		.code	16
 861              		.thumb_func
 862              		.type	MotorCurrentADC_SetGain, %function
 863              	MotorCurrentADC_SetGain:
 864              	.LFB14:
 661:.\Generated_Source\PSoC4/MotorCurrentADC.c **** 
 662:.\Generated_Source\PSoC4/MotorCurrentADC.c **** 
 663:.\Generated_Source\PSoC4/MotorCurrentADC.c **** /*******************************************************************************
 664:.\Generated_Source\PSoC4/MotorCurrentADC.c **** * Function Name: MotorCurrentADC_SetGain
 665:.\Generated_Source\PSoC4/MotorCurrentADC.c **** ********************************************************************************
 666:.\Generated_Source\PSoC4/MotorCurrentADC.c **** *
 667:.\Generated_Source\PSoC4/MotorCurrentADC.c **** * Summary:
 668:.\Generated_Source\PSoC4/MotorCurrentADC.c **** *  Description: Sets the ADC gain in counts per 10 volt for the voltage
 669:.\Generated_Source\PSoC4/MotorCurrentADC.c **** *  conversion functions below. This value is set by default by the
 670:.\Generated_Source\PSoC4/MotorCurrentADC.c **** *  reference and input range settings. It should only be used to further
 671:.\Generated_Source\PSoC4/MotorCurrentADC.c **** *  calibrate the ADC with a known input or if an external reference is
 672:.\Generated_Source\PSoC4/MotorCurrentADC.c **** *  used. Affects the ADC_CountsTo_uVolts, ADC_CountsTo_mVolts
ARM GAS  C:\Users\Sam\AppData\Local\Temp\ccYsdH5V.s 			page 28


 673:.\Generated_Source\PSoC4/MotorCurrentADC.c **** *  and ADC_CountsTo_Volts functions by supplying the correct
 674:.\Generated_Source\PSoC4/MotorCurrentADC.c **** *  conversion between ADC counts and voltage.
 675:.\Generated_Source\PSoC4/MotorCurrentADC.c **** *
 676:.\Generated_Source\PSoC4/MotorCurrentADC.c **** * Parameters:
 677:.\Generated_Source\PSoC4/MotorCurrentADC.c **** *  chan: ADC channel number.
 678:.\Generated_Source\PSoC4/MotorCurrentADC.c **** *  adcGain: ADC gain in counts per 10 volts.
 679:.\Generated_Source\PSoC4/MotorCurrentADC.c **** *
 680:.\Generated_Source\PSoC4/MotorCurrentADC.c **** * Return:
 681:.\Generated_Source\PSoC4/MotorCurrentADC.c **** *  None.
 682:.\Generated_Source\PSoC4/MotorCurrentADC.c **** *
 683:.\Generated_Source\PSoC4/MotorCurrentADC.c **** * Global variables:
 684:.\Generated_Source\PSoC4/MotorCurrentADC.c **** *  MotorCurrentADC_CountsPer10Volt:  modified to set the ADC gain in counts
 685:.\Generated_Source\PSoC4/MotorCurrentADC.c **** *   per 10 volt.
 686:.\Generated_Source\PSoC4/MotorCurrentADC.c **** *
 687:.\Generated_Source\PSoC4/MotorCurrentADC.c **** *******************************************************************************/
 688:.\Generated_Source\PSoC4/MotorCurrentADC.c **** void MotorCurrentADC_SetGain(uint32 chan, int32 adcGain)
 689:.\Generated_Source\PSoC4/MotorCurrentADC.c **** {
 865              		.loc 1 689 0
 866              		.cfi_startproc
 867 0000 80B5     		push	{r7, lr}
 868              		.cfi_def_cfa_offset 8
 869              		.cfi_offset 7, -8
 870              		.cfi_offset 14, -4
 871 0002 82B0     		sub	sp, sp, #8
 872              		.cfi_def_cfa_offset 16
 873 0004 00AF     		add	r7, sp, #0
 874              		.cfi_def_cfa_register 7
 875 0006 7860     		str	r0, [r7, #4]
 876 0008 3960     		str	r1, [r7]
 690:.\Generated_Source\PSoC4/MotorCurrentADC.c ****     /* Halt CPU in debug mode if channel is out of valid range */
 691:.\Generated_Source\PSoC4/MotorCurrentADC.c ****     CYASSERT(chan < MotorCurrentADC_TOTAL_CHANNELS_NUM);
 877              		.loc 1 691 0
 878 000a 7B68     		ldr	r3, [r7, #4]
 879 000c 002B     		cmp	r3, #0
 880 000e 02D0     		beq	.L63
 881              		.loc 1 691 0 is_stmt 0 discriminator 1
 882 0010 0020     		mov	r0, #0
 883 0012 FFF7FEFF 		bl	CyHalt
 884              	.L63:
 692:.\Generated_Source\PSoC4/MotorCurrentADC.c **** 
 693:.\Generated_Source\PSoC4/MotorCurrentADC.c ****     MotorCurrentADC_countsPer10Volt[chan] = adcGain;
 885              		.loc 1 693 0 is_stmt 1
 886 0016 044B     		ldr	r3, .L64
 887 0018 7A68     		ldr	r2, [r7, #4]
 888 001a 9200     		lsl	r2, r2, #2
 889 001c 3968     		ldr	r1, [r7]
 890 001e D150     		str	r1, [r2, r3]
 694:.\Generated_Source\PSoC4/MotorCurrentADC.c **** }
 891              		.loc 1 694 0
 892 0020 BD46     		mov	sp, r7
 893 0022 02B0     		add	sp, sp, #8
 894              		@ sp needed
 895 0024 80BD     		pop	{r7, pc}
 896              	.L65:
 897 0026 C046     		.align	2
 898              	.L64:
 899 0028 00000000 		.word	MotorCurrentADC_countsPer10Volt
ARM GAS  C:\Users\Sam\AppData\Local\Temp\ccYsdH5V.s 			page 29


 900              		.cfi_endproc
 901              	.LFE14:
 902              		.size	MotorCurrentADC_SetGain, .-MotorCurrentADC_SetGain
 903              		.section	.text.MotorCurrentADC_CountsTo_mVolts,"ax",%progbits
 904              		.align	2
 905              		.global	MotorCurrentADC_CountsTo_mVolts
 906              		.code	16
 907              		.thumb_func
 908              		.type	MotorCurrentADC_CountsTo_mVolts, %function
 909              	MotorCurrentADC_CountsTo_mVolts:
 910              	.LFB15:
 695:.\Generated_Source\PSoC4/MotorCurrentADC.c **** 
 696:.\Generated_Source\PSoC4/MotorCurrentADC.c **** 
 697:.\Generated_Source\PSoC4/MotorCurrentADC.c **** #if(MotorCurrentADC_DEFAULT_JUSTIFICATION_SEL == MotorCurrentADC__RIGHT)
 698:.\Generated_Source\PSoC4/MotorCurrentADC.c **** 
 699:.\Generated_Source\PSoC4/MotorCurrentADC.c **** 
 700:.\Generated_Source\PSoC4/MotorCurrentADC.c ****     /*******************************************************************************
 701:.\Generated_Source\PSoC4/MotorCurrentADC.c ****     * Function Name: MotorCurrentADC_CountsTo_mVolts
 702:.\Generated_Source\PSoC4/MotorCurrentADC.c ****     ********************************************************************************
 703:.\Generated_Source\PSoC4/MotorCurrentADC.c ****     *
 704:.\Generated_Source\PSoC4/MotorCurrentADC.c ****     * Summary:
 705:.\Generated_Source\PSoC4/MotorCurrentADC.c ****     *  This function converts ADC counts to mVolts
 706:.\Generated_Source\PSoC4/MotorCurrentADC.c ****     *  This function is not available when left data format justification selected.
 707:.\Generated_Source\PSoC4/MotorCurrentADC.c ****     *
 708:.\Generated_Source\PSoC4/MotorCurrentADC.c ****     * Parameters:
 709:.\Generated_Source\PSoC4/MotorCurrentADC.c ****     *  chan: The ADC channel number.
 710:.\Generated_Source\PSoC4/MotorCurrentADC.c ****     *  adcCounts: Result from the ADC conversion
 711:.\Generated_Source\PSoC4/MotorCurrentADC.c ****     *
 712:.\Generated_Source\PSoC4/MotorCurrentADC.c ****     * Return:
 713:.\Generated_Source\PSoC4/MotorCurrentADC.c ****     *  Results in mVolts
 714:.\Generated_Source\PSoC4/MotorCurrentADC.c ****     *
 715:.\Generated_Source\PSoC4/MotorCurrentADC.c ****     * Global variables:
 716:.\Generated_Source\PSoC4/MotorCurrentADC.c ****     *  MotorCurrentADC_countsPer10Volt:  used to convert ADC counts to mVolts.
 717:.\Generated_Source\PSoC4/MotorCurrentADC.c ****     *  MotorCurrentADC_Offset:  Used as the offset while converting ADC counts
 718:.\Generated_Source\PSoC4/MotorCurrentADC.c ****     *   to mVolts.
 719:.\Generated_Source\PSoC4/MotorCurrentADC.c ****     *
 720:.\Generated_Source\PSoC4/MotorCurrentADC.c ****     *******************************************************************************/
 721:.\Generated_Source\PSoC4/MotorCurrentADC.c ****     int16 MotorCurrentADC_CountsTo_mVolts(uint32 chan, int16 adcCounts)
 722:.\Generated_Source\PSoC4/MotorCurrentADC.c ****     {
 911              		.loc 1 722 0
 912              		.cfi_startproc
 913 0000 80B5     		push	{r7, lr}
 914              		.cfi_def_cfa_offset 8
 915              		.cfi_offset 7, -8
 916              		.cfi_offset 14, -4
 917 0002 84B0     		sub	sp, sp, #16
 918              		.cfi_def_cfa_offset 24
 919 0004 00AF     		add	r7, sp, #0
 920              		.cfi_def_cfa_register 7
 921 0006 7860     		str	r0, [r7, #4]
 922 0008 0A1C     		mov	r2, r1
 923 000a BB1C     		add	r3, r7, #2
 924 000c 1A80     		strh	r2, [r3]
 723:.\Generated_Source\PSoC4/MotorCurrentADC.c ****         int16 mVolts;
 724:.\Generated_Source\PSoC4/MotorCurrentADC.c **** 
 725:.\Generated_Source\PSoC4/MotorCurrentADC.c ****         /* Halt CPU in debug mode if channel is out of valid range */
 726:.\Generated_Source\PSoC4/MotorCurrentADC.c ****         CYASSERT(chan < MotorCurrentADC_TOTAL_CHANNELS_NUM);
ARM GAS  C:\Users\Sam\AppData\Local\Temp\ccYsdH5V.s 			page 30


 925              		.loc 1 726 0
 926 000e 7B68     		ldr	r3, [r7, #4]
 927 0010 002B     		cmp	r3, #0
 928 0012 02D0     		beq	.L67
 929              		.loc 1 726 0 is_stmt 0 discriminator 1
 930 0014 0020     		mov	r0, #0
 931 0016 FFF7FEFF 		bl	CyHalt
 932              	.L67:
 727:.\Generated_Source\PSoC4/MotorCurrentADC.c **** 
 728:.\Generated_Source\PSoC4/MotorCurrentADC.c ****         /* Divide the adcCount when accumulate averaging mode selected */
 729:.\Generated_Source\PSoC4/MotorCurrentADC.c ****         #if(MotorCurrentADC_DEFAULT_AVG_MODE == MotorCurrentADC__ACCUMULATE)
 730:.\Generated_Source\PSoC4/MotorCurrentADC.c ****             if((MotorCurrentADC_channelsConfig[chan] & MotorCurrentADC_AVERAGING_EN) != 0u)
 731:.\Generated_Source\PSoC4/MotorCurrentADC.c ****             {
 732:.\Generated_Source\PSoC4/MotorCurrentADC.c ****                 adcCounts /= MotorCurrentADC_DEFAULT_AVG_SAMPLES_DIV;
 733:.\Generated_Source\PSoC4/MotorCurrentADC.c ****             }
 734:.\Generated_Source\PSoC4/MotorCurrentADC.c ****         #endif /* MotorCurrentADC_DEFAULT_AVG_MODE == MotorCurrentADC__ACCUMULATE */
 735:.\Generated_Source\PSoC4/MotorCurrentADC.c **** 
 736:.\Generated_Source\PSoC4/MotorCurrentADC.c ****         /* Subtract ADC offset */
 737:.\Generated_Source\PSoC4/MotorCurrentADC.c ****         adcCounts -= MotorCurrentADC_offset[chan];
 933              		.loc 1 737 0 is_stmt 1
 934 001a BB1C     		add	r3, r7, #2
 935 001c 1A88     		ldrh	r2, [r3]
 936 001e 1E4B     		ldr	r3, .L73
 937 0020 7968     		ldr	r1, [r7, #4]
 938 0022 4900     		lsl	r1, r1, #1
 939 0024 CB5A     		ldrh	r3, [r1, r3]
 940 0026 9BB2     		uxth	r3, r3
 941 0028 9BB2     		uxth	r3, r3
 942 002a D31A     		sub	r3, r2, r3
 943 002c 9AB2     		uxth	r2, r3
 944 002e BB1C     		add	r3, r7, #2
 945 0030 1A80     		strh	r2, [r3]
 738:.\Generated_Source\PSoC4/MotorCurrentADC.c **** 
 739:.\Generated_Source\PSoC4/MotorCurrentADC.c ****         mVolts = (int16)((((int32)adcCounts * MotorCurrentADC_10MV_COUNTS) + ( (adcCounts > 0) ?
 946              		.loc 1 739 0
 947 0032 BB1C     		add	r3, r7, #2
 948 0034 0021     		mov	r1, #0
 949 0036 5B5E     		ldrsh	r3, [r3, r1]
 950 0038 184A     		ldr	r2, .L73+4
 951 003a 5A43     		mul	r2, r3
 740:.\Generated_Source\PSoC4/MotorCurrentADC.c ****                  (MotorCurrentADC_countsPer10Volt[chan] / 2) : (-(MotorCurrentADC_countsPer10Volt[c
 952              		.loc 1 740 0
 953 003c BB1C     		add	r3, r7, #2
 954 003e 0021     		mov	r1, #0
 955 0040 5B5E     		ldrsh	r3, [r3, r1]
 956 0042 002B     		cmp	r3, #0
 957 0044 08DD     		ble	.L68
 958              		.loc 1 740 0 is_stmt 0 discriminator 1
 959 0046 164B     		ldr	r3, .L73+8
 960 0048 7968     		ldr	r1, [r7, #4]
 961 004a 8900     		lsl	r1, r1, #2
 962 004c CB58     		ldr	r3, [r1, r3]
 963 004e 002B     		cmp	r3, #0
 964 0050 00DA     		bge	.L69
 965 0052 0133     		add	r3, r3, #1
 966              	.L69:
 967 0054 5B10     		asr	r3, r3, #1
ARM GAS  C:\Users\Sam\AppData\Local\Temp\ccYsdH5V.s 			page 31


 968 0056 08E0     		b	.L70
 969              	.L68:
 970              		.loc 1 740 0 discriminator 2
 971 0058 114B     		ldr	r3, .L73+8
 972 005a 7968     		ldr	r1, [r7, #4]
 973 005c 8900     		lsl	r1, r1, #2
 974 005e CB58     		ldr	r3, [r1, r3]
 975 0060 002B     		cmp	r3, #0
 976 0062 00DA     		bge	.L71
 977 0064 0133     		add	r3, r3, #1
 978              	.L71:
 979 0066 5B10     		asr	r3, r3, #1
 980 0068 5B42     		neg	r3, r3
 981              	.L70:
 739:.\Generated_Source\PSoC4/MotorCurrentADC.c ****         mVolts = (int16)((((int32)adcCounts * MotorCurrentADC_10MV_COUNTS) + ( (adcCounts > 0) ?
 982              		.loc 1 739 0 is_stmt 1
 983 006a D218     		add	r2, r2, r3
 741:.\Generated_Source\PSoC4/MotorCurrentADC.c ****                  / MotorCurrentADC_countsPer10Volt[chan]);
 984              		.loc 1 741 0
 985 006c 0C4B     		ldr	r3, .L73+8
 986 006e 7968     		ldr	r1, [r7, #4]
 987 0070 8900     		lsl	r1, r1, #2
 988 0072 CB58     		ldr	r3, [r1, r3]
 989 0074 101C     		mov	r0, r2
 990 0076 191C     		mov	r1, r3
 991 0078 FFF7FEFF 		bl	__aeabi_idiv
 992 007c 031C     		mov	r3, r0
 993 007e 1A1C     		mov	r2, r3
 739:.\Generated_Source\PSoC4/MotorCurrentADC.c ****         mVolts = (int16)((((int32)adcCounts * MotorCurrentADC_10MV_COUNTS) + ( (adcCounts > 0) ?
 994              		.loc 1 739 0
 995 0080 3B1C     		mov	r3, r7
 996 0082 0E33     		add	r3, r3, #14
 997 0084 1A80     		strh	r2, [r3]
 742:.\Generated_Source\PSoC4/MotorCurrentADC.c **** 
 743:.\Generated_Source\PSoC4/MotorCurrentADC.c ****         return( mVolts );
 998              		.loc 1 743 0
 999 0086 3B1C     		mov	r3, r7
 1000 0088 0E33     		add	r3, r3, #14
 1001 008a 1B88     		ldrh	r3, [r3]
 1002 008c 1BB2     		sxth	r3, r3
 744:.\Generated_Source\PSoC4/MotorCurrentADC.c ****     }
 1003              		.loc 1 744 0
 1004 008e 181C     		mov	r0, r3
 1005 0090 BD46     		mov	sp, r7
 1006 0092 04B0     		add	sp, sp, #16
 1007              		@ sp needed
 1008 0094 80BD     		pop	{r7, pc}
 1009              	.L74:
 1010 0096 C046     		.align	2
 1011              	.L73:
 1012 0098 00000000 		.word	MotorCurrentADC_offset
 1013 009c 10270000 		.word	10000
 1014 00a0 00000000 		.word	MotorCurrentADC_countsPer10Volt
 1015              		.cfi_endproc
 1016              	.LFE15:
 1017              		.size	MotorCurrentADC_CountsTo_mVolts, .-MotorCurrentADC_CountsTo_mVolts
 1018              		.global	__aeabi_lmul
ARM GAS  C:\Users\Sam\AppData\Local\Temp\ccYsdH5V.s 			page 32


 1019              		.global	__aeabi_ldivmod
 1020              		.section	.text.MotorCurrentADC_CountsTo_uVolts,"ax",%progbits
 1021              		.align	2
 1022              		.global	MotorCurrentADC_CountsTo_uVolts
 1023              		.code	16
 1024              		.thumb_func
 1025              		.type	MotorCurrentADC_CountsTo_uVolts, %function
 1026              	MotorCurrentADC_CountsTo_uVolts:
 1027              	.LFB16:
 745:.\Generated_Source\PSoC4/MotorCurrentADC.c **** 
 746:.\Generated_Source\PSoC4/MotorCurrentADC.c **** 
 747:.\Generated_Source\PSoC4/MotorCurrentADC.c ****     /*******************************************************************************
 748:.\Generated_Source\PSoC4/MotorCurrentADC.c ****     * Function Name: MotorCurrentADC_CountsTo_uVolts
 749:.\Generated_Source\PSoC4/MotorCurrentADC.c ****     ********************************************************************************
 750:.\Generated_Source\PSoC4/MotorCurrentADC.c ****     *
 751:.\Generated_Source\PSoC4/MotorCurrentADC.c ****     * Summary:
 752:.\Generated_Source\PSoC4/MotorCurrentADC.c ****     *  This function converts ADC counts to micro Volts
 753:.\Generated_Source\PSoC4/MotorCurrentADC.c ****     *  This function is not available when left data format justification selected.
 754:.\Generated_Source\PSoC4/MotorCurrentADC.c ****     *
 755:.\Generated_Source\PSoC4/MotorCurrentADC.c ****     * Parameters:
 756:.\Generated_Source\PSoC4/MotorCurrentADC.c ****     *  chan: The ADC channel number.
 757:.\Generated_Source\PSoC4/MotorCurrentADC.c ****     *  adcCounts: Result from the ADC conversion
 758:.\Generated_Source\PSoC4/MotorCurrentADC.c ****     *
 759:.\Generated_Source\PSoC4/MotorCurrentADC.c ****     * Return:
 760:.\Generated_Source\PSoC4/MotorCurrentADC.c ****     *  Results in uVolts
 761:.\Generated_Source\PSoC4/MotorCurrentADC.c ****     *
 762:.\Generated_Source\PSoC4/MotorCurrentADC.c ****     * Global variables:
 763:.\Generated_Source\PSoC4/MotorCurrentADC.c ****     *  MotorCurrentADC_countsPer10Volt:  used to convert ADC counts to uVolts.
 764:.\Generated_Source\PSoC4/MotorCurrentADC.c ****     *  MotorCurrentADC_Offset:  Used as the offset while converting ADC counts
 765:.\Generated_Source\PSoC4/MotorCurrentADC.c ****     *   to mVolts.
 766:.\Generated_Source\PSoC4/MotorCurrentADC.c ****     *
 767:.\Generated_Source\PSoC4/MotorCurrentADC.c ****     * Theory:
 768:.\Generated_Source\PSoC4/MotorCurrentADC.c ****     *  Care must be taken to not exceed the maximum value for a 31 bit signed
 769:.\Generated_Source\PSoC4/MotorCurrentADC.c ****     *  number in the conversion to uVolts and at the same time not loose
 770:.\Generated_Source\PSoC4/MotorCurrentADC.c ****     *  resolution.
 771:.\Generated_Source\PSoC4/MotorCurrentADC.c ****     *  To convert adcCounts to microVolts it is required to be multiplied
 772:.\Generated_Source\PSoC4/MotorCurrentADC.c ****     *  on 10 million and later divide on gain in counts per 10V.
 773:.\Generated_Source\PSoC4/MotorCurrentADC.c ****     *
 774:.\Generated_Source\PSoC4/MotorCurrentADC.c ****     *******************************************************************************/
 775:.\Generated_Source\PSoC4/MotorCurrentADC.c ****     int32 MotorCurrentADC_CountsTo_uVolts(uint32 chan, int16 adcCounts)
 776:.\Generated_Source\PSoC4/MotorCurrentADC.c ****     {
 1028              		.loc 1 776 0
 1029              		.cfi_startproc
 1030 0000 B0B5     		push	{r4, r5, r7, lr}
 1031              		.cfi_def_cfa_offset 16
 1032              		.cfi_offset 4, -16
 1033              		.cfi_offset 5, -12
 1034              		.cfi_offset 7, -8
 1035              		.cfi_offset 14, -4
 1036 0002 86B0     		sub	sp, sp, #24
 1037              		.cfi_def_cfa_offset 40
 1038 0004 00AF     		add	r7, sp, #0
 1039              		.cfi_def_cfa_register 7
 1040 0006 F860     		str	r0, [r7, #12]
 1041 0008 0A1C     		mov	r2, r1
 1042 000a 3B1C     		mov	r3, r7
 1043 000c 0A33     		add	r3, r3, #10
ARM GAS  C:\Users\Sam\AppData\Local\Temp\ccYsdH5V.s 			page 33


 1044 000e 1A80     		strh	r2, [r3]
 777:.\Generated_Source\PSoC4/MotorCurrentADC.c ****         int64 uVolts;
 778:.\Generated_Source\PSoC4/MotorCurrentADC.c **** 
 779:.\Generated_Source\PSoC4/MotorCurrentADC.c ****         /* Halt CPU in debug mode if channel is out of valid range */
 780:.\Generated_Source\PSoC4/MotorCurrentADC.c ****         CYASSERT(chan < MotorCurrentADC_TOTAL_CHANNELS_NUM);
 1045              		.loc 1 780 0
 1046 0010 FB68     		ldr	r3, [r7, #12]
 1047 0012 002B     		cmp	r3, #0
 1048 0014 02D0     		beq	.L76
 1049              		.loc 1 780 0 is_stmt 0 discriminator 1
 1050 0016 0020     		mov	r0, #0
 1051 0018 FFF7FEFF 		bl	CyHalt
 1052              	.L76:
 781:.\Generated_Source\PSoC4/MotorCurrentADC.c **** 
 782:.\Generated_Source\PSoC4/MotorCurrentADC.c ****         /* Divide the adcCount when accumulate averaging mode selected */
 783:.\Generated_Source\PSoC4/MotorCurrentADC.c ****         #if(MotorCurrentADC_DEFAULT_AVG_MODE == MotorCurrentADC__ACCUMULATE)
 784:.\Generated_Source\PSoC4/MotorCurrentADC.c ****             if((MotorCurrentADC_channelsConfig[chan] & MotorCurrentADC_AVERAGING_EN) != 0u)
 785:.\Generated_Source\PSoC4/MotorCurrentADC.c ****             {
 786:.\Generated_Source\PSoC4/MotorCurrentADC.c ****                 adcCounts /= MotorCurrentADC_DEFAULT_AVG_SAMPLES_DIV;
 787:.\Generated_Source\PSoC4/MotorCurrentADC.c ****             }
 788:.\Generated_Source\PSoC4/MotorCurrentADC.c ****         #endif /* MotorCurrentADC_DEFAULT_AVG_MODE == MotorCurrentADC__ACCUMULATE */
 789:.\Generated_Source\PSoC4/MotorCurrentADC.c **** 
 790:.\Generated_Source\PSoC4/MotorCurrentADC.c ****         /* Subtract ADC offset */
 791:.\Generated_Source\PSoC4/MotorCurrentADC.c ****         adcCounts -= MotorCurrentADC_offset[chan];
 1053              		.loc 1 791 0 is_stmt 1
 1054 001c 3B1C     		mov	r3, r7
 1055 001e 0A33     		add	r3, r3, #10
 1056 0020 1A88     		ldrh	r2, [r3]
 1057 0022 1B4B     		ldr	r3, .L78+8
 1058 0024 F968     		ldr	r1, [r7, #12]
 1059 0026 4900     		lsl	r1, r1, #1
 1060 0028 CB5A     		ldrh	r3, [r1, r3]
 1061 002a 9BB2     		uxth	r3, r3
 1062 002c 9BB2     		uxth	r3, r3
 1063 002e D31A     		sub	r3, r2, r3
 1064 0030 9AB2     		uxth	r2, r3
 1065 0032 3B1C     		mov	r3, r7
 1066 0034 0A33     		add	r3, r3, #10
 1067 0036 1A80     		strh	r2, [r3]
 792:.\Generated_Source\PSoC4/MotorCurrentADC.c **** 
 793:.\Generated_Source\PSoC4/MotorCurrentADC.c ****         uVolts = ((int64)adcCounts * MotorCurrentADC_10UV_COUNTS) / MotorCurrentADC_countsPer10Volt
 1068              		.loc 1 793 0
 1069 0038 3B1C     		mov	r3, r7
 1070 003a 0A33     		add	r3, r3, #10
 1071 003c 1B88     		ldrh	r3, [r3]
 1072 003e 1BB2     		sxth	r3, r3
 1073 0040 3B60     		str	r3, [r7]
 1074 0042 DB17     		asr	r3, r3, #31
 1075 0044 7B60     		str	r3, [r7, #4]
 1076 0046 3868     		ldr	r0, [r7]
 1077 0048 7968     		ldr	r1, [r7, #4]
 1078 004a 104B     		ldr	r3, .L78+4
 1079 004c 0E4A     		ldr	r2, .L78
 1080 004e FFF7FEFF 		bl	__aeabi_lmul
 1081 0052 021C     		mov	r2, r0
 1082 0054 0B1C     		mov	r3, r1
 1083 0056 0F49     		ldr	r1, .L78+12
ARM GAS  C:\Users\Sam\AppData\Local\Temp\ccYsdH5V.s 			page 34


 1084 0058 F868     		ldr	r0, [r7, #12]
 1085 005a 8000     		lsl	r0, r0, #2
 1086 005c 4158     		ldr	r1, [r0, r1]
 1087 005e 0C1C     		mov	r4, r1
 1088 0060 C917     		asr	r1, r1, #31
 1089 0062 0D1C     		mov	r5, r1
 1090 0064 101C     		mov	r0, r2
 1091 0066 191C     		mov	r1, r3
 1092 0068 221C     		mov	r2, r4
 1093 006a 2B1C     		mov	r3, r5
 1094 006c FFF7FEFF 		bl	__aeabi_ldivmod
 1095 0070 031C     		mov	r3, r0
 1096 0072 0C1C     		mov	r4, r1
 1097 0074 3B61     		str	r3, [r7, #16]
 1098 0076 7C61     		str	r4, [r7, #20]
 794:.\Generated_Source\PSoC4/MotorCurrentADC.c **** 
 795:.\Generated_Source\PSoC4/MotorCurrentADC.c ****         return( (int32)uVolts );
 1099              		.loc 1 795 0
 1100 0078 3B69     		ldr	r3, [r7, #16]
 796:.\Generated_Source\PSoC4/MotorCurrentADC.c ****     }
 1101              		.loc 1 796 0
 1102 007a 181C     		mov	r0, r3
 1103 007c BD46     		mov	sp, r7
 1104 007e 06B0     		add	sp, sp, #24
 1105              		@ sp needed
 1106 0080 B0BD     		pop	{r4, r5, r7, pc}
 1107              	.L79:
 1108 0082 C046C046 		.align	3
 1108      C046
 1109              	.L78:
 1110 0088 80969800 		.word	10000000
 1111 008c 00000000 		.word	0
 1112 0090 00000000 		.word	MotorCurrentADC_offset
 1113 0094 00000000 		.word	MotorCurrentADC_countsPer10Volt
 1114              		.cfi_endproc
 1115              	.LFE16:
 1116              		.size	MotorCurrentADC_CountsTo_uVolts, .-MotorCurrentADC_CountsTo_uVolts
 1117              		.global	__aeabi_i2f
 1118              		.global	__aeabi_fmul
 1119              		.global	__aeabi_fdiv
 1120              		.section	.text.MotorCurrentADC_CountsTo_Volts,"ax",%progbits
 1121              		.align	2
 1122              		.global	MotorCurrentADC_CountsTo_Volts
 1123              		.code	16
 1124              		.thumb_func
 1125              		.type	MotorCurrentADC_CountsTo_Volts, %function
 1126              	MotorCurrentADC_CountsTo_Volts:
 1127              	.LFB17:
 797:.\Generated_Source\PSoC4/MotorCurrentADC.c **** 
 798:.\Generated_Source\PSoC4/MotorCurrentADC.c **** 
 799:.\Generated_Source\PSoC4/MotorCurrentADC.c ****     /*******************************************************************************
 800:.\Generated_Source\PSoC4/MotorCurrentADC.c ****     * Function Name: MotorCurrentADC_CountsTo_Volts
 801:.\Generated_Source\PSoC4/MotorCurrentADC.c ****     ********************************************************************************
 802:.\Generated_Source\PSoC4/MotorCurrentADC.c ****     *
 803:.\Generated_Source\PSoC4/MotorCurrentADC.c ****     * Summary:
 804:.\Generated_Source\PSoC4/MotorCurrentADC.c ****     *  Converts the ADC output to Volts as a floating point number.
 805:.\Generated_Source\PSoC4/MotorCurrentADC.c ****     *  This function is not available when left data format justification selected.
ARM GAS  C:\Users\Sam\AppData\Local\Temp\ccYsdH5V.s 			page 35


 806:.\Generated_Source\PSoC4/MotorCurrentADC.c ****     *
 807:.\Generated_Source\PSoC4/MotorCurrentADC.c ****     * Parameters:
 808:.\Generated_Source\PSoC4/MotorCurrentADC.c ****     *  chan: The ADC channel number.
 809:.\Generated_Source\PSoC4/MotorCurrentADC.c ****     *  Result from the ADC conversion
 810:.\Generated_Source\PSoC4/MotorCurrentADC.c ****     *
 811:.\Generated_Source\PSoC4/MotorCurrentADC.c ****     * Return:
 812:.\Generated_Source\PSoC4/MotorCurrentADC.c ****     *  Results in Volts
 813:.\Generated_Source\PSoC4/MotorCurrentADC.c ****     *
 814:.\Generated_Source\PSoC4/MotorCurrentADC.c ****     * Global variables:
 815:.\Generated_Source\PSoC4/MotorCurrentADC.c ****     *  MotorCurrentADC_countsPer10Volt:  used to convert ADC counts to Volts.
 816:.\Generated_Source\PSoC4/MotorCurrentADC.c ****     *  MotorCurrentADC_Offset:  Used as the offset while converting ADC counts
 817:.\Generated_Source\PSoC4/MotorCurrentADC.c ****     *   to mVolts.
 818:.\Generated_Source\PSoC4/MotorCurrentADC.c ****     *
 819:.\Generated_Source\PSoC4/MotorCurrentADC.c ****     *******************************************************************************/
 820:.\Generated_Source\PSoC4/MotorCurrentADC.c ****     float32 MotorCurrentADC_CountsTo_Volts(uint32 chan, int16 adcCounts)
 821:.\Generated_Source\PSoC4/MotorCurrentADC.c ****     {
 1128              		.loc 1 821 0
 1129              		.cfi_startproc
 1130 0000 90B5     		push	{r4, r7, lr}
 1131              		.cfi_def_cfa_offset 12
 1132              		.cfi_offset 4, -12
 1133              		.cfi_offset 7, -8
 1134              		.cfi_offset 14, -4
 1135 0002 85B0     		sub	sp, sp, #20
 1136              		.cfi_def_cfa_offset 32
 1137 0004 00AF     		add	r7, sp, #0
 1138              		.cfi_def_cfa_register 7
 1139 0006 7860     		str	r0, [r7, #4]
 1140 0008 0A1C     		mov	r2, r1
 1141 000a BB1C     		add	r3, r7, #2
 1142 000c 1A80     		strh	r2, [r3]
 822:.\Generated_Source\PSoC4/MotorCurrentADC.c ****         float32 volts;
 823:.\Generated_Source\PSoC4/MotorCurrentADC.c **** 
 824:.\Generated_Source\PSoC4/MotorCurrentADC.c ****         /* Halt CPU in debug mode if channel is out of valid range */
 825:.\Generated_Source\PSoC4/MotorCurrentADC.c ****         CYASSERT(chan < MotorCurrentADC_TOTAL_CHANNELS_NUM);
 1143              		.loc 1 825 0
 1144 000e 7B68     		ldr	r3, [r7, #4]
 1145 0010 002B     		cmp	r3, #0
 1146 0012 02D0     		beq	.L81
 1147              		.loc 1 825 0 is_stmt 0 discriminator 1
 1148 0014 0020     		mov	r0, #0
 1149 0016 FFF7FEFF 		bl	CyHalt
 1150              	.L81:
 826:.\Generated_Source\PSoC4/MotorCurrentADC.c **** 
 827:.\Generated_Source\PSoC4/MotorCurrentADC.c ****         /* Divide the adcCount when accumulate averaging mode selected */
 828:.\Generated_Source\PSoC4/MotorCurrentADC.c ****         #if(MotorCurrentADC_DEFAULT_AVG_MODE == MotorCurrentADC__ACCUMULATE)
 829:.\Generated_Source\PSoC4/MotorCurrentADC.c ****             if((MotorCurrentADC_channelsConfig[chan] & MotorCurrentADC_AVERAGING_EN) != 0u)
 830:.\Generated_Source\PSoC4/MotorCurrentADC.c ****             {
 831:.\Generated_Source\PSoC4/MotorCurrentADC.c ****                 adcCounts /= MotorCurrentADC_DEFAULT_AVG_SAMPLES_DIV;
 832:.\Generated_Source\PSoC4/MotorCurrentADC.c ****             }
 833:.\Generated_Source\PSoC4/MotorCurrentADC.c ****         #endif /* MotorCurrentADC_DEFAULT_AVG_MODE == MotorCurrentADC__ACCUMULATE */
 834:.\Generated_Source\PSoC4/MotorCurrentADC.c **** 
 835:.\Generated_Source\PSoC4/MotorCurrentADC.c ****         /* Subtract ADC offset */
 836:.\Generated_Source\PSoC4/MotorCurrentADC.c ****         adcCounts -= MotorCurrentADC_offset[chan];
 1151              		.loc 1 836 0 is_stmt 1
 1152 001a BB1C     		add	r3, r7, #2
 1153 001c 1A88     		ldrh	r2, [r3]
ARM GAS  C:\Users\Sam\AppData\Local\Temp\ccYsdH5V.s 			page 36


 1154 001e 154B     		ldr	r3, .L83
 1155 0020 7968     		ldr	r1, [r7, #4]
 1156 0022 4900     		lsl	r1, r1, #1
 1157 0024 CB5A     		ldrh	r3, [r1, r3]
 1158 0026 9BB2     		uxth	r3, r3
 1159 0028 9BB2     		uxth	r3, r3
 1160 002a D31A     		sub	r3, r2, r3
 1161 002c 9AB2     		uxth	r2, r3
 1162 002e BB1C     		add	r3, r7, #2
 1163 0030 1A80     		strh	r2, [r3]
 837:.\Generated_Source\PSoC4/MotorCurrentADC.c **** 
 838:.\Generated_Source\PSoC4/MotorCurrentADC.c ****         volts = ((float32)adcCounts * MotorCurrentADC_10V_COUNTS) / (float32)MotorCurrentADC_counts
 1164              		.loc 1 838 0
 1165 0032 BB1C     		add	r3, r7, #2
 1166 0034 0022     		mov	r2, #0
 1167 0036 9B5E     		ldrsh	r3, [r3, r2]
 1168 0038 181C     		mov	r0, r3
 1169 003a FFF7FEFF 		bl	__aeabi_i2f
 1170 003e 031C     		add	r3, r0, #0
 1171 0040 181C     		add	r0, r3, #0
 1172 0042 0D49     		ldr	r1, .L83+4
 1173 0044 FFF7FEFF 		bl	__aeabi_fmul
 1174 0048 031C     		add	r3, r0, #0
 1175 004a 1C1C     		add	r4, r3, #0
 1176 004c 0B4B     		ldr	r3, .L83+8
 1177 004e 7A68     		ldr	r2, [r7, #4]
 1178 0050 9200     		lsl	r2, r2, #2
 1179 0052 D358     		ldr	r3, [r2, r3]
 1180 0054 181C     		mov	r0, r3
 1181 0056 FFF7FEFF 		bl	__aeabi_i2f
 1182 005a 031C     		add	r3, r0, #0
 1183 005c 201C     		add	r0, r4, #0
 1184 005e 191C     		add	r1, r3, #0
 1185 0060 FFF7FEFF 		bl	__aeabi_fdiv
 1186 0064 031C     		add	r3, r0, #0
 1187 0066 FB60     		str	r3, [r7, #12]
 839:.\Generated_Source\PSoC4/MotorCurrentADC.c **** 
 840:.\Generated_Source\PSoC4/MotorCurrentADC.c ****         return( volts );
 1188              		.loc 1 840 0
 1189 0068 FB68     		ldr	r3, [r7, #12]
 841:.\Generated_Source\PSoC4/MotorCurrentADC.c ****     }
 1190              		.loc 1 841 0
 1191 006a 181C     		add	r0, r3, #0
 1192 006c BD46     		mov	sp, r7
 1193 006e 05B0     		add	sp, sp, #20
 1194              		@ sp needed
 1195 0070 90BD     		pop	{r4, r7, pc}
 1196              	.L84:
 1197 0072 C046     		.align	2
 1198              	.L83:
 1199 0074 00000000 		.word	MotorCurrentADC_offset
 1200 0078 00002041 		.word	1092616192
 1201 007c 00000000 		.word	MotorCurrentADC_countsPer10Volt
 1202              		.cfi_endproc
 1203              	.LFE17:
 1204              		.size	MotorCurrentADC_CountsTo_Volts, .-MotorCurrentADC_CountsTo_Volts
 1205              		.text
ARM GAS  C:\Users\Sam\AppData\Local\Temp\ccYsdH5V.s 			page 37


 1206              	.Letext0:
 1207              		.file 2 ".\\Generated_Source\\PSoC4\\cytypes.h"